 output.s

 Timestamp is 5b5a5760 (Fri Jul 27 01:21:04 2018)

 Preferred load address is 0000000140000000

 Start         Length     Name                   Class
 0001:00000000 00001740H .text$mn                CODE
 0001:00001740 00000020H .text$mn$00             CODE
 0001:00001760 00000036H .text$x                 CODE
 0002:00000000 000001b8H .idata$5                DATA
 0002:000001b8 00000010H .00cfg                  DATA
 0002:000001c8 00000008H .CRT$XCA                DATA
 0002:000001d0 00000008H .CRT$XCAA               DATA
 0002:000001d8 00000008H .CRT$XCZ                DATA
 0002:000001e0 00000008H .CRT$XIA                DATA
 0002:000001e8 00000008H .CRT$XIAA               DATA
 0002:000001f0 00000008H .CRT$XIAC               DATA
 0002:000001f8 00000008H .CRT$XIC                DATA
 0002:00000200 00000008H .CRT$XIZ                DATA
 0002:00000208 00000008H .CRT$XPA                DATA
 0002:00000210 00000008H .CRT$XPZ                DATA
 0002:00000218 00000008H .CRT$XTA                DATA
 0002:00000220 00000010H .CRT$XTZ                DATA
 0002:00000228 00000000H .gfids$y                DATA
 0002:00000230 00001420H .rdata                  DATA
 0002:00001650 0000016cH .rdata$r                DATA
 0002:000017bc 0000027cH .rdata$zzzdbg           DATA
 0002:00001a38 00000008H .rtc$IAA                DATA
 0002:00001a40 00000008H .rtc$IZZ                DATA
 0002:00001a48 00000008H .rtc$TAA                DATA
 0002:00001a50 00000008H .rtc$TZZ                DATA
 0002:00001a58 00000158H .xdata                  DATA
 0002:00001bb0 00000000H .xdata$x                DATA
 0002:00001bb0 00000000H .edata                  DATA
 0002:00001bb0 0000008cH .idata$2                DATA
 0002:00001c3c 00000014H .idata$3                DATA
 0002:00001c50 000001b8H .idata$4                DATA
 0002:00001e08 00000474H .idata$6                DATA
 0003:00000000 00000038H .data                   DATA
 0003:00000038 00000088H .data$r                 DATA
 0003:000000c0 00000738H .bss                    DATA
 0004:00000000 0000021cH .pdata                  DATA

  Address         Publics by Value              Rva+Base               Lib:Object

 0000:00000000       __guard_iat_table          0000000000000000     <absolute>
 0000:00000000       __dynamic_value_reloc_table 0000000000000000     <absolute>
 0000:00000000       __hybrid_code_map          0000000000000000     <absolute>
 0000:00000000       __hybrid_code_map_count    0000000000000000     <absolute>
 0000:00000000       __guard_iat_count          0000000000000000     <absolute>
 0000:00000000       __hybrid_auxiliary_iat     0000000000000000     <absolute>
 0000:00000000       __guard_longjmp_table      0000000000000000     <absolute>
 0000:00000000       __guard_longjmp_count      0000000000000000     <absolute>
 0000:00000000       __guard_fids_count         0000000000000000     <absolute>
 0000:00000000       __enclave_config           0000000000000000     <absolute>
 0000:00000000       ___safe_se_handler_table   0000000000000000     <absolute>
 0000:00000000       ___safe_se_handler_count   0000000000000000     <absolute>
 0000:00000000       __guard_fids_table         0000000000000000     <absolute>
 0000:00000100       __guard_flags              0000000000000100     <absolute>
 0000:00000000       __ImageBase                0000000140000000     <linker-defined>
 0001:00000000       __local_stdio_printf_options 0000000140001000 f i output.s.obj
 0001:00000010       _vfprintf_l                0000000140001010 f i output.s.obj
 0001:00000060       printf                     0000000140001060 f i output.s.obj
 0001:000000c0       ?classname@Freeable@Groundfloor@@MEAAPEBDXZ 00000001400010c0 f i libGroundfloor:String.obj
 0001:000000d0       ??_GFreeable@Groundfloor@@UEAAPEAXI@Z 00000001400010d0 f i libGroundfloor:String.obj
 0001:000000d0       ??_EFreeable@Groundfloor@@UEAAPEAXI@Z 00000001400010d0 f i * CIL library *:* CIL module *
 0001:00000100       ?classname@String@Groundfloor@@MEAAPEBDXZ 0000000140001100 f i libGroundfloor:String.obj
 0001:00000110       ??_GString@Groundfloor@@UEAAPEAXI@Z 0000000140001110 f i libGroundfloor:String.obj
 0001:00000110       ??_EString@Groundfloor@@UEAAPEAXI@Z 0000000140001110 f i * CIL library *:* CIL module *
 0001:00000170       ??0String@Groundfloor@@QEAA@PEBD@Z 0000000140001170 f   libGroundfloor:String.obj
 0001:000001b0       ??1String@Groundfloor@@UEAA@XZ 00000001400011b0 f   libGroundfloor:String.obj
 0001:000001f0       ?getValue@String@Groundfloor@@QEBAPEADXZ 00000001400011f0 f   libGroundfloor:String.obj
 0001:00000200       ?setValue@String@Groundfloor@@QEAA_NPEBDI@Z 0000000140001200 f   libGroundfloor:String.obj
 0001:000002a0       ?append@String@Groundfloor@@QEAA_NPEBDI@Z 00000001400012a0 f   libGroundfloor:String.obj
 0001:00000340       ?append_ansi@String@Groundfloor@@QEAA_NPEBD@Z 0000000140001340 f   libGroundfloor:String.obj
 0001:00000360       ?setSize@String@Groundfloor@@QEAA_NI@Z 0000000140001360 f   libGroundfloor:String.obj
 0001:00000400       sprintf                    0000000140001400 f i libGroundfloor:Freeable.obj
 0001:00000460       ?DebugString@Freeable@Groundfloor@@UEAAHPEADJ@Z 0000000140001460 f   libGroundfloor:Freeable.obj
 0001:000004f0       __security_check_cookie    00000001400014f0 f   msvcrt:_amdsecgs_.obj
 0001:0000076c       mainCRTStartup             000000014000176c f   msvcrt:exe_main.obj
 0001:00000780       ??3@YAXPEAX_K@Z            0000000140001780 f   msvcrt:delete_scalar_size.obj
 0001:00000788       ??_Gtype_info@@UEAAPEAXI@Z 0000000140001788 f i msvcrt:std_type_info_static.obj
 0001:00000788       ??_Etype_info@@UEAAPEAXI@Z 0000000140001788 f i msvcrt:std_type_info_static.obj
 0001:000007b4       __raise_securityfailure    00000001400017b4 f   msvcrt:gs_report.obj
 0001:000007e8       __report_gsfailure         00000001400017e8 f   msvcrt:gs_report.obj
 0001:00000930       __scrt_acquire_startup_lock 0000000140001930 f   msvcrt:utility.obj
 0001:0000096c       __scrt_initialize_crt      000000014000196c f   msvcrt:utility.obj
 0001:000009b8       __scrt_initialize_onexit_tables 00000001400019b8 f   msvcrt:utility.obj
 0001:00000a94       __scrt_is_nonwritable_in_current_image 0000000140001a94 f   msvcrt:utility.obj
 0001:00000b30       __scrt_release_startup_lock 0000000140001b30 f   msvcrt:utility.obj
 0001:00000b54       __scrt_uninitialize_crt    0000000140001b54 f   msvcrt:utility.obj
 0001:00000b80       _onexit                    0000000140001b80 f   msvcrt:utility.obj
 0001:00000bd0       atexit                     0000000140001bd0 f   msvcrt:utility.obj
 0001:00000be8       __security_init_cookie     0000000140001be8 f   msvcrt:gs_support.obj
 0001:00000c98       _get_startup_thread_locale_mode 0000000140001c98 f   msvcrt:thread_locale.obj
 0001:00000c98       _get_startup_commit_mode   0000000140001c98 f   msvcrt:commit_mode.obj
 0001:00000c98       __scrt_initialize_winrt    0000000140001c98 f   msvcrt:utility_desktop.obj
 0001:00000c98       _get_startup_new_mode      0000000140001c98 f   msvcrt:new_mode.obj
 0001:00000c98       _matherr                   0000000140001c98 f   msvcrt:matherr.obj
 0001:00000c9c       _get_startup_argv_mode     0000000140001c9c f   msvcrt:argv_mode.obj
 0001:00000ca4       _get_startup_file_mode     0000000140001ca4 f   msvcrt:file_mode.obj
 0001:00000cac       ?__scrt_initialize_type_info@@YAXXZ 0000000140001cac f   msvcrt:tncleanup.obj
 0001:00000cbc       __scrt_stub_for_acrt_initialize 0000000140001cbc f   msvcrt:ucrt_stubs.obj
 0001:00000cbc       __acrt_initialize          0000000140001cbc f   msvcrt:ucrt_stubs.obj
 0001:00000cbc       __acrt_uninitialize        0000000140001cbc f   msvcrt:ucrt_stubs.obj
 0001:00000cbc       __vcrt_uninitialize        0000000140001cbc f   msvcrt:ucrt_stubs.obj
 0001:00000cbc       _should_initialize_environment 0000000140001cbc f   msvcrt:env_mode.obj
 0001:00000cbc       __vcrt_initialize          0000000140001cbc f   msvcrt:ucrt_stubs.obj
 0001:00000cbc       __scrt_stub_for_acrt_uninitialize 0000000140001cbc f   msvcrt:ucrt_stubs.obj
 0001:00000cc0       _initialize_denormal_control 0000000140001cc0 f   msvcrt:denormal_control.obj
 0001:00000cc0       _initialize_invalid_parameter_handler 0000000140001cc0 f   msvcrt:invalid_parameter_handler.obj
 0001:00000cc0       _guard_check_icall_nop     0000000140001cc0 f   msvcrt:guard_support.obj
 0001:00000cc4       __local_stdio_scanf_options 0000000140001cc4 f i msvcrt:default_local_stdio_options.obj
 0001:00000ccc       __scrt_initialize_default_local_stdio_options 0000000140001ccc f   msvcrt:default_local_stdio_options.obj
 0001:00000ce8       __scrt_is_user_matherr_present 0000000140001ce8 f   msvcrt:matherr_detection.obj
 0001:00000cf4       __scrt_get_dyn_tls_init_callback 0000000140001cf4 f   msvcrt:dyn_tls_init.obj
 0001:00000cfc       __scrt_get_dyn_tls_dtor_callback 0000000140001cfc f   msvcrt:dyn_tls_dtor.obj
 0001:00000d04       __crt_debugger_hook        0000000140001d04 f   msvcrt:utility_desktop.obj
 0001:00000d0c       __scrt_fastfail            0000000140001d0c f   msvcrt:utility_desktop.obj
 0001:00000e58       __scrt_is_managed_app      0000000140001e58 f   msvcrt:utility_desktop.obj
 0001:00000eac       __scrt_set_unhandled_exception_filter 0000000140001eac f   msvcrt:utility_desktop.obj
 0001:00000ebc       __scrt_unhandled_exception_filter 0000000140001ebc f   msvcrt:utility_desktop.obj
 0001:00000ef4       _RTC_Initialize            0000000140001ef4 f   msvcrt:_initsect_.obj
 0001:00000f30       _RTC_Terminate             0000000140001f30 f   msvcrt:_initsect_.obj
 0001:00000f6c       ??3@YAXPEAX@Z              0000000140001f6c f   msvcrt:delete_scalar.obj
 0001:00000f74       __isa_available_init       0000000140001f74 f   msvcrt:_cpu_disp_.obj
 0001:00001130       __scrt_is_ucrt_dll_in_use  0000000140002130 f   msvcrt:ucrt_detection.obj
 0001:0000160e       IsProcessorFeaturePresent  000000014000260e f   kernel32:KERNEL32.dll
 0001:00001614       __C_specific_handler       0000000140002614 f   vcruntime:VCRUNTIME140.dll
 0001:0000161a       memset                     000000014000261a f   vcruntime:VCRUNTIME140.dll
 0001:00001620       memcpy                     0000000140002620 f   vcruntime:VCRUNTIME140.dll
 0001:00001626       terminate                  0000000140002626 f   ucrt:api-ms-win-crt-runtime-l1-1-0.dll
 0001:0000162c       free                       000000014000262c f   ucrt:api-ms-win-crt-heap-l1-1-0.dll
 0001:00001632       _seh_filter_exe            0000000140002632 f   ucrt:api-ms-win-crt-runtime-l1-1-0.dll
 0001:00001638       _set_app_type              0000000140002638 f   ucrt:api-ms-win-crt-runtime-l1-1-0.dll
 0001:0000163e       __setusermatherr           000000014000263e f   ucrt:api-ms-win-crt-math-l1-1-0.dll
 0001:00001644       _configure_narrow_argv     0000000140002644 f   ucrt:api-ms-win-crt-runtime-l1-1-0.dll
 0001:0000164a       _initialize_narrow_environment 000000014000264a f   ucrt:api-ms-win-crt-runtime-l1-1-0.dll
 0001:00001650       _get_initial_narrow_environment 0000000140002650 f   ucrt:api-ms-win-crt-runtime-l1-1-0.dll
 0001:00001656       _initterm                  0000000140002656 f   ucrt:api-ms-win-crt-runtime-l1-1-0.dll
 0001:0000165c       _initterm_e                000000014000265c f   ucrt:api-ms-win-crt-runtime-l1-1-0.dll
 0001:00001662       exit                       0000000140002662 f   ucrt:api-ms-win-crt-runtime-l1-1-0.dll
 0001:00001668       _exit                      0000000140002668 f   ucrt:api-ms-win-crt-runtime-l1-1-0.dll
 0001:0000166e       _set_fmode                 000000014000266e f   ucrt:api-ms-win-crt-stdio-l1-1-0.dll
 0001:00001674       __p___argc                 0000000140002674 f   ucrt:api-ms-win-crt-runtime-l1-1-0.dll
 0001:0000167a       __p___argv                 000000014000267a f   ucrt:api-ms-win-crt-runtime-l1-1-0.dll
 0001:00001680       _cexit                     0000000140002680 f   ucrt:api-ms-win-crt-runtime-l1-1-0.dll
 0001:00001686       _c_exit                    0000000140002686 f   ucrt:api-ms-win-crt-runtime-l1-1-0.dll
 0001:0000168c       _register_thread_local_exe_atexit_callback 000000014000268c f   ucrt:api-ms-win-crt-runtime-l1-1-0.dll
 0001:00001692       _configthreadlocale        0000000140002692 f   ucrt:api-ms-win-crt-locale-l1-1-0.dll
 0001:00001698       _set_new_mode              0000000140002698 f   ucrt:api-ms-win-crt-heap-l1-1-0.dll
 0001:0000169e       __p__commode               000000014000269e f   ucrt:api-ms-win-crt-stdio-l1-1-0.dll
 0001:000016a4       _initialize_onexit_table   00000001400026a4 f   ucrt:api-ms-win-crt-runtime-l1-1-0.dll
 0001:000016aa       _register_onexit_function  00000001400026aa f   ucrt:api-ms-win-crt-runtime-l1-1-0.dll
 0001:000016b0       _crt_atexit                00000001400026b0 f   ucrt:api-ms-win-crt-runtime-l1-1-0.dll
 0001:000016c0       main                       00000001400026c0 f   output.s.obj
 0001:000016e0       ?square@@YAHH@Z            00000001400026e0 f   output.s.obj
 0001:00001750       _guard_dispatch_icall_nop  0000000140002750 f   msvcrt:_guard_dispatch_.obj
 0002:00000000       __imp_RtlCaptureContext    0000000140003000     kernel32:KERNEL32.dll
 0002:00000008       __imp_RtlLookupFunctionEntry 0000000140003008     kernel32:KERNEL32.dll
 0002:00000010       __imp_RtlVirtualUnwind     0000000140003010     kernel32:KERNEL32.dll
 0002:00000018       __imp_UnhandledExceptionFilter 0000000140003018     kernel32:KERNEL32.dll
 0002:00000020       __imp_SetUnhandledExceptionFilter 0000000140003020     kernel32:KERNEL32.dll
 0002:00000028       __imp_GetCurrentProcess    0000000140003028     kernel32:KERNEL32.dll
 0002:00000030       __imp_TerminateProcess     0000000140003030     kernel32:KERNEL32.dll
 0002:00000038       __imp_IsProcessorFeaturePresent 0000000140003038     kernel32:KERNEL32.dll
 0002:00000040       __imp_QueryPerformanceCounter 0000000140003040     kernel32:KERNEL32.dll
 0002:00000048       __imp_GetCurrentProcessId  0000000140003048     kernel32:KERNEL32.dll
 0002:00000050       __imp_GetCurrentThreadId   0000000140003050     kernel32:KERNEL32.dll
 0002:00000058       __imp_GetSystemTimeAsFileTime 0000000140003058     kernel32:KERNEL32.dll
 0002:00000060       __imp_InitializeSListHead  0000000140003060     kernel32:KERNEL32.dll
 0002:00000068       __imp_IsDebuggerPresent    0000000140003068     kernel32:KERNEL32.dll
 0002:00000070       __imp_GetModuleHandleW     0000000140003070     kernel32:KERNEL32.dll
 0002:00000078       __imp_GetProcAddress       0000000140003078     kernel32:KERNEL32.dll
 0002:00000080       \177KERNEL32_NULL_THUNK_DATA 0000000140003080     kernel32:KERNEL32.dll
 0002:00000088       __imp___C_specific_handler 0000000140003088     vcruntime:VCRUNTIME140.dll
 0002:00000090       __imp_memset               0000000140003090     vcruntime:VCRUNTIME140.dll
 0002:00000098       __imp_memcpy               0000000140003098     vcruntime:VCRUNTIME140.dll
 0002:000000a0       \177VCRUNTIME140_NULL_THUNK_DATA 00000001400030a0     vcruntime:VCRUNTIME140.dll
 0002:000000a8       __imp_malloc               00000001400030a8     ucrt:api-ms-win-crt-heap-l1-1-0.dll
 0002:000000b0       __imp__set_new_mode        00000001400030b0     ucrt:api-ms-win-crt-heap-l1-1-0.dll
 0002:000000b8       __imp_free                 00000001400030b8     ucrt:api-ms-win-crt-heap-l1-1-0.dll
 0002:000000c0       __imp_realloc              00000001400030c0     ucrt:api-ms-win-crt-heap-l1-1-0.dll
 0002:000000c8       \177api-ms-win-crt-heap-l1-1-0_NULL_THUNK_DATA 00000001400030c8     ucrt:api-ms-win-crt-heap-l1-1-0.dll
 0002:000000d0       __imp__configthreadlocale  00000001400030d0     ucrt:api-ms-win-crt-locale-l1-1-0.dll
 0002:000000d8       \177api-ms-win-crt-locale-l1-1-0_NULL_THUNK_DATA 00000001400030d8     ucrt:api-ms-win-crt-locale-l1-1-0.dll
 0002:000000e0       __imp___setusermatherr     00000001400030e0     ucrt:api-ms-win-crt-math-l1-1-0.dll
 0002:000000e8       \177api-ms-win-crt-math-l1-1-0_NULL_THUNK_DATA 00000001400030e8     ucrt:api-ms-win-crt-math-l1-1-0.dll
 0002:000000f0       __imp__set_app_type        00000001400030f0     ucrt:api-ms-win-crt-runtime-l1-1-0.dll
 0002:000000f8       __imp__seh_filter_exe      00000001400030f8     ucrt:api-ms-win-crt-runtime-l1-1-0.dll
 0002:00000100       __imp__configure_narrow_argv 0000000140003100     ucrt:api-ms-win-crt-runtime-l1-1-0.dll
 0002:00000108       __imp__initialize_narrow_environment 0000000140003108     ucrt:api-ms-win-crt-runtime-l1-1-0.dll
 0002:00000110       __imp__get_initial_narrow_environment 0000000140003110     ucrt:api-ms-win-crt-runtime-l1-1-0.dll
 0002:00000118       __imp__initterm            0000000140003118     ucrt:api-ms-win-crt-runtime-l1-1-0.dll
 0002:00000120       __imp__initterm_e          0000000140003120     ucrt:api-ms-win-crt-runtime-l1-1-0.dll
 0002:00000128       __imp_exit                 0000000140003128     ucrt:api-ms-win-crt-runtime-l1-1-0.dll
 0002:00000130       __imp__exit                0000000140003130     ucrt:api-ms-win-crt-runtime-l1-1-0.dll
 0002:00000138       __imp___p___argc           0000000140003138     ucrt:api-ms-win-crt-runtime-l1-1-0.dll
 0002:00000140       __imp___p___argv           0000000140003140     ucrt:api-ms-win-crt-runtime-l1-1-0.dll
 0002:00000148       __imp__cexit               0000000140003148     ucrt:api-ms-win-crt-runtime-l1-1-0.dll
 0002:00000150       __imp__c_exit              0000000140003150     ucrt:api-ms-win-crt-runtime-l1-1-0.dll
 0002:00000158       __imp__register_thread_local_exe_atexit_callback 0000000140003158     ucrt:api-ms-win-crt-runtime-l1-1-0.dll
 0002:00000160       __imp_terminate            0000000140003160     ucrt:api-ms-win-crt-runtime-l1-1-0.dll
 0002:00000168       __imp__crt_atexit          0000000140003168     ucrt:api-ms-win-crt-runtime-l1-1-0.dll
 0002:00000170       __imp__register_onexit_function 0000000140003170     ucrt:api-ms-win-crt-runtime-l1-1-0.dll
 0002:00000178       __imp__initialize_onexit_table 0000000140003178     ucrt:api-ms-win-crt-runtime-l1-1-0.dll
 0002:00000180       \177api-ms-win-crt-runtime-l1-1-0_NULL_THUNK_DATA 0000000140003180     ucrt:api-ms-win-crt-runtime-l1-1-0.dll
 0002:00000188       __imp___p__commode         0000000140003188     ucrt:api-ms-win-crt-stdio-l1-1-0.dll
 0002:00000190       __imp___stdio_common_vfprintf 0000000140003190     ucrt:api-ms-win-crt-stdio-l1-1-0.dll
 0002:00000198       __imp__set_fmode           0000000140003198     ucrt:api-ms-win-crt-stdio-l1-1-0.dll
 0002:000001a0       __imp___acrt_iob_func      00000001400031a0     ucrt:api-ms-win-crt-stdio-l1-1-0.dll
 0002:000001a8       __imp___stdio_common_vsprintf 00000001400031a8     ucrt:api-ms-win-crt-stdio-l1-1-0.dll
 0002:000001b0       \177api-ms-win-crt-stdio-l1-1-0_NULL_THUNK_DATA 00000001400031b0     ucrt:api-ms-win-crt-stdio-l1-1-0.dll
 0002:000001b8       __guard_check_icall_fptr   00000001400031b8     msvcrt:guard_support.obj
 0002:000001c0       __guard_dispatch_icall_fptr 00000001400031c0     msvcrt:guard_support.obj
 0002:000001c8       __xc_a                     00000001400031c8     msvcrt:initializers.obj
 0002:000001d8       __xc_z                     00000001400031d8     msvcrt:initializers.obj
 0002:000001e0       __xi_a                     00000001400031e0     msvcrt:initializers.obj
 0002:00000200       __xi_z                     0000000140003200     msvcrt:initializers.obj
 0002:00000208       __xp_a                     0000000140003208     msvcrt:initializers.obj
 0002:00000210       __xp_z                     0000000140003210     msvcrt:initializers.obj
 0002:00000218       __xt_a                     0000000140003218     msvcrt:initializers.obj
 0002:00000220       __xt_z                     0000000140003220     msvcrt:initializers.obj
 0002:00000238       ??_7type_info@@6B@         0000000140003238     msvcrt:std_type_info_static.obj
 0002:00000998       ??_C@_0BN@LKKBCCDB@address?5family?5not?5supported?$AA@ 0000000140003998     libcpmt:syserror.obj
 0002:000009b8       ??_C@_0P@LDMLAFHI@address?5in?5use?$AA@ 00000001400039b8     libcpmt:syserror.obj
 0002:000009c8       ??_C@_0BG@DHPCNBJB@address?5not?5available?$AA@ 00000001400039c8     libcpmt:syserror.obj
 0002:000009e0       ??_C@_0BC@DFIBIBIL@already?5connected?$AA@ 00000001400039e0     libcpmt:syserror.obj
 0002:000009f8       ??_C@_0BH@CAKOHOMI@argument?5list?5too?5long?$AA@ 00000001400039f8     libcpmt:syserror.obj
 0002:00000a10       ??_C@_0BH@CGIMPKIM@argument?5out?5of?5domain?$AA@ 0000000140003a10     libcpmt:syserror.obj
 0002:00000a28       ??_C@_0M@KGHGGJGL@bad?5address?$AA@ 0000000140003a28     libcpmt:syserror.obj
 0002:00000a38       ??_C@_0BE@MPJPGCEO@bad?5file?5descriptor?$AA@ 0000000140003a38     libcpmt:syserror.obj
 0002:00000a50       ??_C@_0M@PMMIEFCP@bad?5message?$AA@ 0000000140003a50     libcpmt:syserror.obj
 0002:00000a60       ??_C@_0M@KPHOFDBE@broken?5pipe?$AA@ 0000000140003a60     libcpmt:syserror.obj
 0002:00000a70       ??_C@_0BD@MGNDDEGM@connection?5aborted?$AA@ 0000000140003a70     libcpmt:syserror.obj
 0002:00000a88       ??_C@_0BP@KAIHPOGN@connection?5already?5in?5progress?$AA@ 0000000140003a88     libcpmt:syserror.obj
 0002:00000aa8       ??_C@_0BD@PJLIIJEL@connection?5refused?$AA@ 0000000140003aa8     libcpmt:syserror.obj
 0002:00000ac0       ??_C@_0BB@IECNJNOI@connection?5reset?$AA@ 0000000140003ac0     libcpmt:syserror.obj
 0002:00000ad8       ??_C@_0BC@PPHBOELF@cross?5device?5link?$AA@ 0000000140003ad8     libcpmt:syserror.obj
 0002:00000af0       ??_C@_0BN@KDMIFEIP@destination?5address?5required?$AA@ 0000000140003af0     libcpmt:syserror.obj
 0002:00000b10       ??_C@_0BI@NGCEHDD@device?5or?5resource?5busy?$AA@ 0000000140003b10     libcpmt:syserror.obj
 0002:00000b28       ??_C@_0BE@JIDOCPHM@directory?5not?5empty?$AA@ 0000000140003b28     libcpmt:syserror.obj
 0002:00000b40       ??_C@_0BI@BNCLIGPB@executable?5format?5error?$AA@ 0000000140003b40     libcpmt:syserror.obj
 0002:00000b58       ??_C@_0M@MIDIAGJP@file?5exists?$AA@ 0000000140003b58     libcpmt:syserror.obj
 0002:00000b68       ??_C@_0P@DNAJLBJK@file?5too?5large?$AA@ 0000000140003b68     libcpmt:syserror.obj
 0002:00000b78       ??_C@_0BC@EJHOMAAK@filename?5too?5long?$AA@ 0000000140003b78     libcpmt:syserror.obj
 0002:00000b90       ??_C@_0BH@KEFGLDAF@function?5not?5supported?$AA@ 0000000140003b90     libcpmt:syserror.obj
 0002:00000ba8       ??_C@_0BB@DHFDFGDM@host?5unreachable?$AA@ 0000000140003ba8     libcpmt:syserror.obj
 0002:00000bc0       ??_C@_0BD@JPHBMONG@identifier?5removed?$AA@ 0000000140003bc0     libcpmt:syserror.obj
 0002:00000bd8       ??_C@_0BG@CDNPAGJK@illegal?5byte?5sequence?$AA@ 0000000140003bd8     libcpmt:syserror.obj
 0002:00000bf0       ??_C@_0CD@BNPLBMNA@inappropriate?5io?5control?5operati@ 0000000140003bf0     libcpmt:syserror.obj
 0002:00000c18       ??_C@_0M@EGEKIIMP@interrupted?$AA@ 0000000140003c18     libcpmt:syserror.obj
 0002:00000c28       ??_C@_0BB@FCMFBGOM@invalid?5argument?$AA@ 0000000140003c28     libcpmt:syserror.obj
 0002:00000c40       ??_C@_0N@OHAFKDEK@invalid?5seek?$AA@ 0000000140003c40     libcpmt:syserror.obj
 0002:00000c50       ??_C@_08GLNPIFBN@io?5error?$AA@ 0000000140003c50     libcpmt:syserror.obj
 0002:00000c60       ??_C@_0P@FLLDBIDK@is?5a?5directory?$AA@ 0000000140003c60     libcpmt:syserror.obj
 0002:00000c70       ??_C@_0N@IFLPBIOP@message?5size?$AA@ 0000000140003c70     libcpmt:syserror.obj
 0002:00000c80       ??_C@_0N@KIIEAAIO@network?5down?$AA@ 0000000140003c80     libcpmt:syserror.obj
 0002:00000c90       ??_C@_0O@FNPDBHEE@network?5reset?$AA@ 0000000140003c90     libcpmt:syserror.obj
 0002:00000ca0       ??_C@_0BE@IFNCKGE@network?5unreachable?$AA@ 0000000140003ca0     libcpmt:syserror.obj
 0002:00000cb8       ??_C@_0BA@PFFCAOFK@no?5buffer?5space?$AA@ 0000000140003cb8     libcpmt:syserror.obj
 0002:00000cc8       ??_C@_0BB@IEPBLJHK@no?5child?5process?$AA@ 0000000140003cc8     libcpmt:syserror.obj
 0002:00000ce0       ??_C@_07PLECNNKG@no?5link?$AA@ 0000000140003ce0     libcpmt:syserror.obj
 0002:00000ce8       ??_C@_0BC@NJECKMKE@no?5lock?5available?$AA@ 0000000140003ce8     libcpmt:syserror.obj
 0002:00000d00       ??_C@_0BF@PBGGPKKE@no?5message?5available?$AA@ 0000000140003d00     libcpmt:syserror.obj
 0002:00000d18       ??_C@_0L@EDOLMPAK@no?5message?$AA@ 0000000140003d18     libcpmt:syserror.obj
 0002:00000d28       ??_C@_0BD@EAMBFIDF@no?5protocol?5option?$AA@ 0000000140003d28     libcpmt:syserror.obj
 0002:00000d40       ??_C@_0BD@IJDJKDEA@no?5space?5on?5device?$AA@ 0000000140003d40     libcpmt:syserror.obj
 0002:00000d58       ??_C@_0BE@MKFDAFMP@no?5stream?5resources?$AA@ 0000000140003d58     libcpmt:syserror.obj
 0002:00000d70       ??_C@_0BK@IMCPHCBI@no?5such?5device?5or?5address?$AA@ 0000000140003d70     libcpmt:syserror.obj
 0002:00000d90       ??_C@_0P@FDINDDOK@no?5such?5device?$AA@ 0000000140003d90     libcpmt:syserror.obj
 0002:00000da0       ??_C@_0BK@NDOCBPGE@no?5such?5file?5or?5directory?$AA@ 0000000140003da0     libcpmt:syserror.obj
 0002:00000dc0       ??_C@_0BA@ENLPPKBN@no?5such?5process?$AA@ 0000000140003dc0     libcpmt:syserror.obj
 0002:00000dd0       ??_C@_0BA@DOCPFFJG@not?5a?5directory?$AA@ 0000000140003dd0     libcpmt:syserror.obj
 0002:00000de0       ??_C@_0N@POEIPGGF@not?5a?5socket?$AA@ 0000000140003de0     libcpmt:syserror.obj
 0002:00000df0       ??_C@_0N@LGAPMMPI@not?5a?5stream?$AA@ 0000000140003df0     libcpmt:syserror.obj
 0002:00000e00       ??_C@_0O@GLMIBBEG@not?5connected?$AA@ 0000000140003e00     libcpmt:syserror.obj
 0002:00000e10       ??_C@_0BC@ENOOLCNF@not?5enough?5memory?$AA@ 0000000140003e10     libcpmt:syserror.obj
 0002:00000e28       ??_C@_0O@NHEDABJP@not?5supported?$AA@ 0000000140003e28     libcpmt:syserror.obj
 0002:00000e38       ??_C@_0BD@MOLBPMEA@operation?5canceled?$AA@ 0000000140003e38     libcpmt:syserror.obj
 0002:00000e50       ??_C@_0BG@KDKHOPCO@operation?5in?5progress?$AA@ 0000000140003e50     libcpmt:syserror.obj
 0002:00000e68       ??_C@_0BI@OHIEJAAB@operation?5not?5permitted?$AA@ 0000000140003e68     libcpmt:syserror.obj
 0002:00000e80       ??_C@_0BI@LNEGIFLN@operation?5not?5supported?$AA@ 0000000140003e80     libcpmt:syserror.obj
 0002:00000e98       ??_C@_0BG@OEMDKMEE@operation?5would?5block?$AA@ 0000000140003e98     libcpmt:syserror.obj
 0002:00000eb0       ??_C@_0L@BLPOFLNJ@owner?5dead?$AA@ 0000000140003eb0     libcpmt:syserror.obj
 0002:00000ec0       ??_C@_0BC@CIJDGCDI@permission?5denied?$AA@ 0000000140003ec0     libcpmt:syserror.obj
 0002:00000ed8       ??_C@_0P@FNPOCJBE@protocol?5error?$AA@ 0000000140003ed8     libcpmt:syserror.obj
 0002:00000ee8       ??_C@_0BH@JPPPLHJB@protocol?5not?5supported?$AA@ 0000000140003ee8     libcpmt:syserror.obj
 0002:00000f00       ??_C@_0BG@EICBIHDP@read?5only?5file?5system?$AA@ 0000000140003f00     libcpmt:syserror.obj
 0002:00000f18       ??_C@_0BO@BJBOMOEJ@resource?5deadlock?5would?5occur?$AA@ 0000000140003f18     libcpmt:syserror.obj
 0002:00000f38       ??_C@_0BP@LKNGHENJ@resource?5unavailable?5try?5again?$AA@ 0000000140003f38     libcpmt:syserror.obj
 0002:00000f58       ??_C@_0BE@GOIPJJHG@result?5out?5of?5range?$AA@ 0000000140003f58     libcpmt:syserror.obj
 0002:00000f70       ??_C@_0BG@MPLKFPAE@state?5not?5recoverable?$AA@ 0000000140003f70     libcpmt:syserror.obj
 0002:00000f88       ??_C@_0P@DIIFGFCG@stream?5timeout?$AA@ 0000000140003f88     libcpmt:syserror.obj
 0002:00000f98       ??_C@_0P@IPFDMIFL@text?5file?5busy?$AA@ 0000000140003f98     libcpmt:syserror.obj
 0002:00000fa8       ??_C@_09KJPPMAOI@timed?5out?$AA@ 0000000140003fa8     libcpmt:syserror.obj
 0002:00000fb8       ??_C@_0BO@HACHBEKI@too?5many?5files?5open?5in?5system?$AA@ 0000000140003fb8     libcpmt:syserror.obj
 0002:00000fd8       ??_C@_0BE@GHAFMPAH@too?5many?5files?5open?$AA@ 0000000140003fd8     libcpmt:syserror.obj
 0002:00000ff0       ??_C@_0P@HCOMKFCC@too?5many?5links?$AA@ 0000000140003ff0     libcpmt:syserror.obj
 0002:00001000       ??_C@_0BO@EFGOJEF@too?5many?5symbolic?5link?5levels?$AA@ 0000000140004000     libcpmt:syserror.obj
 0002:00001020       ??_C@_0BA@KGKGOOJA@value?5too?5large?$AA@ 0000000140004020     libcpmt:syserror.obj
 0002:00001030       ??_C@_0BE@MIEJDDNH@wrong?5protocol?5type?$AA@ 0000000140004030     libcpmt:syserror.obj
 0002:00001048       ??_C@_1BK@MGMFAEKH@?$AAk?$AAe?$AAr?$AAn?$AAe?$AAl?$AA3?$AA2?$AA?4?$AAd?$AAl?$AAl?$AA?$AA@ 0000000140004048     libcpmt:winapisupp.obj
 0002:00001068       ??_C@_08KNHFBNJ@FlsAlloc?$AA@ 0000000140004068     libcpmt:winapisupp.obj
 0002:00001078       ??_C@_07PEJMOBNF@FlsFree?$AA@ 0000000140004078     libcpmt:winapisupp.obj
 0002:00001080       ??_C@_0M@GDNOONDI@FlsGetValue?$AA@ 0000000140004080     libcpmt:winapisupp.obj
 0002:00001090       ??_C@_0M@JCPCPOEF@FlsSetValue?$AA@ 0000000140004090     libcpmt:winapisupp.obj
 0002:000010a0       ??_C@_0BM@HCFOFFN@InitializeCriticalSectionEx?$AA@ 00000001400040a0     libcpmt:winapisupp.obj
 0002:000010c0       ??_C@_0BE@GPLMMCMH@InitOnceExecuteOnce?$AA@ 00000001400040c0     libcpmt:winapisupp.obj
 0002:000010d8       ??_C@_0P@DLHPPCNH@CreateEventExW?$AA@ 00000001400040d8     libcpmt:winapisupp.obj
 0002:000010e8       ??_C@_0BB@MEFPJLHN@CreateSemaphoreW?$AA@ 00000001400040e8     libcpmt:winapisupp.obj
 0002:00001100       ??_C@_0BD@KIEEOEEH@CreateSemaphoreExW?$AA@ 0000000140004100     libcpmt:winapisupp.obj
 0002:00001118       ??_C@_0BG@OGFAJCKC@CreateThreadpoolTimer?$AA@ 0000000140004118     libcpmt:winapisupp.obj
 0002:00001130       ??_C@_0BD@LPLEMMDI@SetThreadpoolTimer?$AA@ 0000000140004130     libcpmt:winapisupp.obj
 0002:00001148       ??_C@_0CA@FMNJENH@WaitForThreadpoolTimerCallbacks?$AA@ 0000000140004148     libcpmt:winapisupp.obj
 0002:00001168       ??_C@_0BF@DCFCCNOC@CloseThreadpoolTimer?$AA@ 0000000140004168     libcpmt:winapisupp.obj
 0002:00001180       ??_C@_0BF@FLABGKKM@CreateThreadpoolWait?$AA@ 0000000140004180     libcpmt:winapisupp.obj
 0002:00001198       ??_C@_0BC@MGCOHNA@SetThreadpoolWait?$AA@ 0000000140004198     libcpmt:winapisupp.obj
 0002:000011b0       ??_C@_0BE@OCIOMIMP@CloseThreadpoolWait?$AA@ 00000001400041b0     libcpmt:winapisupp.obj
 0002:000011c8       ??_C@_0BJ@LKGHFHBO@FlushProcessWriteBuffers?$AA@ 00000001400041c8     libcpmt:winapisupp.obj
 0002:000011e8       ??_C@_0BP@KALKKPMO@FreeLibraryWhenCallbackReturns?$AA@ 00000001400041e8     libcpmt:winapisupp.obj
 0002:00001208       ??_C@_0BK@DFNBACLA@GetCurrentProcessorNumber?$AA@ 0000000140004208     libcpmt:winapisupp.obj
 0002:00001228       ??_C@_0BE@FKKLLFLM@CreateSymbolicLinkW?$AA@ 0000000140004228     libcpmt:winapisupp.obj
 0002:00001240       ??_C@_0BE@JOGNEJCI@GetCurrentPackageId?$AA@ 0000000140004240     libcpmt:winapisupp.obj
 0002:00001258       ??_C@_0P@CDHHOHKP@GetTickCount64?$AA@ 0000000140004258     libcpmt:winapisupp.obj
 0002:00001268       ??_C@_0BN@NEEHBBPO@GetFileInformationByHandleEx?$AA@ 0000000140004268     libcpmt:winapisupp.obj
 0002:00001288       ??_C@_0BL@KBBHGKCM@SetFileInformationByHandle?$AA@ 0000000140004288     libcpmt:winapisupp.obj
 0002:000012a8       ??_C@_0BP@FPNJPEJC@GetSystemTimePreciseAsFileTime?$AA@ 00000001400042a8     libcpmt:winapisupp.obj
 0002:000012c8       ??_C@_0BM@HLJJNPAH@InitializeConditionVariable?$AA@ 00000001400042c8     libcpmt:winapisupp.obj
 0002:000012e8       ??_C@_0BG@BFNILBLN@WakeConditionVariable?$AA@ 00000001400042e8     libcpmt:winapisupp.obj
 0002:00001300       ??_C@_0BJ@PGPPEPCC@WakeAllConditionVariable?$AA@ 0000000140004300     libcpmt:winapisupp.obj
 0002:00001320       ??_C@_0BJ@JEBJOJFJ@SleepConditionVariableCS?$AA@ 0000000140004320     libcpmt:winapisupp.obj
 0002:00001340       ??_C@_0BC@MMLHEBPB@InitializeSRWLock?$AA@ 0000000140004340     libcpmt:winapisupp.obj
 0002:00001358       ??_C@_0BI@OMNLIJDB@AcquireSRWLockExclusive?$AA@ 0000000140004358     libcpmt:winapisupp.obj
 0002:00001370       ??_C@_0BL@OGHFEMNA@TryAcquireSRWLockExclusive?$AA@ 0000000140004370     libcpmt:winapisupp.obj
 0002:00001390       ??_C@_0BI@HMIEPCNJ@ReleaseSRWLockExclusive?$AA@ 0000000140004390     libcpmt:winapisupp.obj
 0002:000013a8       ??_C@_0BK@LGACAGIC@SleepConditionVariableSRW?$AA@ 00000001400043a8     libcpmt:winapisupp.obj
 0002:000013c8       ??_C@_0BF@GGPHFPJA@CreateThreadpoolWork?$AA@ 00000001400043c8     libcpmt:winapisupp.obj
 0002:000013e0       ??_C@_0BF@NHDAIMMO@SubmitThreadpoolWork?$AA@ 00000001400043e0     libcpmt:winapisupp.obj
 0002:000013f8       ??_C@_0BE@NPHIPNPD@CloseThreadpoolWork?$AA@ 00000001400043f8     libcpmt:winapisupp.obj
 0002:00001410       ??_C@_0BA@IHGNDAEB@CompareStringEx?$AA@ 0000000140004410     libcpmt:winapisupp.obj
 0002:00001420       ??_C@_0BA@ONOKGCMP@GetLocaleInfoEx?$AA@ 0000000140004420     libcpmt:winapisupp.obj
 0002:00001430       ??_C@_0O@KKBNKAPF@LCMapStringEx?$AA@ 0000000140004430     libcpmt:winapisupp.obj
 0002:00001458       ??_C@_08LHIGDGEJ@Freeable?$AA@ 0000000140004458     libGroundfloor:String.obj
 0002:00001464       ??_C@_06ENNEIMBA@String?$AA@ 0000000140004464     libGroundfloor:String.obj
 0002:00001470       ??_C@_0GJ@MODPPMLB@Groundfloor?3?3String?5Warning?3?5Mem@ 0000000140004470     libGroundfloor:String.obj
 0002:000014e8       ??_7Freeable@Groundfloor@@6B@ 00000001400044e8     libGroundfloor:String.obj
 0002:00001508       ??_7String@Groundfloor@@6B@ 0000000140004508     libGroundfloor:String.obj
 0002:00001520       ??_C@_09NPKOHMNF@?$CFs?$EA?$CF016x?$AA?$AA@ 0000000140004520     libGroundfloor:Freeable.obj
 0002:00001550       _load_config_used          0000000140004550     msvcrt:loadcfg.obj
 0002:00001650       ??_R4type_info@@6B@        0000000140004650     msvcrt:std_type_info_static.obj
 0002:00001678       ??_R3type_info@@8          0000000140004678     msvcrt:std_type_info_static.obj
 0002:00001690       ??_R2type_info@@8          0000000140004690     msvcrt:std_type_info_static.obj
 0002:000016a0       ??_R1A@?0A@EA@type_info@@8 00000001400046a0     msvcrt:std_type_info_static.obj
 0002:000016c8       ??_R2String@Groundfloor@@8 00000001400046c8     libGroundfloor:String.obj
 0002:000016e0       ??_R3Freeable@Groundfloor@@8 00000001400046e0     libGroundfloor:String.obj
 0002:000016f8       ??_R4Freeable@Groundfloor@@6B@ 00000001400046f8     libGroundfloor:String.obj
 0002:00001720       ??_R2Freeable@Groundfloor@@8 0000000140004720     libGroundfloor:String.obj
 0002:00001730       ??_R3String@Groundfloor@@8 0000000140004730     libGroundfloor:String.obj
 0002:00001748       ??_R1A@?0A@EA@Freeable@Groundfloor@@8 0000000140004748     libGroundfloor:String.obj
 0002:00001770       ??_R4String@Groundfloor@@6B@ 0000000140004770     libGroundfloor:String.obj
 0002:00001798       ??_R1A@?0A@EA@String@Groundfloor@@8 0000000140004798     libGroundfloor:String.obj
 0002:00001a38       __rtc_iaa                  0000000140004a38     msvcrt:_initsect_.obj
 0002:00001a40       __rtc_izz                  0000000140004a40     msvcrt:_initsect_.obj
 0002:00001a48       __rtc_taa                  0000000140004a48     msvcrt:_initsect_.obj
 0002:00001a50       __rtc_tzz                  0000000140004a50     msvcrt:_initsect_.obj
 0002:00001bb0       __IMPORT_DESCRIPTOR_KERNEL32 0000000140004bb0     kernel32:KERNEL32.dll
 0002:00001bc4       __IMPORT_DESCRIPTOR_VCRUNTIME140 0000000140004bc4     vcruntime:VCRUNTIME140.dll
 0002:00001bd8       __IMPORT_DESCRIPTOR_api-ms-win-crt-stdio-l1-1-0 0000000140004bd8     ucrt:api-ms-win-crt-stdio-l1-1-0.dll
 0002:00001bec       __IMPORT_DESCRIPTOR_api-ms-win-crt-heap-l1-1-0 0000000140004bec     ucrt:api-ms-win-crt-heap-l1-1-0.dll
 0002:00001c00       __IMPORT_DESCRIPTOR_api-ms-win-crt-runtime-l1-1-0 0000000140004c00     ucrt:api-ms-win-crt-runtime-l1-1-0.dll
 0002:00001c14       __IMPORT_DESCRIPTOR_api-ms-win-crt-math-l1-1-0 0000000140004c14     ucrt:api-ms-win-crt-math-l1-1-0.dll
 0002:00001c28       __IMPORT_DESCRIPTOR_api-ms-win-crt-locale-l1-1-0 0000000140004c28     ucrt:api-ms-win-crt-locale-l1-1-0.dll
 0002:00001c3c       __NULL_IMPORT_DESCRIPTOR   0000000140004c3c     kernel32:KERNEL32.dll
 0003:00000000       __security_cookie          0000000140006000     msvcrt:gs_cookie.obj
 0003:00000008       __security_cookie_complement 0000000140006008     msvcrt:gs_cookie.obj
 0003:00000010       __scrt_native_dllmain_reason 0000000140006010     msvcrt:utility.obj
 0003:00000014       __scrt_default_matherr     0000000140006014     msvcrt:matherr.obj
 0003:00000018       __isa_available            0000000140006018     msvcrt:_cpu_disp_.obj
 0003:0000001c       __isa_enabled              000000014000601c     msvcrt:_cpu_disp_.obj
 0003:00000020       __memcpy_nt_iters          0000000140006020     msvcrt:_cpu_disp_.obj
 0003:00000030       __scrt_ucrt_dll_is_in_use  0000000140006030     msvcrt:ucrt_stubs.obj
 0003:00000038       ??_R0?AVtype_info@@@8      0000000140006038     msvcrt:std_type_info_static.obj
 0003:00000058       ??_R0?AVFreeable@Groundfloor@@@8 0000000140006058     libGroundfloor:String.obj
 0003:00000088       ??_R0?AVString@Groundfloor@@@8 0000000140006088     libGroundfloor:String.obj
 0003:00000630       __scrt_current_native_startup_state 0000000140006630     msvcrt:utility.obj
 0003:00000638       __scrt_native_startup_lock 0000000140006638     msvcrt:utility.obj
 0003:00000680       ?__type_info_root_node@@3U__type_info_node@@A 0000000140006680     msvcrt:tncleanup.obj
 0003:00000690       ?_OptionsStorage@?1??__local_stdio_scanf_options@@9@4_KA 0000000140006690     msvcrt:default_local_stdio_options.obj
 0003:00000698       __scrt_debugger_hook_flag  0000000140006698     msvcrt:utility_desktop.obj
 0003:0000069c       __favor                    000000014000669c     msvcrt:_cpu_disp_.obj
 0003:000006a0       __encodedKERNEL32Functions 00000001400066a0     libcpmt:winapisupp.obj
 0003:000007e0       ?_OptionsStorage@?1??__local_stdio_printf_options@@9@4_KA 00000001400067e0     output.s.obj
 0003:000007e8       __dyn_tls_dtor_callback    00000001400067e8     <common>
 0003:000007f0       __dyn_tls_init_callback    00000001400067f0     <common>

 entry point at        0001:0000076c

 Static symbols

 0002:ffffd000       .idata$6                   0000000140000000     ucrt:api-ms-win-crt-string-l1-1-0.dll
 0002:ffffd000       .idata$6                   0000000140000000     ucrt:api-ms-win-crt-convert-l1-1-0.dll
 0001:000004e0       $$000000                   00000001400014e0     msvcrt:_amdsecgs_.obj
 0001:00000514       ?pre_c_initialization@@YAHXZ 0000000140001514 f   msvcrt:exe_main.obj
 0001:000005c4       ?post_pgo_initialization@@YAHXZ 00000001400015c4 f   msvcrt:exe_main.obj
 0001:000005d4       ?pre_cpp_initialization@@YAXXZ 00000001400015d4 f   msvcrt:exe_main.obj
 0001:000005f0       ?__scrt_common_main_seh@@YAHXZ 00000001400015f0 f   msvcrt:exe_main.obj
 0001:000008bc       capture_previous_context   00000001400018bc f   msvcrt:gs_report.obj
 0001:00001140       ?initialize_pointers@@YAHXZ 0000000140002140 f   libcpmt:winapisupp.obj
 0001:00001740       $$000000                   0000000140002740     msvcrt:_guard_dispatch_.obj
 0001:00001760       ?filt$0@?0??__scrt_common_main_seh@@YAHXZ@4HA 0000000140002760 f   msvcrt:exe_main.obj
 0001:0000177e       __scrt_is_nonwritable_in_current_image$filt$0 000000014000277e f   msvcrt:utility.obj
 0002:000001d0       ?pre_cpp_initializer@@3P6AXXZEA 00000001400031d0     msvcrt:exe_main.obj
 0002:000001e8       ?pre_c_initializer@@3P6AHXZEA 00000001400031e8     msvcrt:exe_main.obj
 0002:000001f0       ?post_pgo_initializer@@3P6AHXZEA 00000001400031f0     msvcrt:exe_main.obj
 0002:000001f8       ?pinit@@3P6AHXZEA          00000001400031f8     libcpmt:winapisupp.obj
 0002:00000240       GS_ExceptionPointers       0000000140003240     msvcrt:gs_report.obj
 0002:00000250       ?_Sys_errtab@std@@3QBU_Sys_errtab_t@1@B 0000000140003250     libcpmt:syserror.obj
 0002:00000730       ?_Win_errtab@std@@3QBU_Win_errtab_t@1@B 0000000140003730     libcpmt:syserror.obj
 0002:00001440       $SG4294967234              0000000140004440     output.s.obj
 0002:00001450       $SG4294967233              0000000140004450     output.s.obj
 0002:00001a58       $unwind$_vfprintf_l        0000000140004a58     output.s.obj
 0002:00001a58       $unwind$printf             0000000140004a58     output.s.obj
 0002:00001a60       $unwind$??0String@Groundfloor@@QEAA@PEBD@Z 0000000140004a60     libGroundfloor:String.obj
 0002:00001a60       $unwind$??_GFreeable@Groundfloor@@UEAAPEAXI@Z 0000000140004a60     libGroundfloor:String.obj
 0002:00001a60       $unwind$?pre_c_initialization@@YAHXZ 0000000140004a60     msvcrt:exe_main.obj
 0002:00001a60       $unwind$__scrt_initialize_crt 0000000140004a60     msvcrt:utility.obj
 0002:00001a60       $unwind$?initialize_pointers@@YAHXZ 0000000140004a60     libcpmt:winapisupp.obj
 0002:00001a60       $unwind$??1String@Groundfloor@@UEAA@XZ 0000000140004a60     libGroundfloor:String.obj
 0002:00001a60       $unwind$__scrt_release_startup_lock 0000000140004a60     msvcrt:utility.obj
 0002:00001a60       $unwind$__raise_securityfailure 0000000140004a60     msvcrt:gs_report.obj
 0002:00001a60       $unwind$__scrt_uninitialize_crt 0000000140004a60     msvcrt:utility.obj
 0002:00001a60       $unwind$??_Gtype_info@@UEAAPEAXI@Z 0000000140004a60     msvcrt:std_type_info_static.obj
 0002:00001a60       $unwind$_onexit            0000000140004a60     msvcrt:utility.obj
 0002:00001a68       $unwind$_RTC_Terminate     0000000140004a68     msvcrt:_initsect_.obj
 0002:00001a68       $unwind$_RTC_Initialize    0000000140004a68     msvcrt:_initsect_.obj
 0002:00001a68       $unwind$?setSize@String@Groundfloor@@QEAA_NI@Z 0000000140004a68     libGroundfloor:String.obj
 0002:00001a68       $unwind$?DebugString@Freeable@Groundfloor@@UEAAHPEADJ@Z 0000000140004a68     libGroundfloor:Freeable.obj
 0002:00001a68       $unwind$??_GString@Groundfloor@@UEAAPEAXI@Z 0000000140004a68     libGroundfloor:String.obj
 0002:00001a74       $unwind$?setValue@String@Groundfloor@@QEAA_NPEBDI@Z 0000000140004a74     libGroundfloor:String.obj
 0002:00001a88       $chain$0$?setValue@String@Groundfloor@@QEAA_NPEBDI@Z 0000000140004a88     libGroundfloor:String.obj
 0002:00001a9c       $chain$1$?setValue@String@Groundfloor@@QEAA_NPEBDI@Z 0000000140004a9c     libGroundfloor:String.obj
 0002:00001aac       $unwind$?append@String@Groundfloor@@QEAA_NPEBDI@Z 0000000140004aac     libGroundfloor:String.obj
 0002:00001ac0       $unwind$sprintf            0000000140004ac0     libGroundfloor:Freeable.obj
 0002:00001ad0       $xdatasym                  0000000140004ad0     msvcrt:_amdsecgs_.obj
 0002:00001ad4       $unwind$?pre_cpp_initialization@@YAXXZ 0000000140004ad4     msvcrt:exe_main.obj
 0002:00001ad4       $unwind$__scrt_is_managed_app 0000000140004ad4     msvcrt:utility_desktop.obj
 0002:00001ad4       $unwind$atexit             0000000140004ad4     msvcrt:utility.obj
 0002:00001ad4       $unwind$__scrt_acquire_startup_lock 0000000140004ad4     msvcrt:utility.obj
 0002:00001ad4       $unwind$mainCRTStartup     0000000140004ad4     msvcrt:exe_main.obj
 0002:00001ad4       $unwind$__scrt_initialize_default_local_stdio_options 0000000140004ad4     msvcrt:default_local_stdio_options.obj
 0002:00001ad4       $unwind$__scrt_unhandled_exception_filter 0000000140004ad4     msvcrt:utility_desktop.obj
 0002:00001ad4       $unwind$?post_pgo_initialization@@YAHXZ 0000000140004ad4     msvcrt:exe_main.obj
 0002:00001adc       $unwind$?__scrt_common_main_seh@@YAHXZ 0000000140004adc     msvcrt:exe_main.obj
 0002:00001b14       $unwind$?filt$0@?0??__scrt_common_main_seh@@YAHXZ@4HA 0000000140004b14     msvcrt:exe_main.obj
 0002:00001b1c       $unwind$__report_gsfailure 0000000140004b1c     msvcrt:gs_report.obj
 0002:00001b24       $unwind$capture_previous_context 0000000140004b24     msvcrt:gs_report.obj
 0002:00001b30       $unwind$__scrt_is_nonwritable_in_current_image 0000000140004b30     msvcrt:utility.obj
 0002:00001b50       $unwind$__scrt_is_nonwritable_in_current_image$filt$0 0000000140004b50     msvcrt:utility.obj
 0002:00001b58       $unwind$__scrt_initialize_onexit_tables 0000000140004b58     msvcrt:utility.obj
 0002:00001b64       $unwind$__security_init_cookie 0000000140004b64     msvcrt:gs_support.obj
 0002:00001b70       $unwind$__scrt_fastfail    0000000140004b70     msvcrt:utility_desktop.obj
 0002:00001b80       $unwind$__isa_available_init 0000000140004b80     msvcrt:_cpu_disp_.obj
 0002:00001b98       $xdatasym                  0000000140004b98     msvcrt:_guard_dispatch_.obj
 0002:00001b9c       $unwind$main               0000000140004b9c     output.s.obj
 0002:00001ba4       $unwind$?square@@YAHH@Z    0000000140004ba4     output.s.obj
 0002:00001f78       .idata$6                   0000000140004f78     kernel32:KERNEL32.dll
 0002:00001fb2       .idata$6                   0000000140004fb2     vcruntime:VCRUNTIME140.dll
 0002:000021d8       .idata$6                   00000001400051d8     ucrt:api-ms-win-crt-stdio-l1-1-0.dll
 0002:000021f8       .idata$6                   00000001400051f8     ucrt:api-ms-win-crt-heap-l1-1-0.dll
 0002:00002218       .idata$6                   0000000140005218     ucrt:api-ms-win-crt-runtime-l1-1-0.dll
 0002:0000223a       .idata$6                   000000014000523a     ucrt:api-ms-win-crt-math-l1-1-0.dll
 0002:0000225a       .idata$6                   000000014000525a     ucrt:api-ms-win-crt-locale-l1-1-0.dll
 0003:000000c0       GS_ExceptionRecord         00000001400060c0     msvcrt:gs_report.obj
 0003:00000160       GS_ContextRecord           0000000140006160     msvcrt:gs_report.obj
 0003:00000634       ?module_local_atexit_table_initialized@@3_NA 0000000140006634     msvcrt:utility.obj
 0003:00000640       ?module_local_atexit_table@@3U_onexit_table_t@@A 0000000140006640     msvcrt:utility.obj
 0003:00000658       ?module_local_at_quick_exit_table@@3U_onexit_table_t@@A 0000000140006658     msvcrt:utility.obj
 0003:00000670       ?is_initialized_as_dll@@3_NA 0000000140006670     msvcrt:utility.obj
 0004:00000000       $pdata$_vfprintf_l         0000000140007000     output.s.obj
 0004:0000000c       $pdata$printf              000000014000700c     output.s.obj
 0004:00000018       $pdata$??_GFreeable@Groundfloor@@UEAAPEAXI@Z 0000000140007018     libGroundfloor:String.obj
 0004:00000024       $pdata$??_GString@Groundfloor@@UEAAPEAXI@Z 0000000140007024     libGroundfloor:String.obj
 0004:00000030       $pdata$??0String@Groundfloor@@QEAA@PEBD@Z 0000000140007030     libGroundfloor:String.obj
 0004:0000003c       $pdata$??1String@Groundfloor@@UEAA@XZ 000000014000703c     libGroundfloor:String.obj
 0004:00000048       $pdata$?setValue@String@Groundfloor@@QEAA_NPEBDI@Z 0000000140007048     libGroundfloor:String.obj
 0004:00000054       $pdata$0$?setValue@String@Groundfloor@@QEAA_NPEBDI@Z 0000000140007054     libGroundfloor:String.obj
 0004:00000060       $pdata$1$?setValue@String@Groundfloor@@QEAA_NPEBDI@Z 0000000140007060     libGroundfloor:String.obj
 0004:0000006c       $pdata$?append@String@Groundfloor@@QEAA_NPEBDI@Z 000000014000706c     libGroundfloor:String.obj
 0004:00000078       $pdata$?setSize@String@Groundfloor@@QEAA_NI@Z 0000000140007078     libGroundfloor:String.obj
 0004:00000084       $pdata$sprintf             0000000140007084     libGroundfloor:Freeable.obj
 0004:00000090       $pdata$?DebugString@Freeable@Groundfloor@@UEAAHPEADJ@Z 0000000140007090     libGroundfloor:Freeable.obj
 0004:000000a8       $pdata$?pre_c_initialization@@YAHXZ 00000001400070a8     msvcrt:exe_main.obj
 0004:000000b4       $pdata$?post_pgo_initialization@@YAHXZ 00000001400070b4     msvcrt:exe_main.obj
 0004:000000c0       $pdata$?pre_cpp_initialization@@YAXXZ 00000001400070c0     msvcrt:exe_main.obj
 0004:000000cc       $pdata$?__scrt_common_main_seh@@YAHXZ 00000001400070cc     msvcrt:exe_main.obj
 0004:000000d8       $pdata$mainCRTStartup      00000001400070d8     msvcrt:exe_main.obj
 0004:000000e4       $pdata$??_Gtype_info@@UEAAPEAXI@Z 00000001400070e4     msvcrt:std_type_info_static.obj
 0004:000000f0       $pdata$__raise_securityfailure 00000001400070f0     msvcrt:gs_report.obj
 0004:000000fc       $pdata$__report_gsfailure  00000001400070fc     msvcrt:gs_report.obj
 0004:00000108       $pdata$capture_previous_context 0000000140007108     msvcrt:gs_report.obj
 0004:00000114       $pdata$__scrt_acquire_startup_lock 0000000140007114     msvcrt:utility.obj
 0004:00000120       $pdata$__scrt_initialize_crt 0000000140007120     msvcrt:utility.obj
 0004:0000012c       $pdata$__scrt_initialize_onexit_tables 000000014000712c     msvcrt:utility.obj
 0004:00000138       $pdata$__scrt_is_nonwritable_in_current_image 0000000140007138     msvcrt:utility.obj
 0004:00000144       $pdata$__scrt_release_startup_lock 0000000140007144     msvcrt:utility.obj
 0004:00000150       $pdata$__scrt_uninitialize_crt 0000000140007150     msvcrt:utility.obj
 0004:0000015c       $pdata$_onexit             000000014000715c     msvcrt:utility.obj
 0004:00000168       $pdata$atexit              0000000140007168     msvcrt:utility.obj
 0004:00000174       $pdata$__security_init_cookie 0000000140007174     msvcrt:gs_support.obj
 0004:00000180       $pdata$__scrt_initialize_default_local_stdio_options 0000000140007180     msvcrt:default_local_stdio_options.obj
 0004:0000018c       $pdata$__scrt_fastfail     000000014000718c     msvcrt:utility_desktop.obj
 0004:00000198       $pdata$__scrt_is_managed_app 0000000140007198     msvcrt:utility_desktop.obj
 0004:000001a4       $pdata$__scrt_unhandled_exception_filter 00000001400071a4     msvcrt:utility_desktop.obj
 0004:000001b0       $pdata$_RTC_Initialize     00000001400071b0     msvcrt:_initsect_.obj
 0004:000001bc       $pdata$_RTC_Terminate      00000001400071bc     msvcrt:_initsect_.obj
 0004:000001c8       $pdata$__isa_available_init 00000001400071c8     msvcrt:_cpu_disp_.obj
 0004:000001d4       $pdata$?initialize_pointers@@YAHXZ 00000001400071d4     libcpmt:winapisupp.obj
 0004:000001e0       $pdata$main                00000001400071e0     output.s.obj
 0004:000001ec       $pdata$?square@@YAHH@Z     00000001400071ec     output.s.obj
 0004:00000204       $pdata$?filt$0@?0??__scrt_common_main_seh@@YAHXZ@4HA 0000000140007204     msvcrt:exe_main.obj
 0004:00000210       $pdata$__scrt_is_nonwritable_in_current_image$filt$0 0000000140007210     msvcrt:utility.obj
