        .file   "example.cpp"
        .text
.Ltext0:
        .section        .text._ZN6NormalD2Ev,"axG",@progbits,_ZN6NormalD5Ev,comdat
        .align 2
        .p2align 4,,15
        .weak   _ZN6NormalD2Ev
        .type   _ZN6NormalD2Ev, @function
_ZN6NormalD2Ev:
.LFB6:
        .file 1 "/tmp/compiler-explorer-compiler118012-54-4arhbo.s5ady/example.cpp"
        .loc 1 8 0
        .cfi_startproc
.LVL0:
.LBB11:
        .loc 1 8 0
        movq    $_ZTV6Normal+16, (%rdi)
        addq    $8, %rdi
.LVL1:
        jmp     _ZN3FooD1Ev
.LVL2:
.LBE11:
        .cfi_endproc
.LFE6:
        .size   _ZN6NormalD2Ev, .-_ZN6NormalD2Ev
        .weak   _ZN6NormalD1Ev
        .set    _ZN6NormalD1Ev,_ZN6NormalD2Ev
        .section        .text._ZN6NormalD0Ev,"axG",@progbits,_ZN6NormalD5Ev,comdat
        .align 2
        .p2align 4,,15
        .weak   _ZN6NormalD0Ev
        .type   _ZN6NormalD0Ev, @function
_ZN6NormalD0Ev:
.LFB8:
        .loc 1 8 0
        .cfi_startproc
.LVL3:
        pushq   %rbx
        .cfi_def_cfa_offset 16
        .cfi_offset 3, -16
        .loc 1 8 0
        movq    %rdi, %rbx
.LBB14:
.LBB15:
        movq    $_ZTV6Normal+16, (%rdi)
        leaq    8(%rdi), %rdi
.LVL4:
        call    _ZN3FooD1Ev
.LVL5:
.LBE15:
.LBE14:
        movq    %rbx, %rdi
        movl    $16, %esi
        popq    %rbx
        .cfi_def_cfa_offset 8
.LVL6:
        jmp     _ZdlPvm
.LVL7:
        .cfi_endproc
.LFE8:
        .size   _ZN6NormalD0Ev, .-_ZN6NormalD0Ev
        .text
        .p2align 4,,15
        .globl  _Z7caller1v
        .type   _Z7caller1v, @function
_Z7caller1v:
.LFB0:
        .loc 1 14 0
        .cfi_startproc
        subq    $24, %rsp
        .cfi_def_cfa_offset 32
.LVL8:
.LBB16:
.LBB17:
        .loc 1 6 0
        leaq    8(%rsp), %rdi
        movq    $_ZTV6Normal+16, (%rsp)
        call    _ZN3FooC1Ev
.LVL9:
.LBE17:
.LBE16:
.LBB18:
.LBB19:
        .loc 1 8 0
        leaq    8(%rsp), %rdi
        movq    $_ZTV6Normal+16, (%rsp)
        call    _ZN3FooD1Ev
.LVL10:
.LBE19:
.LBE18:
        .loc 1 16 0
        addq    $24, %rsp
        .cfi_def_cfa_offset 8
        ret
        .cfi_endproc
.LFE0:
        .size   _Z7caller1v, .-_Z7caller1v
        .p2align 4,,15
        .globl  _Z7caller2P6Normal
        .type   _Z7caller2P6Normal, @function
_Z7caller2P6Normal:
.LFB4:
        .loc 1 18 0
        .cfi_startproc
.LVL11:
        .loc 1 19 0
        testq   %rdi, %rdi
        je      .L7
        .loc 1 19 0 is_stmt 0 discriminator 1
        movq    (%rdi), %rax
        movq    8(%rax), %rax
        cmpq    $_ZN6NormalD0Ev, %rax
        jne     .L9
        .loc 1 18 0 is_stmt 1
        pushq   %rbx
        .cfi_def_cfa_offset 16
        .cfi_offset 3, -16
        movq    %rdi, %rbx
.LVL12:
.LBB24:
.LBB25:
.LBB26:
.LBB27:
        .loc 1 8 0
        movq    $_ZTV6Normal+16, (%rdi)
        leaq    8(%rdi), %rdi
.LVL13:
        call    _ZN3FooD1Ev
.LVL14:
.LBE27:
.LBE26:
        movq    %rbx, %rdi
        movl    $16, %esi
.LBE25:
.LBE24:
        .loc 1 20 0
        popq    %rbx
        .cfi_restore 3
        .cfi_def_cfa_offset 8
.LVL15:
.LBB29:
.LBB28:
        .loc 1 8 0
        jmp     _ZdlPvm
.LVL16:
        .p2align 4,,10
        .p2align 3
.L7:
        rep ret
        .p2align 4,,10
        .p2align 3
.L9:
.LBE28:
.LBE29:
        .loc 1 19 0 discriminator 1
        jmp     *%rax
.LVL17:
        .cfi_endproc
.LFE4:
        .size   _Z7caller2P6Normal, .-_Z7caller2P6Normal
        .weak   _ZTS6Normal
        .section        .rodata._ZTS6Normal,"aG",@progbits,_ZTS6Normal,comdat
        .align 8
        .type   _ZTS6Normal, @object
        .size   _ZTS6Normal, 8
_ZTS6Normal:
        .string "6Normal"
        .weak   _ZTI6Normal
        .section        .rodata._ZTI6Normal,"aG",@progbits,_ZTI6Normal,comdat
        .align 8
        .type   _ZTI6Normal, @object
        .size   _ZTI6Normal, 16
_ZTI6Normal:
        .quad   _ZTVN10__cxxabiv117__class_type_infoE+16
        .quad   _ZTS6Normal
        .weak   _ZTV6Normal
        .section        .rodata._ZTV6Normal,"aG",@progbits,_ZTV6Normal,comdat
        .align 8
        .type   _ZTV6Normal, @object
        .size   _ZTV6Normal, 32
_ZTV6Normal:
        .quad   0
        .quad   _ZTI6Normal
        .quad   _ZN6NormalD1Ev
        .quad   _ZN6NormalD0Ev
        .text
.Letext0:
        .section        .note.GNU-stack,"",@progbits