        .file   "example.cpp"
        .intel_syntax noprefix
        .text
.Ltext0:
        .section        .text._ZNSt9exceptionC2Ev,"axG",@progbits,_ZNSt9exceptionC5Ev,comdat
        .align 2
        .weak   _ZNSt9exceptionC2Ev
        .type   _ZNSt9exceptionC2Ev, @function
_ZNSt9exceptionC2Ev:
.LFB13:
        .file 1 "/opt/compiler-explorer/gcc-8.3.0/include/c++/8.3.0/bits/exception.h"
        .loc 1 63 5
        .cfi_startproc
        push    rbp
        .cfi_def_cfa_offset 16
        .cfi_offset 6, -16
        mov     rbp, rsp
        .cfi_def_cfa_register 6
        mov     QWORD PTR [rbp-8], rdi
.LBB8:
        .loc 1 63 39
        mov     edx, OFFSET FLAT:_ZTVSt9exception+16
        mov     rax, QWORD PTR [rbp-8]
        mov     QWORD PTR [rax], rdx
.LBE8:
        .loc 1 63 41
        nop
        pop     rbp
        .cfi_def_cfa 7, 8
        ret
        .cfi_endproc
.LFE13:
        .size   _ZNSt9exceptionC2Ev, .-_ZNSt9exceptionC2Ev
        .weak   _ZNSt9exceptionC1Ev
        .set    _ZNSt9exceptionC1Ev,_ZNSt9exceptionC2Ev
        .section        .text._ZNSt9bad_allocC2Ev,"axG",@progbits,_ZNSt9bad_allocC5Ev,comdat
        .align 2
        .weak   _ZNSt9bad_allocC2Ev
        .type   _ZNSt9bad_allocC2Ev, @function
_ZNSt9bad_allocC2Ev:
.LFB33:
        .file 2 "/opt/compiler-explorer/gcc-8.3.0/include/c++/8.3.0/new"
        .loc 2 57 5
        .cfi_startproc
        push    rbp
        .cfi_def_cfa_offset 16
        .cfi_offset 6, -16
        mov     rbp, rsp
        .cfi_def_cfa_register 6
        sub     rsp, 16
        mov     QWORD PTR [rbp-8], rdi
.LBB9:
        .loc 2 57 25
        mov     rax, QWORD PTR [rbp-8]
        mov     rdi, rax
        call    _ZNSt9exceptionC2Ev
        mov     edx, OFFSET FLAT:_ZTVSt9bad_alloc+16
        mov     rax, QWORD PTR [rbp-8]
        mov     QWORD PTR [rax], rdx
.LBE9:
        .loc 2 57 27
        nop
        leave
        .cfi_def_cfa 7, 8
        ret
        .cfi_endproc
.LFE33:
        .size   _ZNSt9bad_allocC2Ev, .-_ZNSt9bad_allocC2Ev
        .weak   _ZNSt9bad_allocC1Ev
        .set    _ZNSt9bad_allocC1Ev,_ZNSt9bad_allocC2Ev
        .section        .text._ZNSt11char_traitsIcE6assignERcRKc,"axG",@progbits,_ZNSt11char_traitsIcE6assignERcRKc,comdat
        .weak   _ZNSt11char_traitsIcE6assignERcRKc
        .type   _ZNSt11char_traitsIcE6assignERcRKc, @function
_ZNSt11char_traitsIcE6assignERcRKc:
.LFB396:
        .file 3 "/opt/compiler-explorer/gcc-8.3.0/include/c++/8.3.0/bits/char_traits.h"
        .loc 3 286 7
        .cfi_startproc
        push    rbp
        .cfi_def_cfa_offset 16
        .cfi_offset 6, -16
        mov     rbp, rsp
        .cfi_def_cfa_register 6
        mov     QWORD PTR [rbp-8], rdi
        mov     QWORD PTR [rbp-16], rsi
        .loc 3 287 16
        mov     rax, QWORD PTR [rbp-16]
        movzx   edx, BYTE PTR [rax]
        .loc 3 287 14
        mov     rax, QWORD PTR [rbp-8]
        mov     BYTE PTR [rax], dl
        .loc 3 287 22
        nop
        pop     rbp
        .cfi_def_cfa 7, 8
        ret
        .cfi_endproc
.LFE396:
        .size   _ZNSt11char_traitsIcE6assignERcRKc, .-_ZNSt11char_traitsIcE6assignERcRKc
        .section        .text._ZNSt11char_traitsIcE6lengthEPKc,"axG",@progbits,_ZNSt11char_traitsIcE6lengthEPKc,comdat
        .weak   _ZNSt11char_traitsIcE6lengthEPKc
        .type   _ZNSt11char_traitsIcE6lengthEPKc, @function
_ZNSt11char_traitsIcE6lengthEPKc:
.LFB400:
        .loc 3 316 7
        .cfi_startproc
        push    rbp
        .cfi_def_cfa_offset 16
        .cfi_offset 6, -16
        mov     rbp, rsp
        .cfi_def_cfa_register 6
        sub     rsp, 32
        mov     QWORD PTR [rbp-24], rdi
        mov     rax, QWORD PTR [rbp-24]
        mov     QWORD PTR [rbp-8], rax
.LBB10:
.LBB11:
        .loc 3 235 39
        mov     eax, 0
.LBE11:
.LBE10:
        .loc 3 319 2
        test    al, al
        je      .L6
        .loc 3 320 52
        mov     rax, QWORD PTR [rbp-24]
        mov     rdi, rax
        call    _ZN9__gnu_cxx11char_traitsIcE6lengthEPKc
        .loc 3 320 56
        jmp     .L7
.L6:
        .loc 3 322 25
        mov     rax, QWORD PTR [rbp-24]
        mov     rcx, -1
        mov     rdx, rax
        mov     eax, 0
        mov     rdi, rdx
        repnz scasb
        mov     rax, rcx
        not     rax
        sub     rax, 1
        .loc 3 322 29
        nop
.L7:
        .loc 3 323 7
        leave
        .cfi_def_cfa 7, 8
        ret
        .cfi_endproc
.LFE400:
        .size   _ZNSt11char_traitsIcE6lengthEPKc, .-_ZNSt11char_traitsIcE6lengthEPKc
        .section        .text._ZNSt11char_traitsIcE4copyEPcPKcm,"axG",@progbits,_ZNSt11char_traitsIcE4copyEPcPKcm,comdat
        .weak   _ZNSt11char_traitsIcE4copyEPcPKcm
        .type   _ZNSt11char_traitsIcE4copyEPcPKcm, @function
_ZNSt11char_traitsIcE4copyEPcPKcm:
.LFB404:
        .loc 3 348 7
        .cfi_startproc
        push    rbp
        .cfi_def_cfa_offset 16
        .cfi_offset 6, -16
        mov     rbp, rsp
        .cfi_def_cfa_register 6
        sub     rsp, 32
        mov     QWORD PTR [rbp-8], rdi
        mov     QWORD PTR [rbp-16], rsi
        mov     QWORD PTR [rbp-24], rdx
        .loc 3 350 2
        cmp     QWORD PTR [rbp-24], 0
        jne     .L9
        .loc 3 351 11
        mov     rax, QWORD PTR [rbp-8]
        jmp     .L10
.L9:
        .loc 3 352 49
        mov     rdx, QWORD PTR [rbp-8]
        mov     rax, QWORD PTR [rbp-16]
        mov     rcx, rdx
        mov     rsi, rax
        mov     rax, QWORD PTR [rbp-24]
        mov     rdx, rax
        mov     rdi, rcx
        call    memcpy
        .loc 3 352 66
        nop
.L10:
        .loc 3 353 7
        leave
        .cfi_def_cfa 7, 8
        ret
        .cfi_endproc
.LFE404:
        .size   _ZNSt11char_traitsIcE4copyEPcPKcm, .-_ZNSt11char_traitsIcE4copyEPcPKcm
        .section        .text._ZStorSt13_Ios_OpenmodeS_,"axG",@progbits,_ZStorSt13_Ios_OpenmodeS_,comdat
        .weak   _ZStorSt13_Ios_OpenmodeS_
        .type   _ZStorSt13_Ios_OpenmodeS_, @function
_ZStorSt13_Ios_OpenmodeS_:
.LFB1417:
        .file 4 "/opt/compiler-explorer/gcc-8.3.0/include/c++/8.3.0/bits/ios_base.h"
        .loc 4 130 3
        .cfi_startproc
        push    rbp
        .cfi_def_cfa_offset 16
        .cfi_offset 6, -16
        mov     rbp, rsp
        .cfi_def_cfa_register 6
        mov     DWORD PTR [rbp-4], edi
        mov     DWORD PTR [rbp-8], esi
        .loc 4 130 71
        mov     eax, DWORD PTR [rbp-4]
        or      eax, DWORD PTR [rbp-8]
        .loc 4 130 74
        pop     rbp
        .cfi_def_cfa 7, 8
        ret
        .cfi_endproc
.LFE1417:
        .size   _ZStorSt13_Ios_OpenmodeS_, .-_ZStorSt13_Ios_OpenmodeS_
        .section        .text._ZNSt8ios_base9precisionEl,"axG",@progbits,_ZNSt8ios_base9precisionEl,comdat
        .align 2
        .weak   _ZNSt8ios_base9precisionEl
        .type   _ZNSt8ios_base9precisionEl, @function
_ZNSt8ios_base9precisionEl:
.LFB1446:
        .loc 4 700 5
        .cfi_startproc
        push    rbp
        .cfi_def_cfa_offset 16
        .cfi_offset 6, -16
        mov     rbp, rsp
        .cfi_def_cfa_register 6
        mov     QWORD PTR [rbp-24], rdi
        mov     QWORD PTR [rbp-32], rsi
        .loc 4 702 18
        mov     rax, QWORD PTR [rbp-24]
        mov     rax, QWORD PTR [rax+8]
        mov     QWORD PTR [rbp-8], rax
        .loc 4 703 20
        mov     rax, QWORD PTR [rbp-24]
        mov     rdx, QWORD PTR [rbp-32]
        mov     QWORD PTR [rax+8], rdx
        .loc 4 704 14
        mov     rax, QWORD PTR [rbp-8]
        .loc 4 705 5
        pop     rbp
        .cfi_def_cfa 7, 8
        ret
        .cfi_endproc
.LFE1446:
        .size   _ZNSt8ios_base9precisionEl, .-_ZNSt8ios_base9precisionEl
        .section        .text._ZNSt8ios_base5widthEl,"axG",@progbits,_ZNSt8ios_base5widthEl,comdat
        .align 2
        .weak   _ZNSt8ios_base5widthEl
        .type   _ZNSt8ios_base5widthEl, @function
_ZNSt8ios_base5widthEl:
.LFB1448:
        .loc 4 723 5
        .cfi_startproc
        push    rbp
        .cfi_def_cfa_offset 16
        .cfi_offset 6, -16
        mov     rbp, rsp
        .cfi_def_cfa_register 6
        mov     QWORD PTR [rbp-24], rdi
        mov     QWORD PTR [rbp-32], rsi
        .loc 4 725 18
        mov     rax, QWORD PTR [rbp-24]
        mov     rax, QWORD PTR [rax+16]
        mov     QWORD PTR [rbp-8], rax
        .loc 4 726 16
        mov     rax, QWORD PTR [rbp-24]
        mov     rdx, QWORD PTR [rbp-32]
        mov     QWORD PTR [rax+16], rdx
        .loc 4 727 14
        mov     rax, QWORD PTR [rbp-8]
        .loc 4 728 5
        pop     rbp
        .cfi_def_cfa 7, 8
        ret
        .cfi_endproc
.LFE1448:
        .size   _ZNSt8ios_base5widthEl, .-_ZNSt8ios_base5widthEl
        .local  _ZStL8__ioinit
        .comm   _ZStL8__ioinit,1,1
        .section        .rodata
        .align 4
        .type   _ZN5EigenL7DynamicE, @object
        .size   _ZN5EigenL7DynamicE, 4
_ZN5EigenL7DynamicE:
        .long   -1
        .align 4
        .type   _ZN5EigenL12DynamicIndexE, @object
        .size   _ZN5EigenL12DynamicIndexE, 4
_ZN5EigenL12DynamicIndexE:
        .long   16777215
        .align 4
        .type   _ZN5EigenL8InfinityE, @object
        .size   _ZN5EigenL8InfinityE, 4
_ZN5EigenL8InfinityE:
        .long   -1
        .align 4
        .type   _ZN5EigenL8HugeCostE, @object
        .size   _ZN5EigenL8HugeCostE, 4
_ZN5EigenL8HugeCostE:
        .long   10000
        .align 4
        .type   _ZN5EigenL11RowMajorBitE, @object
        .size   _ZN5EigenL11RowMajorBitE, 4
_ZN5EigenL11RowMajorBitE:
        .long   1
        .align 4
        .type   _ZN5EigenL20EvalBeforeNestingBitE, @object
        .size   _ZN5EigenL20EvalBeforeNestingBitE, 4
_ZN5EigenL20EvalBeforeNestingBitE:
        .long   2
        .align 4
        .type   _ZN5EigenL22EvalBeforeAssigningBitE, @object
        .size   _ZN5EigenL22EvalBeforeAssigningBitE, 4
_ZN5EigenL22EvalBeforeAssigningBitE:
        .long   4
        .align 4
        .type   _ZN5EigenL15PacketAccessBitE, @object
        .size   _ZN5EigenL15PacketAccessBitE, 4
_ZN5EigenL15PacketAccessBitE:
        .long   8
        .align 4
        .type   _ZN5EigenL21ActualPacketAccessBitE, @object
        .size   _ZN5EigenL21ActualPacketAccessBitE, 4
_ZN5EigenL21ActualPacketAccessBitE:
        .long   8
        .align 4
        .type   _ZN5EigenL15LinearAccessBitE, @object
        .size   _ZN5EigenL15LinearAccessBitE, 4
_ZN5EigenL15LinearAccessBitE:
        .long   16
        .align 4
        .type   _ZN5EigenL9LvalueBitE, @object
        .size   _ZN5EigenL9LvalueBitE, 4
_ZN5EigenL9LvalueBitE:
        .long   32
        .align 4
        .type   _ZN5EigenL15DirectAccessBitE, @object
        .size   _ZN5EigenL15DirectAccessBitE, 4
_ZN5EigenL15DirectAccessBitE:
        .long   64
        .align 4
        .type   _ZN5EigenL10AlignedBitE, @object
        .size   _ZN5EigenL10AlignedBitE, 4
_ZN5EigenL10AlignedBitE:
        .long   128
        .align 4
        .type   _ZN5EigenL12NestByRefBitE, @object
        .size   _ZN5EigenL12NestByRefBitE, 4
_ZN5EigenL12NestByRefBitE:
        .long   256
        .align 4
        .type   _ZN5EigenL26NoPreferredStorageOrderBitE, @object
        .size   _ZN5EigenL26NoPreferredStorageOrderBitE, 4
_ZN5EigenL26NoPreferredStorageOrderBitE:
        .long   512
        .align 4
        .type   _ZN5EigenL19CompressedAccessBitE, @object
        .size   _ZN5EigenL19CompressedAccessBitE, 4
_ZN5EigenL19CompressedAccessBitE:
        .long   1024
        .align 4
        .type   _ZN5EigenL14HereditaryBitsE, @object
        .size   _ZN5EigenL14HereditaryBitsE, 4
_ZN5EigenL14HereditaryBitsE:
        .long   3
        .section        .text._ZN5Eigen8internal11noncopyableC2Ev,"axG",@progbits,_ZN5Eigen8internal11noncopyableC5Ev,comdat
        .align 2
        .weak   _ZN5Eigen8internal11noncopyableC2Ev
        .type   _ZN5Eigen8internal11noncopyableC2Ev, @function
_ZN5Eigen8internal11noncopyableC2Ev:
.LFB4630:
        .file 5 "/opt/compiler-explorer/libs/eigen/v3.3.4/Eigen/src/Core/util/Meta.h"
        .loc 5 277 21
        .cfi_startproc
        push    rbp
        .cfi_def_cfa_offset 16
        .cfi_offset 6, -16
        mov     rbp, rsp
        .cfi_def_cfa_register 6
        mov     QWORD PTR [rbp-8], rdi
        .loc 5 277 36
        nop
        pop     rbp
        .cfi_def_cfa 7, 8
        ret
        .cfi_endproc
.LFE4630:
        .size   _ZN5Eigen8internal11noncopyableC2Ev, .-_ZN5Eigen8internal11noncopyableC2Ev
        .weak   _ZN5Eigen8internal11noncopyableC1Ev
        .set    _ZN5Eigen8internal11noncopyableC1Ev,_ZN5Eigen8internal11noncopyableC2Ev
        .section        .text._ZN5Eigen8internal11noncopyableD2Ev,"axG",@progbits,_ZN5Eigen8internal11noncopyableD5Ev,comdat
        .align 2
        .weak   _ZN5Eigen8internal11noncopyableD2Ev
        .type   _ZN5Eigen8internal11noncopyableD2Ev, @function
_ZN5Eigen8internal11noncopyableD2Ev:
.LFB4633:
        .loc 5 278 21
        .cfi_startproc
        push    rbp
        .cfi_def_cfa_offset 16
        .cfi_offset 6, -16
        mov     rbp, rsp
        .cfi_def_cfa_register 6
        mov     QWORD PTR [rbp-8], rdi
        .loc 5 278 37
        nop
        pop     rbp
        .cfi_def_cfa 7, 8
        ret
        .cfi_endproc
.LFE4633:
        .size   _ZN5Eigen8internal11noncopyableD2Ev, .-_ZN5Eigen8internal11noncopyableD2Ev
        .weak   _ZN5Eigen8internal11noncopyableD1Ev
        .set    _ZN5Eigen8internal11noncopyableD1Ev,_ZN5Eigen8internal11noncopyableD2Ev
        .section        .text._ZN5Eigen8internal19throw_std_bad_allocEv,"axG",@progbits,_ZN5Eigen8internal19throw_std_bad_allocEv,comdat
        .weak   _ZN5Eigen8internal19throw_std_bad_allocEv
        .type   _ZN5Eigen8internal19throw_std_bad_allocEv, @function
_ZN5Eigen8internal19throw_std_bad_allocEv:
.LFB4659:
        .file 6 "/opt/compiler-explorer/libs/eigen/v3.3.4/Eigen/src/Core/util/Memory.h"
        .loc 6 68 1
        .cfi_startproc
        push    rbp
        .cfi_def_cfa_offset 16
        .cfi_offset 6, -16
        mov     rbp, rsp
        .cfi_def_cfa_register 6
        push    rbx
        sub     rsp, 8
        .cfi_offset 3, -24
        .loc 6 70 26
        mov     edi, 8
        call    __cxa_allocate_exception
        mov     rbx, rax
        mov     rdi, rbx
        call    _ZNSt9bad_allocC1Ev
        mov     edx, OFFSET FLAT:_ZNSt9bad_allocD1Ev
        mov     esi, OFFSET FLAT:_ZTISt9bad_alloc
        mov     rdi, rbx
        call    __cxa_throw
        .cfi_endproc
.LFE4659:
        .size   _ZN5Eigen8internal19throw_std_bad_allocEv, .-_ZN5Eigen8internal19throw_std_bad_allocEv
        .section        .text._ZN5Eigen8internal28check_that_malloc_is_allowedEv,"axG",@progbits,_ZN5Eigen8internal28check_that_malloc_is_allowedEv,comdat
        .weak   _ZN5Eigen8internal28check_that_malloc_is_allowedEv
        .type   _ZN5Eigen8internal28check_that_malloc_is_allowedEv, @function
_ZN5Eigen8internal28check_that_malloc_is_allowedEv:
.LFB4663:
        .loc 6 147 1
        .cfi_startproc
        push    rbp
        .cfi_def_cfa_offset 16
        .cfi_offset 6, -16
        mov     rbp, rsp
        .cfi_def_cfa_register 6
        .loc 6 147 2
        nop
        pop     rbp
        .cfi_def_cfa 7, 8
        ret
        .cfi_endproc
.LFE4663:
        .size   _ZN5Eigen8internal28check_that_malloc_is_allowedEv, .-_ZN5Eigen8internal28check_that_malloc_is_allowedEv
        .section        .rodata
        .align 8
.LC0:
        .string "/opt/compiler-explorer/libs/eigen/v3.3.4/Eigen/src/Core/util/Memory.h"
        .align 8
.LC1:
        .string "(size<16 || (std::size_t(result)%16)==0) && \"System's malloc returned an unaligned pointer. Compile with EIGEN_MALLOC_ALREADY_ALIGNED=0 to fallback to handmade alignd memory allocator.\""
        .section        .text._ZN5Eigen8internal14aligned_mallocEm,"axG",@progbits,_ZN5Eigen8internal14aligned_mallocEm,comdat
        .weak   _ZN5Eigen8internal14aligned_mallocEm
        .type   _ZN5Eigen8internal14aligned_mallocEm, @function
_ZN5Eigen8internal14aligned_mallocEm:
.LFB4664:
        .loc 6 154 1
        .cfi_startproc
        push    rbp
        .cfi_def_cfa_offset 16
        .cfi_offset 6, -16
        mov     rbp, rsp
        .cfi_def_cfa_register 6
        sub     rsp, 32
        mov     QWORD PTR [rbp-24], rdi
        .loc 6 155 31
        call    _ZN5Eigen8internal28check_that_malloc_is_allowedEv
        .loc 6 159 25
        mov     rax, QWORD PTR [rbp-24]
        mov     rdi, rax
        call    malloc
        mov     QWORD PTR [rbp-8], rax
        .loc 6 161 5
        cmp     QWORD PTR [rbp-24], 15
        jbe     .L22
        .loc 6 161 5 is_stmt 0 discriminator 1
        mov     rax, QWORD PTR [rbp-8]
        and     eax, 15
        test    rax, rax
        je      .L22
        .loc 6 161 5 discriminator 2
        mov     ecx, OFFSET FLAT:_ZZN5Eigen8internal14aligned_mallocEmE19__PRETTY_FUNCTION__
        mov     edx, 161
        mov     esi, OFFSET FLAT:.LC0
        mov     edi, OFFSET FLAT:.LC1
        call    __assert_fail
.L22:
        .loc 6 167 3 is_stmt 1
        cmp     QWORD PTR [rbp-8], 0
        jne     .L23
        .loc 6 167 14 discriminator 1
        cmp     QWORD PTR [rbp-24], 0
        je      .L23
        .loc 6 168 24
        call    _ZN5Eigen8internal19throw_std_bad_allocEv
.L23:
        .loc 6 170 10
        mov     rax, QWORD PTR [rbp-8]
        .loc 6 171 1
        leave
        .cfi_def_cfa 7, 8
        ret
        .cfi_endproc
.LFE4664:
        .size   _ZN5Eigen8internal14aligned_mallocEm, .-_ZN5Eigen8internal14aligned_mallocEm
        .section        .text._ZN5Eigen8internal12aligned_freeEPv,"axG",@progbits,_ZN5Eigen8internal12aligned_freeEPv,comdat
        .weak   _ZN5Eigen8internal12aligned_freeEPv
        .type   _ZN5Eigen8internal12aligned_freeEPv, @function
_ZN5Eigen8internal12aligned_freeEPv:
.LFB4665:
        .loc 6 175 1
        .cfi_startproc
        push    rbp
        .cfi_def_cfa_offset 16
        .cfi_offset 6, -16
        mov     rbp, rsp
        .cfi_def_cfa_register 6
        sub     rsp, 16
        mov     QWORD PTR [rbp-8], rdi
        .loc 6 177 14
        mov     rax, QWORD PTR [rbp-8]
        mov     rdi, rax
        call    free
        .loc 6 181 1
        nop
        leave
        .cfi_def_cfa 7, 8
        ret
        .cfi_endproc
.LFE4665:
        .size   _ZN5Eigen8internal12aligned_freeEPv, .-_ZN5Eigen8internal12aligned_freeEPv
        .section        .rodata
.LC2:
        .string ""
        .section        .text._ZN5Eigen8IOFormatC2EiiRKNSt7__cxx1112basic_stringIcSt11char_traitsIcESaIcEEES8_S8_S8_S8_S8_,"axG",@progbits,_ZN5Eigen8IOFormatC5EiiRKNSt7__cxx1112basic_stringIcSt11char_traitsIcESaIcEEES8_S8_S8_S8_S8_,comdat
        .align 2
        .weak   _ZN5Eigen8IOFormatC2EiiRKNSt7__cxx1112basic_stringIcSt11char_traitsIcESaIcEEES8_S8_S8_S8_S8_
        .type   _ZN5Eigen8IOFormatC2EiiRKNSt7__cxx1112basic_stringIcSt11char_traitsIcESaIcEEES8_S8_S8_S8_S8_, @function
_ZN5Eigen8IOFormatC2EiiRKNSt7__cxx1112basic_stringIcSt11char_traitsIcESaIcEEES8_S8_S8_S8_S8_:
.LFB5522:
        .file 7 "/opt/compiler-explorer/libs/eigen/v3.3.4/Eigen/src/Core/IO.h"
        .loc 7 53 3
        .cfi_startproc
        .cfi_personality 0x3,__gxx_personality_v0
        .cfi_lsda 0x3,.LLSDA5522
        push    rbp
        .cfi_def_cfa_offset 16
        .cfi_offset 6, -16
        mov     rbp, rsp
        .cfi_def_cfa_register 6
        push    rbx
        sub     rsp, 72
        .cfi_offset 3, -24
        mov     QWORD PTR [rbp-40], rdi
        mov     DWORD PTR [rbp-44], esi
        mov     DWORD PTR [rbp-48], edx
        mov     QWORD PTR [rbp-56], rcx
        mov     QWORD PTR [rbp-64], r8
        mov     QWORD PTR [rbp-72], r9
.LBB12:
        .loc 7 58 88
        mov     rax, QWORD PTR [rbp-40]
        mov     rdx, QWORD PTR [rbp+24]
        mov     rsi, rdx
        mov     rdi, rax
.LEHB0:
        call    _ZNSt7__cxx1112basic_stringIcSt11char_traitsIcESaIcEEC1ERKS4_
.LEHE0:
        mov     rax, QWORD PTR [rbp-40]
        lea     rdx, [rax+32]
        mov     rax, QWORD PTR [rbp+32]
        mov     rsi, rax
        mov     rdi, rdx
.LEHB1:
        call    _ZNSt7__cxx1112basic_stringIcSt11char_traitsIcESaIcEEC1ERKS4_
.LEHE1:
        .loc 7 58 88 is_stmt 0 discriminator 2
        mov     rax, QWORD PTR [rbp-40]
        lea     rdx, [rax+64]
        mov     rax, QWORD PTR [rbp-72]
        mov     rsi, rax
        mov     rdi, rdx
.LEHB2:
        call    _ZNSt7__cxx1112basic_stringIcSt11char_traitsIcESaIcEEC1ERKS4_
.LEHE2:
        .loc 7 58 88 discriminator 4
        mov     rax, QWORD PTR [rbp-40]
        add     rax, 96
        mov     rsi, QWORD PTR [rbp+16]
        mov     rdi, rax
.LEHB3:
        call    _ZNSt7__cxx1112basic_stringIcSt11char_traitsIcESaIcEEC1ERKS4_
.LEHE3:
        .loc 7 58 88 discriminator 6
        mov     rax, QWORD PTR [rbp-40]
        lea     rdx, [rax+128]
        mov     rax, QWORD PTR [rbp-64]
        mov     rsi, rax
        mov     rdi, rdx
.LEHB4:
        call    _ZNSt7__cxx1112basic_stringIcSt11char_traitsIcESaIcEEC1ERKS4_
.LEHE4:
        .loc 7 58 88 discriminator 8
        mov     rax, QWORD PTR [rbp-40]
        lea     rbx, [rax+160]
        lea     rax, [rbp-21]
        mov     rdi, rax
        call    _ZNSaIcEC1Ev
        lea     rax, [rbp-21]
        mov     rdx, rax
        mov     esi, OFFSET FLAT:.LC2
        mov     rdi, rbx
.LEHB5:
        call    _ZNSt7__cxx1112basic_stringIcSt11char_traitsIcESaIcEEC1IS3_EEPKcRKS3_
.LEHE5:
        .loc 7 58 88 discriminator 10
        lea     rax, [rbp-21]
        mov     rdi, rax
        call    _ZNSaIcED1Ev
        mov     rax, QWORD PTR [rbp-40]
        lea     rdx, [rax+192]
        mov     rax, QWORD PTR [rbp-56]
        mov     rsi, rax
        mov     rdi, rdx
.LEHB6:
        call    _ZNSt7__cxx1112basic_stringIcSt11char_traitsIcESaIcEEC1ERKS4_
.LEHE6:
        .loc 7 58 88 discriminator 12
        mov     rax, QWORD PTR [rbp-40]
        mov     edx, DWORD PTR [rbp-44]
        mov     DWORD PTR [rax+224], edx
        mov     rax, QWORD PTR [rbp-40]
        mov     edx, DWORD PTR [rbp-48]
        mov     DWORD PTR [rax+228], edx
.LBB13:
        .loc 7 62 9 is_stmt 1 discriminator 12
        mov     rax, QWORD PTR [rbp-40]
        mov     eax, DWORD PTR [rax+228]
        .loc 7 62 15 discriminator 12
        and     eax, 1
        .loc 7 62 5 discriminator 12
        test    eax, eax
        jne     .L47
        .loc 7 64 33
        mov     rax, QWORD PTR [rbp-40]
        add     rax, 32
        mov     rdi, rax
        call    _ZNKSt7__cxx1112basic_stringIcSt11char_traitsIcESaIcEE6lengthEv
        .loc 7 64 37
        sub     eax, 1
        mov     DWORD PTR [rbp-20], eax
.L31:
        .loc 7 65 17
        cmp     DWORD PTR [rbp-20], 0
        js      .L29
        .loc 7 65 31 discriminator 1
        mov     rax, QWORD PTR [rbp-40]
        lea     rdx, [rax+32]
        mov     eax, DWORD PTR [rbp-20]
        cdqe
        mov     rsi, rax
        mov     rdi, rdx
.LEHB7:
        call    _ZNSt7__cxx1112basic_stringIcSt11char_traitsIcESaIcEEixEm
        .loc 7 65 32 discriminator 1
        movzx   eax, BYTE PTR [rax]
        .loc 7 65 17 discriminator 1
        cmp     al, 10
        je      .L29
        .loc 7 65 17 is_stmt 0 discriminator 4
        mov     eax, 1
        jmp     .L30
.L29:
        .loc 7 65 17 discriminator 5
        mov     eax, 0
.L30:
        .loc 7 65 17 discriminator 7
        test    al, al
        je      .L26
        .loc 7 67 20 is_stmt 1
        mov     rax, QWORD PTR [rbp-40]
        add     rax, 160
        mov     esi, 32
        mov     rdi, rax
        call    _ZNSt7__cxx1112basic_stringIcSt11char_traitsIcESaIcEEpLEc
.LEHE7:
        .loc 7 68 8
        sub     DWORD PTR [rbp-20], 1
        .loc 7 65 5
        jmp     .L31
.L44:
        mov     rbx, rax
.LBE13:
        .loc 7 58 88
        lea     rax, [rbp-21]
        mov     rdi, rax
        call    _ZNSaIcED1Ev
        jmp     .L33
.L46:
        mov     rbx, rax
        mov     rax, QWORD PTR [rbp-40]
        add     rax, 192
        mov     rdi, rax
        call    _ZNSt7__cxx1112basic_stringIcSt11char_traitsIcESaIcEED1Ev
        jmp     .L35
.L45:
        mov     rbx, rax
.L35:
        .loc 7 58 88 is_stmt 0 discriminator 11
        mov     rax, QWORD PTR [rbp-40]
        add     rax, 160
        mov     rdi, rax
        call    _ZNSt7__cxx1112basic_stringIcSt11char_traitsIcESaIcEED1Ev
.L33:
        .loc 7 58 88
        mov     rax, QWORD PTR [rbp-40]
        sub     rax, -128
        mov     rdi, rax
        call    _ZNSt7__cxx1112basic_stringIcSt11char_traitsIcESaIcEED1Ev
        jmp     .L36
.L43:
        mov     rbx, rax
.L36:
        .loc 7 58 88 discriminator 7
        mov     rax, QWORD PTR [rbp-40]
        add     rax, 96
        mov     rdi, rax
        call    _ZNSt7__cxx1112basic_stringIcSt11char_traitsIcESaIcEED1Ev
        jmp     .L37
.L42:
        mov     rbx, rax
.L37:
        .loc 7 58 88 discriminator 5
        mov     rax, QWORD PTR [rbp-40]
        add     rax, 64
        mov     rdi, rax
        call    _ZNSt7__cxx1112basic_stringIcSt11char_traitsIcESaIcEED1Ev
        jmp     .L38
.L41:
        mov     rbx, rax
.L38:
        .loc 7 58 88 discriminator 3
        mov     rax, QWORD PTR [rbp-40]
        add     rax, 32
        mov     rdi, rax
        call    _ZNSt7__cxx1112basic_stringIcSt11char_traitsIcESaIcEED1Ev
        jmp     .L39
.L40:
        mov     rbx, rax
.L39:
        .loc 7 58 88 discriminator 1
        mov     rax, QWORD PTR [rbp-40]
        mov     rdi, rax
        call    _ZNSt7__cxx1112basic_stringIcSt11char_traitsIcESaIcEED1Ev
        mov     rax, rbx
        mov     rdi, rax
.LEHB8:
        call    _Unwind_Resume
.LEHE8:
.L47:
.LBB14:
        .loc 7 63 7 is_stmt 1
        nop
.L26:
.LBE14:
.LBE12:
        .loc 7 70 3
        add     rsp, 72
        pop     rbx
        pop     rbp
        .cfi_def_cfa 7, 8
        ret
        .cfi_endproc
.LFE5522:
        .globl  __gxx_personality_v0
        .section        .gcc_except_table._ZN5Eigen8IOFormatC2EiiRKNSt7__cxx1112basic_stringIcSt11char_traitsIcESaIcEEES8_S8_S8_S8_S8_,"aG",@progbits,_ZN5Eigen8IOFormatC5EiiRKNSt7__cxx1112basic_stringIcSt11char_traitsIcESaIcEEES8_S8_S8_S8_S8_,comdat
.LLSDA5522:
        .byte   0xff
        .byte   0xff
        .byte   0x1
        .uleb128 .LLSDACSE5522-.LLSDACSB5522
.LLSDACSB5522:
        .uleb128 .LEHB0-.LFB5522
        .uleb128 .LEHE0-.LEHB0
        .uleb128 0
        .uleb128 0
        .uleb128 .LEHB1-.LFB5522
        .uleb128 .LEHE1-.LEHB1
        .uleb128 .L40-.LFB5522
        .uleb128 0
        .uleb128 .LEHB2-.LFB5522
        .uleb128 .LEHE2-.LEHB2
        .uleb128 .L41-.LFB5522
        .uleb128 0
        .uleb128 .LEHB3-.LFB5522
        .uleb128 .LEHE3-.LEHB3
        .uleb128 .L42-.LFB5522
        .uleb128 0
        .uleb128 .LEHB4-.LFB5522
        .uleb128 .LEHE4-.LEHB4
        .uleb128 .L43-.LFB5522
        .uleb128 0
        .uleb128 .LEHB5-.LFB5522
        .uleb128 .LEHE5-.LEHB5
        .uleb128 .L44-.LFB5522
        .uleb128 0
        .uleb128 .LEHB6-.LFB5522
        .uleb128 .LEHE6-.LEHB6
        .uleb128 .L45-.LFB5522
        .uleb128 0
        .uleb128 .LEHB7-.LFB5522
        .uleb128 .LEHE7-.LEHB7
        .uleb128 .L46-.LFB5522
        .uleb128 0
        .uleb128 .LEHB8-.LFB5522
        .uleb128 .LEHE8-.LEHB8
        .uleb128 0
        .uleb128 0
.LLSDACSE5522:
        .section        .text._ZN5Eigen8IOFormatC2EiiRKNSt7__cxx1112basic_stringIcSt11char_traitsIcESaIcEEES8_S8_S8_S8_S8_,"axG",@progbits,_ZN5Eigen8IOFormatC5EiiRKNSt7__cxx1112basic_stringIcSt11char_traitsIcESaIcEEES8_S8_S8_S8_S8_,comdat
        .size   _ZN5Eigen8IOFormatC2EiiRKNSt7__cxx1112basic_stringIcSt11char_traitsIcESaIcEEES8_S8_S8_S8_S8_, .-_ZN5Eigen8IOFormatC2EiiRKNSt7__cxx1112basic_stringIcSt11char_traitsIcESaIcEEES8_S8_S8_S8_S8_
        .weak   _ZN5Eigen8IOFormatC1EiiRKNSt7__cxx1112basic_stringIcSt11char_traitsIcESaIcEEES8_S8_S8_S8_S8_
        .set    _ZN5Eigen8IOFormatC1EiiRKNSt7__cxx1112basic_stringIcSt11char_traitsIcESaIcEEES8_S8_S8_S8_S8_,_ZN5Eigen8IOFormatC2EiiRKNSt7__cxx1112basic_stringIcSt11char_traitsIcESaIcEEES8_S8_S8_S8_S8_
        .section        .rodata
        .align 8
        .type   _ZN5Eigen8internalL18defaultL1CacheSizeE, @object
        .size   _ZN5Eigen8internalL18defaultL1CacheSizeE, 8
_ZN5Eigen8internalL18defaultL1CacheSizeE:
        .quad   32768
        .align 8
        .type   _ZN5Eigen8internalL18defaultL2CacheSizeE, @object
        .size   _ZN5Eigen8internalL18defaultL2CacheSizeE, 8
_ZN5Eigen8internalL18defaultL2CacheSizeE:
        .quad   262144
        .align 8
        .type   _ZN5Eigen8internalL18defaultL3CacheSizeE, @object
        .size   _ZN5Eigen8internalL18defaultL3CacheSizeE, 8
_ZN5Eigen8internalL18defaultL3CacheSizeE:
        .quad   2097152
        .section        .text._ZN5Eigen15PlainObjectBaseINS_6MatrixIdLin1ELin1ELi0ELin1ELin1EEEED2Ev,"axG",@progbits,_ZN5Eigen15PlainObjectBaseINS_6MatrixIdLin1ELin1ELi0ELin1ELin1EEEED5Ev,comdat
        .align 2
        .weak   _ZN5Eigen15PlainObjectBaseINS_6MatrixIdLin1ELin1ELi0ELin1ELin1EEEED2Ev
        .type   _ZN5Eigen15PlainObjectBaseINS_6MatrixIdLin1ELin1ELi0ELin1ELin1EEEED2Ev, @function
_ZN5Eigen15PlainObjectBaseINS_6MatrixIdLin1ELin1ELi0ELin1ELin1EEEED2Ev:
.LFB8475:
        .file 8 "/opt/compiler-explorer/libs/eigen/v3.3.4/Eigen/src/Core/PlainObjectBase.h"
        .loc 8 98 7
        .cfi_startproc
        push    rbp
        .cfi_def_cfa_offset 16
        .cfi_offset 6, -16
        mov     rbp, rsp
        .cfi_def_cfa_register 6
        sub     rsp, 16
        mov     QWORD PTR [rbp-8], rdi
.LBB15:
        .loc 8 98 7
        mov     rax, QWORD PTR [rbp-8]
        mov     rdi, rax
        call    _ZN5Eigen12DenseStorageIdLin1ELin1ELin1ELi0EED1Ev
.LBE15:
        nop
        leave
        .cfi_def_cfa 7, 8
        ret
        .cfi_endproc
.LFE8475:
        .size   _ZN5Eigen15PlainObjectBaseINS_6MatrixIdLin1ELin1ELi0ELin1ELin1EEEED2Ev, .-_ZN5Eigen15PlainObjectBaseINS_6MatrixIdLin1ELin1ELi0ELin1ELin1EEEED2Ev
        .weak   _ZN5Eigen15PlainObjectBaseINS_6MatrixIdLin1ELin1ELi0ELin1ELin1EEEED1Ev
        .set    _ZN5Eigen15PlainObjectBaseINS_6MatrixIdLin1ELin1ELi0ELin1ELin1EEEED1Ev,_ZN5Eigen15PlainObjectBaseINS_6MatrixIdLin1ELin1ELi0ELin1ELin1EEEED2Ev
        .section        .text._ZN5Eigen6MatrixIdLin1ELin1ELi0ELin1ELin1EED2Ev,"axG",@progbits,_ZN5Eigen6MatrixIdLin1ELin1ELi0ELin1ELin1EED5Ev,comdat
        .align 2
        .weak   _ZN5Eigen6MatrixIdLin1ELin1ELi0ELin1ELin1EED2Ev
        .type   _ZN5Eigen6MatrixIdLin1ELin1ELi0ELin1ELin1EED2Ev, @function
_ZN5Eigen6MatrixIdLin1ELin1ELi0ELin1ELin1EED2Ev:
.LFB8477:
        .file 9 "/opt/compiler-explorer/libs/eigen/v3.3.4/Eigen/src/Core/Matrix.h"
        .loc 9 178 7
        .cfi_startproc
        push    rbp
        .cfi_def_cfa_offset 16
        .cfi_offset 6, -16
        mov     rbp, rsp
        .cfi_def_cfa_register 6
        sub     rsp, 16
        mov     QWORD PTR [rbp-8], rdi
.LBB16:
        .loc 9 178 7
        mov     rax, QWORD PTR [rbp-8]
        mov     rdi, rax
        call    _ZN5Eigen15PlainObjectBaseINS_6MatrixIdLin1ELin1ELi0ELin1ELin1EEEED2Ev
.LBE16:
        nop
        leave
        .cfi_def_cfa 7, 8
        ret
        .cfi_endproc
.LFE8477:
        .size   _ZN5Eigen6MatrixIdLin1ELin1ELi0ELin1ELin1EED2Ev, .-_ZN5Eigen6MatrixIdLin1ELin1ELi0ELin1ELin1EED2Ev
        .weak   _ZN5Eigen6MatrixIdLin1ELin1ELi0ELin1ELin1EED1Ev
        .set    _ZN5Eigen6MatrixIdLin1ELin1ELi0ELin1ELin1EED1Ev,_ZN5Eigen6MatrixIdLin1ELin1ELi0ELin1ELin1EED2Ev
        .text
        .globl  main
        .type   main, @function
main:
.LFB8472:
        .file 10 "/tmp/compiler-explorer-compiler119330-53-19bokwq.nmy5g/example.cpp"
        .loc 10 5 1
        .cfi_startproc
        .cfi_personality 0x3,__gxx_personality_v0
        .cfi_lsda 0x3,.LLSDA8472
        push    rbp
        .cfi_def_cfa_offset 16
        .cfi_offset 6, -16
        mov     rbp, rsp
        .cfi_def_cfa_register 6
        push    rbx
        sub     rsp, 56
        .cfi_offset 3, -24
        .loc 10 6 17
        mov     DWORD PTR [rbp-24], 2
        mov     DWORD PTR [rbp-20], 2
        lea     rdx, [rbp-24]
        lea     rcx, [rbp-20]
        lea     rax, [rbp-48]
        mov     rsi, rcx
        mov     rdi, rax
.LEHB9:
        call    _ZN5Eigen6MatrixIdLin1ELin1ELi0ELin1ELin1EEC1IiiEERKT_RKT0_
.LEHE9:
        .loc 10 7 8
        lea     rax, [rbp-48]
        mov     edx, 0
        mov     esi, 0
        mov     rdi, rax
.LEHB10:
        call    _ZN5Eigen15DenseCoeffsBaseINS_6MatrixIdLin1ELin1ELi0ELin1ELin1EEELi1EEclEll
        .loc 10 7 10
        movsd   xmm0, QWORD PTR .LC3[rip]
        movsd   QWORD PTR [rax], xmm0
        .loc 10 8 8
        lea     rax, [rbp-48]
        mov     edx, 0
        mov     esi, 1
        mov     rdi, rax
        call    _ZN5Eigen15DenseCoeffsBaseINS_6MatrixIdLin1ELin1ELi0ELin1ELin1EEELi1EEclEll
        .loc 10 8 10 discriminator 1
        movsd   xmm0, QWORD PTR .LC4[rip]
        movsd   QWORD PTR [rax], xmm0
        .loc 10 9 8 discriminator 1
        lea     rax, [rbp-48]
        mov     edx, 1
        mov     esi, 0
        mov     rdi, rax
        call    _ZN5Eigen15DenseCoeffsBaseINS_6MatrixIdLin1ELin1ELi0ELin1ELin1EEELi1EEclEll
        .loc 10 9 10 discriminator 1
        movsd   xmm0, QWORD PTR .LC5[rip]
        movsd   QWORD PTR [rax], xmm0
        .loc 10 10 17 discriminator 1
        lea     rax, [rbp-48]
        mov     edx, 0
        mov     esi, 1
        mov     rdi, rax
        call    _ZN5Eigen15DenseCoeffsBaseINS_6MatrixIdLin1ELin1ELi0ELin1ELin1EEELi1EEclEll
        .loc 10 10 13 discriminator 1
        movsd   xmm1, QWORD PTR [rax]
        movsd   QWORD PTR [rbp-56], xmm1
        .loc 10 10 26 discriminator 1
        lea     rax, [rbp-48]
        mov     edx, 1
        mov     esi, 0
        mov     rdi, rax
        call    _ZN5Eigen15DenseCoeffsBaseINS_6MatrixIdLin1ELin1ELi0ELin1ELin1EEELi1EEclEll
        .loc 10 10 22 discriminator 1
        movsd   xmm0, QWORD PTR [rax]
        .loc 10 10 19 discriminator 1
        addsd   xmm0, QWORD PTR [rbp-56]
        movsd   QWORD PTR [rbp-56], xmm0
        .loc 10 10 8 discriminator 1
        lea     rax, [rbp-48]
        mov     edx, 1
        mov     esi, 1
        mov     rdi, rax
        call    _ZN5Eigen15DenseCoeffsBaseINS_6MatrixIdLin1ELin1ELi0ELin1ELin1EEELi1EEclEll
        .loc 10 10 10 discriminator 2
        movsd   xmm0, QWORD PTR [rbp-56]
        movsd   QWORD PTR [rax], xmm0
        .loc 10 11 16 discriminator 2
        lea     rax, [rbp-48]
        mov     rsi, rax
        mov     edi, OFFSET FLAT:_ZSt4cout
        call    _ZN5EigenlsINS_6MatrixIdLin1ELin1ELi0ELin1ELin1EEEEERSoS3_RKNS_9DenseBaseIT_EE
        .loc 10 11 26 discriminator 3
        mov     esi, OFFSET FLAT:_ZSt4endlIcSt11char_traitsIcEERSt13basic_ostreamIT_T0_ES6_
        mov     rdi, rax
        call    _ZNSolsEPFRSoS_E
.LEHE10:
        .loc 10 6 17
        lea     rax, [rbp-48]
        mov     rdi, rax
        call    _ZN5Eigen6MatrixIdLin1ELin1ELi0ELin1ELin1EED1Ev
        .loc 10 12 1
        mov     eax, 0
        jmp     .L54
.L53:
        mov     rbx, rax
        .loc 10 6 17
        lea     rax, [rbp-48]
        mov     rdi, rax
        call    _ZN5Eigen6MatrixIdLin1ELin1ELi0ELin1ELin1EED1Ev
        mov     rax, rbx
        mov     rdi, rax
.LEHB11:
        call    _Unwind_Resume
.LEHE11:
.L54:
        .loc 10 12 1
        add     rsp, 56
        pop     rbx
        pop     rbp
        .cfi_def_cfa 7, 8
        ret
        .cfi_endproc
.LFE8472:
        .section        .gcc_except_table,"a",@progbits
.LLSDA8472:
        .byte   0xff
        .byte   0xff
        .byte   0x1
        .uleb128 .LLSDACSE8472-.LLSDACSB8472
.LLSDACSB8472:
        .uleb128 .LEHB9-.LFB8472
        .uleb128 .LEHE9-.LEHB9
        .uleb128 0
        .uleb128 0
        .uleb128 .LEHB10-.LFB8472
        .uleb128 .LEHE10-.LEHB10
        .uleb128 .L53-.LFB8472
        .uleb128 0
        .uleb128 .LEHB11-.LFB8472
        .uleb128 .LEHE11-.LEHB11
        .uleb128 0
        .uleb128 0
.LLSDACSE8472:
        .text
        .size   main, .-main
        .section        .text._ZN9__gnu_cxx11char_traitsIcE6lengthEPKc,"axG",@progbits,_ZN9__gnu_cxx11char_traitsIcE6lengthEPKc,comdat
        .align 2
        .weak   _ZN9__gnu_cxx11char_traitsIcE6lengthEPKc
        .type   _ZN9__gnu_cxx11char_traitsIcE6lengthEPKc, @function
_ZN9__gnu_cxx11char_traitsIcE6lengthEPKc:
.LFB8482:
        .loc 3 161 5
        .cfi_startproc
        push    rbp
        .cfi_def_cfa_offset 16
        .cfi_offset 6, -16
        mov     rbp, rsp
        .cfi_def_cfa_register 6
        sub     rsp, 32
        mov     QWORD PTR [rbp-24], rdi
        .loc 3 164 19
        mov     QWORD PTR [rbp-8], 0
.L57:
        .loc 3 165 17
        mov     BYTE PTR [rbp-9], 0
        .loc 3 165 21
        mov     rdx, QWORD PTR [rbp-24]
        mov     rax, QWORD PTR [rbp-8]
        add     rdx, rax
        .loc 3 165 17
        lea     rax, [rbp-9]
        mov     rsi, rax
        mov     rdi, rdx
        call    _ZN9__gnu_cxx11char_traitsIcE2eqERKcS3_
        .loc 3 165 14
        xor     eax, 1
        test    al, al
        je      .L56
        .loc 3 166 9
        add     QWORD PTR [rbp-8], 1
        .loc 3 165 7
        jmp     .L57
.L56:
        .loc 3 167 14
        mov     rax, QWORD PTR [rbp-8]
        .loc 3 168 5
        leave
        .cfi_def_cfa 7, 8
        ret
        .cfi_endproc
.LFE8482:
        .size   _ZN9__gnu_cxx11char_traitsIcE6lengthEPKc, .-_ZN9__gnu_cxx11char_traitsIcE6lengthEPKc
        .section        .text._ZN9__gnu_cxx11char_traitsIcE2eqERKcS3_,"axG",@progbits,_ZN9__gnu_cxx11char_traitsIcE2eqERKcS3_,comdat
        .weak   _ZN9__gnu_cxx11char_traitsIcE2eqERKcS3_
        .type   _ZN9__gnu_cxx11char_traitsIcE2eqERKcS3_, @function
_ZN9__gnu_cxx11char_traitsIcE2eqERKcS3_:
.LFB8484:
        .loc 3 100 7
        .cfi_startproc
        push    rbp
        .cfi_def_cfa_offset 16
        .cfi_offset 6, -16
        mov     rbp, rsp
        .cfi_def_cfa_register 6
        mov     QWORD PTR [rbp-8], rdi
        mov     QWORD PTR [rbp-16], rsi
        .loc 3 101 21
        mov     rax, QWORD PTR [rbp-8]
        movzx   edx, BYTE PTR [rax]
        mov     rax, QWORD PTR [rbp-16]
        movzx   eax, BYTE PTR [rax]
        .loc 3 101 24
        cmp     dl, al
        sete    al
        .loc 3 101 30
        pop     rbp
        .cfi_def_cfa 7, 8
        ret
        .cfi_endproc
.LFE8484:
        .size   _ZN9__gnu_cxx11char_traitsIcE2eqERKcS3_, .-_ZN9__gnu_cxx11char_traitsIcE2eqERKcS3_
        .section        .text._ZNSt7__cxx1112basic_stringIcSt11char_traitsIcESaIcEE12_Alloc_hiderD2Ev,"axG",@progbits,_ZNSt7__cxx1112basic_stringIcSt11char_traitsIcESaIcEE12_Alloc_hiderD5Ev,comdat
        .align 2
        .weak   _ZNSt7__cxx1112basic_stringIcSt11char_traitsIcESaIcEE12_Alloc_hiderD2Ev
        .type   _ZNSt7__cxx1112basic_stringIcSt11char_traitsIcESaIcEE12_Alloc_hiderD2Ev, @function
_ZNSt7__cxx1112basic_stringIcSt11char_traitsIcESaIcEE12_Alloc_hiderD2Ev:
.LFB8586:
        .file 11 "/opt/compiler-explorer/gcc-8.3.0/include/c++/8.3.0/bits/basic_string.h"
        .loc 11 139 14
        .cfi_startproc
        push    rbp
        .cfi_def_cfa_offset 16
        .cfi_offset 6, -16
        mov     rbp, rsp
        .cfi_def_cfa_register 6
        sub     rsp, 16
        mov     QWORD PTR [rbp-8], rdi
.LBB17:
        .loc 11 139 14
        mov     rax, QWORD PTR [rbp-8]
        mov     rdi, rax
        call    _ZNSaIcED2Ev
.LBE17:
        nop
        leave
        .cfi_def_cfa 7, 8
        ret
        .cfi_endproc
.LFE8586:
        .size   _ZNSt7__cxx1112basic_stringIcSt11char_traitsIcESaIcEE12_Alloc_hiderD2Ev, .-_ZNSt7__cxx1112basic_stringIcSt11char_traitsIcESaIcEE12_Alloc_hiderD2Ev
        .weak   _ZNSt7__cxx1112basic_stringIcSt11char_traitsIcESaIcEE12_Alloc_hiderD1Ev
        .set    _ZNSt7__cxx1112basic_stringIcSt11char_traitsIcESaIcEE12_Alloc_hiderD1Ev,_ZNSt7__cxx1112basic_stringIcSt11char_traitsIcESaIcEE12_Alloc_hiderD2Ev
        .section        .text._ZNSt7__cxx1112basic_stringIcSt11char_traitsIcESaIcEED2Ev,"axG",@progbits,_ZNSt7__cxx1112basic_stringIcSt11char_traitsIcESaIcEED5Ev,comdat
        .align 2
        .weak   _ZNSt7__cxx1112basic_stringIcSt11char_traitsIcESaIcEED2Ev
        .type   _ZNSt7__cxx1112basic_stringIcSt11char_traitsIcESaIcEED2Ev, @function
_ZNSt7__cxx1112basic_stringIcSt11char_traitsIcESaIcEED2Ev:
.LFB8588:
        .loc 11 656 7
        .cfi_startproc
        .cfi_personality 0x3,__gxx_personality_v0
        .cfi_lsda 0x3,.LLSDA8588
        push    rbp
        .cfi_def_cfa_offset 16
        .cfi_offset 6, -16
        mov     rbp, rsp
        .cfi_def_cfa_register 6
        sub     rsp, 16
        mov     QWORD PTR [rbp-8], rdi
.LBB18:
        .loc 11 657 9
        mov     rax, QWORD PTR [rbp-8]
        mov     rdi, rax
        call    _ZNSt7__cxx1112basic_stringIcSt11char_traitsIcESaIcEE10_M_disposeEv
        .loc 11 657 23
        mov     rax, QWORD PTR [rbp-8]
        mov     rdi, rax
        call    _ZNSt7__cxx1112basic_stringIcSt11char_traitsIcESaIcEE12_Alloc_hiderD1Ev
.LBE18:
        nop
        leave
        .cfi_def_cfa 7, 8
        ret
        .cfi_endproc
.LFE8588:
        .section        .gcc_except_table
.LLSDA8588:
        .byte   0xff
        .byte   0xff
        .byte   0x1
        .uleb128 .LLSDACSE8588-.LLSDACSB8588
.LLSDACSB8588:
.LLSDACSE8588:
        .section        .text._ZNSt7__cxx1112basic_stringIcSt11char_traitsIcESaIcEED2Ev,"axG",@progbits,_ZNSt7__cxx1112basic_stringIcSt11char_traitsIcESaIcEED5Ev,comdat
        .size   _ZNSt7__cxx1112basic_stringIcSt11char_traitsIcESaIcEED2Ev, .-_ZNSt7__cxx1112basic_stringIcSt11char_traitsIcESaIcEED2Ev
        .weak   _ZNSt7__cxx1112basic_stringIcSt11char_traitsIcESaIcEED1Ev
        .set    _ZNSt7__cxx1112basic_stringIcSt11char_traitsIcESaIcEED1Ev,_ZNSt7__cxx1112basic_stringIcSt11char_traitsIcESaIcEED2Ev
        .section        .text._ZNKSt7__cxx1112basic_stringIcSt11char_traitsIcESaIcEE6lengthEv,"axG",@progbits,_ZNKSt7__cxx1112basic_stringIcSt11char_traitsIcESaIcEE6lengthEv,comdat
        .align 2
        .weak   _ZNKSt7__cxx1112basic_stringIcSt11char_traitsIcESaIcEE6lengthEv
        .type   _ZNKSt7__cxx1112basic_stringIcSt11char_traitsIcESaIcEE6lengthEv, @function
_ZNKSt7__cxx1112basic_stringIcSt11char_traitsIcESaIcEE6lengthEv:
.LFB8671:
        .loc 11 936 7
        .cfi_startproc
        push    rbp
        .cfi_def_cfa_offset 16
        .cfi_offset 6, -16
        mov     rbp, rsp
        .cfi_def_cfa_register 6
        mov     QWORD PTR [rbp-8], rdi
        .loc 11 937 16
        mov     rax, QWORD PTR [rbp-8]
        mov     rax, QWORD PTR [rax+8]
        .loc 11 937 34
        pop     rbp
        .cfi_def_cfa 7, 8
        ret
        .cfi_endproc
.LFE8671:
        .size   _ZNKSt7__cxx1112basic_stringIcSt11char_traitsIcESaIcEE6lengthEv, .-_ZNKSt7__cxx1112basic_stringIcSt11char_traitsIcESaIcEE6lengthEv
        .section        .text._ZNSt7__cxx1112basic_stringIcSt11char_traitsIcESaIcEEC2IS3_EEPKcRKS3_,"axG",@progbits,_ZNSt7__cxx1112basic_stringIcSt11char_traitsIcESaIcEEC5IS3_EEPKcRKS3_,comdat
        .align 2
        .weak   _ZNSt7__cxx1112basic_stringIcSt11char_traitsIcESaIcEEC2IS3_EEPKcRKS3_
        .type   _ZNSt7__cxx1112basic_stringIcSt11char_traitsIcESaIcEEC2IS3_EEPKcRKS3_, @function
_ZNSt7__cxx1112basic_stringIcSt11char_traitsIcESaIcEEC2IS3_EEPKcRKS3_:
.LFB8802:
        .loc 11 514 7
        .cfi_startproc
        .cfi_personality 0x3,__gxx_personality_v0
        .cfi_lsda 0x3,.LLSDA8802
        push    rbp
        .cfi_def_cfa_offset 16
        .cfi_offset 6, -16
        mov     rbp, rsp
        .cfi_def_cfa_register 6
        push    rbx
        sub     rsp, 40
        .cfi_offset 3, -24
        mov     QWORD PTR [rbp-24], rdi
        mov     QWORD PTR [rbp-32], rsi
        mov     QWORD PTR [rbp-40], rdx
.LBB19:
        .loc 11 515 41
        mov     rbx, QWORD PTR [rbp-24]
        mov     rax, QWORD PTR [rbp-24]
        mov     rdi, rax
        call    _ZNSt7__cxx1112basic_stringIcSt11char_traitsIcESaIcEE13_M_local_dataEv
        mov     rcx, rax
        mov     rax, QWORD PTR [rbp-40]
        mov     rdx, rax
        mov     rsi, rcx
        mov     rdi, rbx
        call    _ZNSt7__cxx1112basic_stringIcSt11char_traitsIcESaIcEE12_Alloc_hiderC1EPcRKS3_
        .loc 11 516 9
        cmp     QWORD PTR [rbp-32], 0
        je      .L66
        .loc 11 516 58 discriminator 1
        mov     rax, QWORD PTR [rbp-32]
        mov     rdi, rax
.LEHB12:
        call    _ZNSt11char_traitsIcE6lengthEPKc
        mov     rdx, rax
        .loc 11 516 9 discriminator 1
        mov     rax, QWORD PTR [rbp-32]
        add     rax, rdx
        jmp     .L67
.L66:
        .loc 11 516 9 is_stmt 0 discriminator 2
        mov     rax, QWORD PTR [rbp-32]
        sub     rax, 1
.L67:
        .loc 11 516 9 discriminator 5
        mov     rsi, QWORD PTR [rbp-32]
        mov     rcx, QWORD PTR [rbp-24]
        mov     rdx, rax
        mov     rdi, rcx
        call    _ZNSt7__cxx1112basic_stringIcSt11char_traitsIcESaIcEE12_M_constructIPKcEEvT_S8_
.LEHE12:
.LBE19:
        .loc 11 516 77 is_stmt 1
        jmp     .L70
.L69:
        mov     rbx, rax
.LBB20:
        .loc 11 515 41
        mov     rax, QWORD PTR [rbp-24]
        mov     rdi, rax
        call    _ZNSt7__cxx1112basic_stringIcSt11char_traitsIcESaIcEE12_Alloc_hiderD1Ev
        mov     rax, rbx
        mov     rdi, rax
.LEHB13:
        call    _Unwind_Resume
.LEHE13:
.L70:
.LBE20:
        .loc 11 516 77
        add     rsp, 40
        pop     rbx
        pop     rbp
        .cfi_def_cfa 7, 8
        ret
        .cfi_endproc
.LFE8802:
        .section        .gcc_except_table
.LLSDA8802:
        .byte   0xff
        .byte   0xff
        .byte   0x1
        .uleb128 .LLSDACSE8802-.LLSDACSB8802
.LLSDACSB8802:
        .uleb128 .LEHB12-.LFB8802
        .uleb128 .LEHE12-.LEHB12
        .uleb128 .L69-.LFB8802
        .uleb128 0
        .uleb128 .LEHB13-.LFB8802
        .uleb128 .LEHE13-.LEHB13
        .uleb128 0
        .uleb128 0
.LLSDACSE8802:
        .section        .text._ZNSt7__cxx1112basic_stringIcSt11char_traitsIcESaIcEEC2IS3_EEPKcRKS3_,"axG",@progbits,_ZNSt7__cxx1112basic_stringIcSt11char_traitsIcESaIcEEC5IS3_EEPKcRKS3_,comdat
        .size   _ZNSt7__cxx1112basic_stringIcSt11char_traitsIcESaIcEEC2IS3_EEPKcRKS3_, .-_ZNSt7__cxx1112basic_stringIcSt11char_traitsIcESaIcEEC2IS3_EEPKcRKS3_
        .weak   _ZNSt7__cxx1112basic_stringIcSt11char_traitsIcESaIcEEC1IS3_EEPKcRKS3_
        .set    _ZNSt7__cxx1112basic_stringIcSt11char_traitsIcESaIcEEC1IS3_EEPKcRKS3_,_ZNSt7__cxx1112basic_stringIcSt11char_traitsIcESaIcEEC2IS3_EEPKcRKS3_
        .section        .text._ZNSt7__cxx1112basic_stringIcSt11char_traitsIcESaIcEEC2ERKS4_,"axG",@progbits,_ZNSt7__cxx1112basic_stringIcSt11char_traitsIcESaIcEEC5ERKS4_,comdat
        .align 2
        .weak   _ZNSt7__cxx1112basic_stringIcSt11char_traitsIcESaIcEEC2ERKS4_
        .type   _ZNSt7__cxx1112basic_stringIcSt11char_traitsIcESaIcEEC2ERKS4_, @function
_ZNSt7__cxx1112basic_stringIcSt11char_traitsIcESaIcEEC2ERKS4_:
.LFB8822:
        .loc 11 437 7
        .cfi_startproc
        .cfi_personality 0x3,__gxx_personality_v0
        .cfi_lsda 0x3,.LLSDA8822
        push    rbp
        .cfi_def_cfa_offset 16
        .cfi_offset 6, -16
        mov     rbp, rsp
        .cfi_def_cfa_register 6
        push    rbx
        sub     rsp, 40
        .cfi_offset 3, -24
        mov     QWORD PTR [rbp-40], rdi
        mov     QWORD PTR [rbp-48], rsi
.LBB21:
        .loc 11 439 65
        mov     rbx, QWORD PTR [rbp-40]
        .loc 11 439 39
        mov     rax, QWORD PTR [rbp-48]
        mov     rdi, rax
        call    _ZNKSt7__cxx1112basic_stringIcSt11char_traitsIcESaIcEE16_M_get_allocatorEv
        mov     rdx, rax
        .loc 11 439 65
        lea     rax, [rbp-17]
        mov     rsi, rdx
        mov     rdi, rax
.LEHB14:
        call    _ZN9__gnu_cxx14__alloc_traitsISaIcEcE17_S_select_on_copyERKS1_
.LEHE14:
        mov     rax, QWORD PTR [rbp-40]
        mov     rdi, rax
        call    _ZNSt7__cxx1112basic_stringIcSt11char_traitsIcESaIcEE13_M_local_dataEv
        mov     rcx, rax
        lea     rax, [rbp-17]
        mov     rdx, rax
        mov     rsi, rcx
        mov     rdi, rbx
        call    _ZNSt7__cxx1112basic_stringIcSt11char_traitsIcESaIcEE12_Alloc_hiderC1EPcOS3_
        lea     rax, [rbp-17]
        mov     rdi, rax
        call    _ZNSaIcED1Ev
        .loc 11 440 55
        mov     rax, QWORD PTR [rbp-48]
        mov     rdi, rax
        call    _ZNKSt7__cxx1112basic_stringIcSt11char_traitsIcESaIcEE7_M_dataEv
        mov     rbx, rax
        mov     rax, QWORD PTR [rbp-48]
        mov     rdi, rax
        call    _ZNKSt7__cxx1112basic_stringIcSt11char_traitsIcESaIcEE6lengthEv
        .loc 11 440 9
        add     rbx, rax
        mov     rax, QWORD PTR [rbp-48]
        mov     rdi, rax
        call    _ZNKSt7__cxx1112basic_stringIcSt11char_traitsIcESaIcEE7_M_dataEv
        mov     rcx, rax
        mov     rax, QWORD PTR [rbp-40]
        mov     rdx, rbx
        mov     rsi, rcx
        mov     rdi, rax
.LEHB15:
        call    _ZNSt7__cxx1112basic_stringIcSt11char_traitsIcESaIcEE12_M_constructIPcEEvT_S7_
.LEHE15:
.LBE21:
        .loc 11 440 74
        jmp     .L74
.L73:
        mov     rbx, rax
.LBB22:
        .loc 11 439 65
        mov     rax, QWORD PTR [rbp-40]
        mov     rdi, rax
        call    _ZNSt7__cxx1112basic_stringIcSt11char_traitsIcESaIcEE12_Alloc_hiderD1Ev
        mov     rax, rbx
        mov     rdi, rax
.LEHB16:
        call    _Unwind_Resume
.LEHE16:
.L74:
.LBE22:
        .loc 11 440 74
        add     rsp, 40
        pop     rbx
        pop     rbp
        .cfi_def_cfa 7, 8
        ret
        .cfi_endproc
.LFE8822:
        .section        .gcc_except_table
.LLSDA8822:
        .byte   0xff
        .byte   0xff
        .byte   0x1
        .uleb128 .LLSDACSE8822-.LLSDACSB8822
.LLSDACSB8822:
        .uleb128 .LEHB14-.LFB8822
        .uleb128 .LEHE14-.LEHB14
        .uleb128 0
        .uleb128 0
        .uleb128 .LEHB15-.LFB8822
        .uleb128 .LEHE15-.LEHB15
        .uleb128 .L73-.LFB8822
        .uleb128 0
        .uleb128 .LEHB16-.LFB8822
        .uleb128 .LEHE16-.LEHB16
        .uleb128 0
        .uleb128 0
.LLSDACSE8822:
        .section        .text._ZNSt7__cxx1112basic_stringIcSt11char_traitsIcESaIcEEC2ERKS4_,"axG",@progbits,_ZNSt7__cxx1112basic_stringIcSt11char_traitsIcESaIcEEC5ERKS4_,comdat
        .size   _ZNSt7__cxx1112basic_stringIcSt11char_traitsIcESaIcEEC2ERKS4_, .-_ZNSt7__cxx1112basic_stringIcSt11char_traitsIcESaIcEEC2ERKS4_
        .weak   _ZNSt7__cxx1112basic_stringIcSt11char_traitsIcESaIcEEC1ERKS4_
        .set    _ZNSt7__cxx1112basic_stringIcSt11char_traitsIcESaIcEEC1ERKS4_,_ZNSt7__cxx1112basic_stringIcSt11char_traitsIcESaIcEEC2ERKS4_
        .section        .text._ZNSt7__cxx1112basic_stringIcSt11char_traitsIcESaIcEEixEm,"axG",@progbits,_ZNSt7__cxx1112basic_stringIcSt11char_traitsIcESaIcEEixEm,comdat
        .align 2
        .weak   _ZNSt7__cxx1112basic_stringIcSt11char_traitsIcESaIcEEixEm
        .type   _ZNSt7__cxx1112basic_stringIcSt11char_traitsIcESaIcEEixEm, @function
_ZNSt7__cxx1112basic_stringIcSt11char_traitsIcESaIcEEixEm:
.LFB8824:
        .loc 11 1063 7
        .cfi_startproc
        push    rbp
        .cfi_def_cfa_offset 16
        .cfi_offset 6, -16
        mov     rbp, rsp
        .cfi_def_cfa_register 6
        sub     rsp, 16
        mov     QWORD PTR [rbp-8], rdi
        mov     QWORD PTR [rbp-16], rsi
        .loc 11 1070 18
        mov     rax, QWORD PTR [rbp-8]
        mov     rdi, rax
        call    _ZNKSt7__cxx1112basic_stringIcSt11char_traitsIcESaIcEE7_M_dataEv
        mov     rdx, rax
        .loc 11 1070 24
        mov     rax, QWORD PTR [rbp-16]
        add     rax, rdx
        .loc 11 1071 7
        leave
        .cfi_def_cfa 7, 8
        ret
        .cfi_endproc
.LFE8824:
        .size   _ZNSt7__cxx1112basic_stringIcSt11char_traitsIcESaIcEEixEm, .-_ZNSt7__cxx1112basic_stringIcSt11char_traitsIcESaIcEEixEm
        .section        .text._ZNSt7__cxx1112basic_stringIcSt11char_traitsIcESaIcEEpLEc,"axG",@progbits,_ZNSt7__cxx1112basic_stringIcSt11char_traitsIcESaIcEEpLEc,comdat
        .align 2
        .weak   _ZNSt7__cxx1112basic_stringIcSt11char_traitsIcESaIcEEpLEc
        .type   _ZNSt7__cxx1112basic_stringIcSt11char_traitsIcESaIcEEpLEc, @function
_ZNSt7__cxx1112basic_stringIcSt11char_traitsIcESaIcEEpLEc:
.LFB8825:
        .loc 11 1186 7
        .cfi_startproc
        push    rbp
        .cfi_def_cfa_offset 16
        .cfi_offset 6, -16
        mov     rbp, rsp
        .cfi_def_cfa_register 6
        sub     rsp, 16
        mov     QWORD PTR [rbp-8], rdi
        mov     eax, esi
        mov     BYTE PTR [rbp-12], al
        .loc 11 1188 2
        movsx   edx, BYTE PTR [rbp-12]
        mov     rax, QWORD PTR [rbp-8]
        mov     esi, edx
        mov     rdi, rax
        call    _ZNSt7__cxx1112basic_stringIcSt11char_traitsIcESaIcEE9push_backEc
        .loc 11 1189 10
        mov     rax, QWORD PTR [rbp-8]
        .loc 11 1190 7
        leave
        .cfi_def_cfa 7, 8
        ret
        .cfi_endproc
.LFE8825:
        .size   _ZNSt7__cxx1112basic_stringIcSt11char_traitsIcESaIcEEpLEc, .-_ZNSt7__cxx1112basic_stringIcSt11char_traitsIcESaIcEEpLEc
        .section        .text._ZN5Eigen6MatrixIdLin1ELin1ELi0ELin1ELin1EEC2IiiEERKT_RKT0_,"axG",@progbits,_ZN5Eigen6MatrixIdLin1ELin1ELi0ELin1ELin1EEC5IiiEERKT_RKT0_,comdat
        .align 2
        .weak   _ZN5Eigen6MatrixIdLin1ELin1ELi0ELin1ELin1EEC2IiiEERKT_RKT0_
        .type   _ZN5Eigen6MatrixIdLin1ELin1ELi0ELin1ELin1EEC2IiiEERKT_RKT0_, @function
_ZN5Eigen6MatrixIdLin1ELin1ELi0ELin1ELin1EEC2IiiEERKT_RKT0_:
.LFB8833:
        .loc 9 301 25
        .cfi_startproc
        .cfi_personality 0x3,__gxx_personality_v0
        .cfi_lsda 0x3,.LLSDA8833
        push    rbp
        .cfi_def_cfa_offset 16
        .cfi_offset 6, -16
        mov     rbp, rsp
        .cfi_def_cfa_register 6
        push    rbx
        sub     rsp, 40
        .cfi_offset 3, -24
        mov     QWORD PTR [rbp-24], rdi
        mov     QWORD PTR [rbp-32], rsi
        mov     QWORD PTR [rbp-40], rdx
.LBB23:
        .loc 9 302 5
        mov     rax, QWORD PTR [rbp-24]
        mov     rdi, rax
.LEHB17:
        call    _ZN5Eigen15PlainObjectBaseINS_6MatrixIdLin1ELin1ELi0ELin1ELin1EEEEC2Ev
.LEHE17:
        .loc 9 303 35
        call    _ZN5Eigen15PlainObjectBaseINS_6MatrixIdLin1ELin1ELi0ELin1ELin1EEEE22_check_template_paramsEv
        .loc 9 304 35
        mov     rax, QWORD PTR [rbp-24]
        mov     rdx, QWORD PTR [rbp-40]
        mov     edx, DWORD PTR [rdx]
        movsx   rdx, edx
        mov     rcx, QWORD PTR [rbp-32]
        mov     ecx, DWORD PTR [rcx]
        movsx   rsi, ecx
        mov     ecx, 0
        mov     rdi, rax
.LEHB18:
        call    _ZN5Eigen15PlainObjectBaseINS_6MatrixIdLin1ELin1ELi0ELin1ELin1EEEE6_init2IiiEEvllPNS_8internal9enable_ifILb1ET_E4typeE
.LEHE18:
.LBE23:
        .loc 9 305 5
        jmp     .L82
.L81:
        mov     rbx, rax
.LBB24:
        .loc 9 302 5
        mov     rax, QWORD PTR [rbp-24]
        mov     rdi, rax
        call    _ZN5Eigen15PlainObjectBaseINS_6MatrixIdLin1ELin1ELi0ELin1ELin1EEEED2Ev
        mov     rax, rbx
        mov     rdi, rax
.LEHB19:
        call    _Unwind_Resume
.LEHE19:
.L82:
.LBE24:
        .loc 9 305 5
        add     rsp, 40
        pop     rbx
        pop     rbp
        .cfi_def_cfa 7, 8
        ret
        .cfi_endproc
.LFE8833:
        .section        .gcc_except_table
.LLSDA8833:
        .byte   0xff
        .byte   0xff
        .byte   0x1
        .uleb128 .LLSDACSE8833-.LLSDACSB8833
.LLSDACSB8833:
        .uleb128 .LEHB17-.LFB8833
        .uleb128 .LEHE17-.LEHB17
        .uleb128 0
        .uleb128 0
        .uleb128 .LEHB18-.LFB8833
        .uleb128 .LEHE18-.LEHB18
        .uleb128 .L81-.LFB8833
        .uleb128 0
        .uleb128 .LEHB19-.LFB8833
        .uleb128 .LEHE19-.LEHB19
        .uleb128 0
        .uleb128 0
.LLSDACSE8833:
        .section        .text._ZN5Eigen6MatrixIdLin1ELin1ELi0ELin1ELin1EEC2IiiEERKT_RKT0_,"axG",@progbits,_ZN5Eigen6MatrixIdLin1ELin1ELi0ELin1ELin1EEC5IiiEERKT_RKT0_,comdat
        .size   _ZN5Eigen6MatrixIdLin1ELin1ELi0ELin1ELin1EEC2IiiEERKT_RKT0_, .-_ZN5Eigen6MatrixIdLin1ELin1ELi0ELin1ELin1EEC2IiiEERKT_RKT0_
        .weak   _ZN5Eigen6MatrixIdLin1ELin1ELi0ELin1ELin1EEC1IiiEERKT_RKT0_
        .set    _ZN5Eigen6MatrixIdLin1ELin1ELi0ELin1ELin1EEC1IiiEERKT_RKT0_,_ZN5Eigen6MatrixIdLin1ELin1ELi0ELin1ELin1EEC2IiiEERKT_RKT0_
        .section        .text._ZN5Eigen12DenseStorageIdLin1ELin1ELin1ELi0EED2Ev,"axG",@progbits,_ZN5Eigen12DenseStorageIdLin1ELin1ELin1ELi0EED5Ev,comdat
        .align 2
        .weak   _ZN5Eigen12DenseStorageIdLin1ELin1ELin1ELi0EED2Ev
        .type   _ZN5Eigen12DenseStorageIdLin1ELin1ELin1ELi0EED2Ev, @function
_ZN5Eigen12DenseStorageIdLin1ELin1ELin1ELi0EED2Ev:
.LFB8836:
        .file 12 "/opt/compiler-explorer/libs/eigen/v3.3.4/Eigen/src/Core/DenseStorage.h"
        .loc 12 391 23
        .cfi_startproc
        .cfi_personality 0x3,__gxx_personality_v0
        .cfi_lsda 0x3,.LLSDA8836
        push    rbp
        .cfi_def_cfa_offset 16
        .cfi_offset 6, -16
        mov     rbp, rsp
        .cfi_def_cfa_register 6
        sub     rsp, 16
        mov     QWORD PTR [rbp-8], rdi
.LBB25:
        .loc 12 391 118
        mov     rax, QWORD PTR [rbp-8]
        mov     rdx, QWORD PTR [rax+8]
        .loc 12 391 125
        mov     rax, QWORD PTR [rbp-8]
        mov     rax, QWORD PTR [rax+16]
        .loc 12 391 124
        imul    rax, rdx
        .loc 12 391 109
        mov     rdx, rax
        mov     rax, QWORD PTR [rbp-8]
        mov     rax, QWORD PTR [rax]
        mov     rsi, rdx
        mov     rdi, rax
        call    _ZN5Eigen8internal31conditional_aligned_delete_autoIdLb1EEEvPT_m
.LBE25:
        .loc 12 391 134
        nop
        leave
        .cfi_def_cfa 7, 8
        ret
        .cfi_endproc
.LFE8836:
        .section        .gcc_except_table
.LLSDA8836:
        .byte   0xff
        .byte   0xff
        .byte   0x1
        .uleb128 .LLSDACSE8836-.LLSDACSB8836
.LLSDACSB8836:
.LLSDACSE8836:
        .section        .text._ZN5Eigen12DenseStorageIdLin1ELin1ELin1ELi0EED2Ev,"axG",@progbits,_ZN5Eigen12DenseStorageIdLin1ELin1ELin1ELi0EED5Ev,comdat
        .size   _ZN5Eigen12DenseStorageIdLin1ELin1ELin1ELi0EED2Ev, .-_ZN5Eigen12DenseStorageIdLin1ELin1ELin1ELi0EED2Ev
        .weak   _ZN5Eigen12DenseStorageIdLin1ELin1ELin1ELi0EED1Ev
        .set    _ZN5Eigen12DenseStorageIdLin1ELin1ELin1ELi0EED1Ev,_ZN5Eigen12DenseStorageIdLin1ELin1ELin1ELi0EED2Ev
        .section        .rodata
        .align 8
.LC6:
        .string "/opt/compiler-explorer/libs/eigen/v3.3.4/Eigen/src/Core/DenseCoeffsBase.h"
        .align 8
.LC7:
        .string "row >= 0 && row < rows() && col >= 0 && col < cols()"
        .section        .text._ZN5Eigen15DenseCoeffsBaseINS_6MatrixIdLin1ELin1ELi0ELin1ELin1EEELi1EEclEll,"axG",@progbits,_ZN5Eigen15DenseCoeffsBaseINS_6MatrixIdLin1ELin1ELi0ELin1ELin1EEELi1EEclEll,comdat
        .align 2
        .weak   _ZN5Eigen15DenseCoeffsBaseINS_6MatrixIdLin1ELin1ELi0ELin1ELin1EEELi1EEclEll
        .type   _ZN5Eigen15DenseCoeffsBaseINS_6MatrixIdLin1ELin1ELi0ELin1ELin1EEELi1EEclEll, @function
_ZN5Eigen15DenseCoeffsBaseINS_6MatrixIdLin1ELin1ELi0ELin1ELin1EEELi1EEclEll:
.LFB8838:
        .file 13 "/opt/compiler-explorer/libs/eigen/v3.3.4/Eigen/src/Core/DenseCoeffsBase.h"
        .loc 13 362 5
        .cfi_startproc
        push    rbp
        .cfi_def_cfa_offset 16
        .cfi_offset 6, -16
        mov     rbp, rsp
        .cfi_def_cfa_register 6
        sub     rsp, 32
        mov     QWORD PTR [rbp-8], rdi
        mov     QWORD PTR [rbp-16], rsi
        mov     QWORD PTR [rbp-24], rdx
        .loc 13 364 7
        cmp     QWORD PTR [rbp-16], 0
        js      .L85
        .loc 13 364 7 is_stmt 0 discriminator 1
        mov     rax, QWORD PTR [rbp-8]
        mov     rdi, rax
        call    _ZNK5Eigen9EigenBaseINS_6MatrixIdLin1ELin1ELi0ELin1ELin1EEEE4rowsEv
        cmp     QWORD PTR [rbp-16], rax
        jge     .L85
        .loc 13 364 7 discriminator 3
        cmp     QWORD PTR [rbp-24], 0
        js      .L85
        .loc 13 364 7 discriminator 5
        mov     rax, QWORD PTR [rbp-8]
        mov     rdi, rax
        call    _ZNK5Eigen9EigenBaseINS_6MatrixIdLin1ELin1ELi0ELin1ELin1EEEE4colsEv
        cmp     QWORD PTR [rbp-24], rax
        jl      .L88
.L85:
        .loc 13 364 7 discriminator 7
        mov     ecx, OFFSET FLAT:_ZZN5Eigen15DenseCoeffsBaseINS_6MatrixIdLin1ELin1ELi0ELin1ELin1EEELi1EEclEllE19__PRETTY_FUNCTION__
        mov     edx, 365
        mov     esi, OFFSET FLAT:.LC6
        mov     edi, OFFSET FLAT:.LC7
        call    __assert_fail
.L88:
        .loc 13 366 31 is_stmt 1
        mov     rdx, QWORD PTR [rbp-24]
        mov     rcx, QWORD PTR [rbp-16]
        mov     rax, QWORD PTR [rbp-8]
        mov     rsi, rcx
        mov     rdi, rax
        call    _ZN5Eigen15DenseCoeffsBaseINS_6MatrixIdLin1ELin1ELi0ELin1ELin1EEELi1EE8coeffRefEll
        .loc 13 367 5
        leave
        .cfi_def_cfa 7, 8
        ret
        .cfi_endproc
.LFE8838:
        .size   _ZN5Eigen15DenseCoeffsBaseINS_6MatrixIdLin1ELin1ELi0ELin1ELin1EEELi1EEclEll, .-_ZN5Eigen15DenseCoeffsBaseINS_6MatrixIdLin1ELin1ELi0ELin1ELin1EEELi1EEclEll
        .section        .text._ZN5Eigen8IOFormatD2Ev,"axG",@progbits,_ZN5Eigen8IOFormatD5Ev,comdat
        .align 2
        .weak   _ZN5Eigen8IOFormatD2Ev
        .type   _ZN5Eigen8IOFormatD2Ev, @function
_ZN5Eigen8IOFormatD2Ev:
.LFB8841:
        .loc 7 50 8
        .cfi_startproc
        push    rbp
        .cfi_def_cfa_offset 16
        .cfi_offset 6, -16
        mov     rbp, rsp
        .cfi_def_cfa_register 6
        sub     rsp, 16
        mov     QWORD PTR [rbp-8], rdi
.LBB26:
        .loc 7 50 8
        mov     rax, QWORD PTR [rbp-8]
        add     rax, 192
        mov     rdi, rax
        call    _ZNSt7__cxx1112basic_stringIcSt11char_traitsIcESaIcEED1Ev
        mov     rax, QWORD PTR [rbp-8]
        add     rax, 160
        mov     rdi, rax
        call    _ZNSt7__cxx1112basic_stringIcSt11char_traitsIcESaIcEED1Ev
        mov     rax, QWORD PTR [rbp-8]
        sub     rax, -128
        mov     rdi, rax
        call    _ZNSt7__cxx1112basic_stringIcSt11char_traitsIcESaIcEED1Ev
        mov     rax, QWORD PTR [rbp-8]
        add     rax, 96
        mov     rdi, rax
        call    _ZNSt7__cxx1112basic_stringIcSt11char_traitsIcESaIcEED1Ev
        mov     rax, QWORD PTR [rbp-8]
        add     rax, 64
        mov     rdi, rax
        call    _ZNSt7__cxx1112basic_stringIcSt11char_traitsIcESaIcEED1Ev
        mov     rax, QWORD PTR [rbp-8]
        add     rax, 32
        mov     rdi, rax
        call    _ZNSt7__cxx1112basic_stringIcSt11char_traitsIcESaIcEED1Ev
        mov     rax, QWORD PTR [rbp-8]
        mov     rdi, rax
        call    _ZNSt7__cxx1112basic_stringIcSt11char_traitsIcESaIcEED1Ev
.LBE26:
        nop
        leave
        .cfi_def_cfa 7, 8
        ret
        .cfi_endproc
.LFE8841:
        .size   _ZN5Eigen8IOFormatD2Ev, .-_ZN5Eigen8IOFormatD2Ev
        .weak   _ZN5Eigen8IOFormatD1Ev
        .set    _ZN5Eigen8IOFormatD1Ev,_ZN5Eigen8IOFormatD2Ev
        .section        .rodata
.LC8:
        .string "\n"
.LC9:
        .string " "
        .section        .text._ZN5EigenlsINS_6MatrixIdLin1ELin1ELi0ELin1ELin1EEEEERSoS3_RKNS_9DenseBaseIT_EE,"axG",@progbits,_ZN5EigenlsINS_6MatrixIdLin1ELin1ELi0ELin1ELin1EEEEERSoS3_RKNS_9DenseBaseIT_EE,comdat
        .weak   _ZN5EigenlsINS_6MatrixIdLin1ELin1ELi0ELin1ELin1EEEEERSoS3_RKNS_9DenseBaseIT_EE
        .type   _ZN5EigenlsINS_6MatrixIdLin1ELin1ELi0ELin1ELin1EEEEERSoS3_RKNS_9DenseBaseIT_EE, @function
_ZN5EigenlsINS_6MatrixIdLin1ELin1ELi0ELin1ELin1EEEEERSoS3_RKNS_9DenseBaseIT_EE:
.LFB8839:
        .loc 7 216 16
        .cfi_startproc
        .cfi_personality 0x3,__gxx_personality_v0
        .cfi_lsda 0x3,.LLSDA8839
        push    rbp
        .cfi_def_cfa_offset 16
        .cfi_offset 6, -16
        mov     rbp, rsp
        .cfi_def_cfa_register 6
        push    rbx
        sub     rsp, 552
        .cfi_offset 3, -24
        mov     QWORD PTR [rbp-552], rdi
        mov     QWORD PTR [rbp-560], rsi
        .loc 7 220 32
        lea     rax, [rbp-257]
        mov     rdi, rax
        call    _ZNSaIcEC1Ev
        lea     rdx, [rbp-257]
        lea     rax, [rbp-304]
        mov     esi, OFFSET FLAT:.LC2
        mov     rdi, rax
.LEHB20:
        call    _ZNSt7__cxx1112basic_stringIcSt11char_traitsIcESaIcEEC1IS3_EEPKcRKS3_
.LEHE20:
        .loc 7 220 32 is_stmt 0 discriminator 2
        lea     rax, [rbp-209]
        mov     rdi, rax
        call    _ZNSaIcEC1Ev
        lea     rdx, [rbp-209]
        lea     rax, [rbp-256]
        mov     esi, OFFSET FLAT:.LC2
        mov     rdi, rax
.LEHB21:
        call    _ZNSt7__cxx1112basic_stringIcSt11char_traitsIcESaIcEEC1IS3_EEPKcRKS3_
.LEHE21:
        .loc 7 220 32 discriminator 4
        lea     rax, [rbp-161]
        mov     rdi, rax
        call    _ZNSaIcEC1Ev
        lea     rdx, [rbp-161]
        lea     rax, [rbp-208]
        mov     esi, OFFSET FLAT:.LC2
        mov     rdi, rax
.LEHB22:
        call    _ZNSt7__cxx1112basic_stringIcSt11char_traitsIcESaIcEEC1IS3_EEPKcRKS3_
.LEHE22:
        .loc 7 220 32 discriminator 6
        lea     rax, [rbp-113]
        mov     rdi, rax
        call    _ZNSaIcEC1Ev
        lea     rdx, [rbp-113]
        lea     rax, [rbp-160]
        mov     esi, OFFSET FLAT:.LC2
        mov     rdi, rax
.LEHB23:
        call    _ZNSt7__cxx1112basic_stringIcSt11char_traitsIcESaIcEEC1IS3_EEPKcRKS3_
.LEHE23:
        .loc 7 220 32 discriminator 8
        lea     rax, [rbp-65]
        mov     rdi, rax
        call    _ZNSaIcEC1Ev
        lea     rdx, [rbp-65]
        lea     rax, [rbp-112]
        mov     esi, OFFSET FLAT:.LC8
        mov     rdi, rax
.LEHB24:
        call    _ZNSt7__cxx1112basic_stringIcSt11char_traitsIcESaIcEEC1IS3_EEPKcRKS3_
.LEHE24:
        .loc 7 220 32 discriminator 10
        lea     rax, [rbp-17]
        mov     rdi, rax
        call    _ZNSaIcEC1Ev
        lea     rdx, [rbp-17]
        lea     rax, [rbp-64]
        mov     esi, OFFSET FLAT:.LC9
        mov     rdi, rax
.LEHB25:
        call    _ZNSt7__cxx1112basic_stringIcSt11char_traitsIcESaIcEEC1IS3_EEPKcRKS3_
.LEHE25:
        .loc 7 220 32 discriminator 12
        lea     rdi, [rbp-160]
        lea     rsi, [rbp-112]
        lea     rdx, [rbp-64]
        lea     rax, [rbp-544]
        sub     rsp, 8
        lea     rcx, [rbp-304]
        push    rcx
        lea     rcx, [rbp-256]
        push    rcx
        lea     rcx, [rbp-208]
        push    rcx
        mov     r9, rdi
        mov     r8, rsi
        mov     rcx, rdx
        mov     edx, 0
        mov     esi, -1
        mov     rdi, rax
.LEHB26:
        .cfi_escape 0x2e,0x20
        call    _ZN5Eigen8IOFormatC1EiiRKNSt7__cxx1112basic_stringIcSt11char_traitsIcESaIcEEES8_S8_S8_S8_S8_
.LEHE26:
        add     rsp, 32
        mov     rax, QWORD PTR [rbp-560]
        mov     rdi, rax
.LEHB27:
        .cfi_escape 0x2e,0
        call    _ZNK5Eigen9DenseBaseINS_6MatrixIdLin1ELin1ELi0ELin1ELin1EEEE4evalEv
        .loc 7 220 32 discriminator 14
        mov     rcx, rax
        lea     rdx, [rbp-544]
        mov     rax, QWORD PTR [rbp-552]
        mov     rsi, rcx
        mov     rdi, rax
        call    _ZN5Eigen8internal12print_matrixINS_6MatrixIdLin1ELin1ELi0ELin1ELin1EEEEERSoS4_RKT_RKNS_8IOFormatE
.LEHE27:
        .loc 7 220 32 discriminator 16
        mov     rbx, rax
        .loc 7 220 69 is_stmt 1 discriminator 16
        nop
        .loc 7 220 32 discriminator 16
        lea     rax, [rbp-544]
        mov     rdi, rax
        call    _ZN5Eigen8IOFormatD1Ev
        lea     rax, [rbp-64]
        mov     rdi, rax
        call    _ZNSt7__cxx1112basic_stringIcSt11char_traitsIcESaIcEED1Ev
        lea     rax, [rbp-17]
        mov     rdi, rax
        call    _ZNSaIcED1Ev
        lea     rax, [rbp-112]
        mov     rdi, rax
        call    _ZNSt7__cxx1112basic_stringIcSt11char_traitsIcESaIcEED1Ev
        lea     rax, [rbp-65]
        mov     rdi, rax
        call    _ZNSaIcED1Ev
        lea     rax, [rbp-160]
        mov     rdi, rax
        call    _ZNSt7__cxx1112basic_stringIcSt11char_traitsIcESaIcEED1Ev
        lea     rax, [rbp-113]
        mov     rdi, rax
        call    _ZNSaIcED1Ev
        lea     rax, [rbp-208]
        mov     rdi, rax
        call    _ZNSt7__cxx1112basic_stringIcSt11char_traitsIcESaIcEED1Ev
        lea     rax, [rbp-161]
        mov     rdi, rax
        call    _ZNSaIcED1Ev
        lea     rax, [rbp-256]
        mov     rdi, rax
        call    _ZNSt7__cxx1112basic_stringIcSt11char_traitsIcESaIcEED1Ev
        lea     rax, [rbp-209]
        mov     rdi, rax
        call    _ZNSaIcED1Ev
        lea     rax, [rbp-304]
        mov     rdi, rax
        call    _ZNSt7__cxx1112basic_stringIcSt11char_traitsIcESaIcEED1Ev
        lea     rax, [rbp-257]
        mov     rdi, rax
        call    _ZNSaIcED1Ev
        .loc 7 220 69 discriminator 16
        mov     rax, rbx
        jmp     .L108
.L107:
        mov     rbx, rax
        .loc 7 220 32
        lea     rax, [rbp-544]
        mov     rdi, rax
        call    _ZN5Eigen8IOFormatD1Ev
        jmp     .L93
.L106:
        mov     rbx, rax
.L93:
        .loc 7 220 32 is_stmt 0 discriminator 13
        lea     rax, [rbp-64]
        mov     rdi, rax
        call    _ZNSt7__cxx1112basic_stringIcSt11char_traitsIcESaIcEED1Ev
        jmp     .L94
.L105:
        mov     rbx, rax
.L94:
        .loc 7 220 32 discriminator 11
        lea     rax, [rbp-17]
        mov     rdi, rax
        call    _ZNSaIcED1Ev
        lea     rax, [rbp-112]
        mov     rdi, rax
        call    _ZNSt7__cxx1112basic_stringIcSt11char_traitsIcESaIcEED1Ev
        jmp     .L95
.L104:
        mov     rbx, rax
.L95:
        .loc 7 220 32 discriminator 9
        lea     rax, [rbp-65]
        mov     rdi, rax
        call    _ZNSaIcED1Ev
        lea     rax, [rbp-160]
        mov     rdi, rax
        call    _ZNSt7__cxx1112basic_stringIcSt11char_traitsIcESaIcEED1Ev
        jmp     .L96
.L103:
        mov     rbx, rax
.L96:
        .loc 7 220 32 discriminator 7
        lea     rax, [rbp-113]
        mov     rdi, rax
        call    _ZNSaIcED1Ev
        lea     rax, [rbp-208]
        mov     rdi, rax
        call    _ZNSt7__cxx1112basic_stringIcSt11char_traitsIcESaIcEED1Ev
        jmp     .L97
.L102:
        mov     rbx, rax
.L97:
        .loc 7 220 32 discriminator 5
        lea     rax, [rbp-161]
        mov     rdi, rax
        call    _ZNSaIcED1Ev
        lea     rax, [rbp-256]
        mov     rdi, rax
        call    _ZNSt7__cxx1112basic_stringIcSt11char_traitsIcESaIcEED1Ev
        jmp     .L98
.L101:
        mov     rbx, rax
.L98:
        .loc 7 220 32 discriminator 3
        lea     rax, [rbp-209]
        mov     rdi, rax
        call    _ZNSaIcED1Ev
        lea     rax, [rbp-304]
        mov     rdi, rax
        call    _ZNSt7__cxx1112basic_stringIcSt11char_traitsIcESaIcEED1Ev
        jmp     .L99
.L100:
        mov     rbx, rax
.L99:
        .loc 7 220 32 discriminator 1
        lea     rax, [rbp-257]
        mov     rdi, rax
        call    _ZNSaIcED1Ev
        mov     rax, rbx
        mov     rdi, rax
.LEHB28:
        call    _Unwind_Resume
.LEHE28:
.L108:
        .loc 7 221 1 is_stmt 1
        mov     rbx, QWORD PTR [rbp-8]
        leave
        .cfi_def_cfa 7, 8
        ret
        .cfi_endproc
.LFE8839:
        .section        .gcc_except_table
.LLSDA8839:
        .byte   0xff
        .byte   0xff
        .byte   0x1
        .uleb128 .LLSDACSE8839-.LLSDACSB8839
.LLSDACSB8839:
        .uleb128 .LEHB20-.LFB8839
        .uleb128 .LEHE20-.LEHB20
        .uleb128 .L100-.LFB8839
        .uleb128 0
        .uleb128 .LEHB21-.LFB8839
        .uleb128 .LEHE21-.LEHB21
        .uleb128 .L101-.LFB8839
        .uleb128 0
        .uleb128 .LEHB22-.LFB8839
        .uleb128 .LEHE22-.LEHB22
        .uleb128 .L102-.LFB8839
        .uleb128 0
        .uleb128 .LEHB23-.LFB8839
        .uleb128 .LEHE23-.LEHB23
        .uleb128 .L103-.LFB8839
        .uleb128 0
        .uleb128 .LEHB24-.LFB8839
        .uleb128 .LEHE24-.LEHB24
        .uleb128 .L104-.LFB8839
        .uleb128 0
        .uleb128 .LEHB25-.LFB8839
        .uleb128 .LEHE25-.LEHB25
        .uleb128 .L105-.LFB8839
        .uleb128 0
        .uleb128 .LEHB26-.LFB8839
        .uleb128 .LEHE26-.LEHB26
        .uleb128 .L106-.LFB8839
        .uleb128 0
        .uleb128 .LEHB27-.LFB8839
        .uleb128 .LEHE27-.LEHB27
        .uleb128 .L107-.LFB8839
        .uleb128 0
        .uleb128 .LEHB28-.LFB8839
        .uleb128 .LEHE28-.LEHB28
        .uleb128 0
        .uleb128 0
.LLSDACSE8839:
        .section        .text._ZN5EigenlsINS_6MatrixIdLin1ELin1ELi0ELin1ELin1EEEEERSoS3_RKNS_9DenseBaseIT_EE,"axG",@progbits,_ZN5EigenlsINS_6MatrixIdLin1ELin1ELi0ELin1ELin1EEEEERSoS3_RKNS_9DenseBaseIT_EE,comdat
        .size   _ZN5EigenlsINS_6MatrixIdLin1ELin1ELi0ELin1ELin1EEEEERSoS3_RKNS_9DenseBaseIT_EE, .-_ZN5EigenlsINS_6MatrixIdLin1ELin1ELi0ELin1ELin1EEEEERSoS3_RKNS_9DenseBaseIT_EE
        .section        .text._ZNKSt7__cxx1112basic_stringIcSt11char_traitsIcESaIcEE7_M_dataEv,"axG",@progbits,_ZNKSt7__cxx1112basic_stringIcSt11char_traitsIcESaIcEE7_M_dataEv,comdat
        .align 2
        .weak   _ZNKSt7__cxx1112basic_stringIcSt11char_traitsIcESaIcEE7_M_dataEv
        .type   _ZNKSt7__cxx1112basic_stringIcSt11char_traitsIcESaIcEE7_M_dataEv, @function
_ZNKSt7__cxx1112basic_stringIcSt11char_traitsIcESaIcEE7_M_dataEv:
.LFB8845:
        .loc 11 175 7
        .cfi_startproc
        push    rbp
        .cfi_def_cfa_offset 16
        .cfi_offset 6, -16
        mov     rbp, rsp
        .cfi_def_cfa_register 6
        mov     QWORD PTR [rbp-8], rdi
        .loc 11 176 28
        mov     rax, QWORD PTR [rbp-8]
        mov     rax, QWORD PTR [rax]
        .loc 11 176 34
        pop     rbp
        .cfi_def_cfa 7, 8
        ret
        .cfi_endproc
.LFE8845:
        .size   _ZNKSt7__cxx1112basic_stringIcSt11char_traitsIcESaIcEE7_M_dataEv, .-_ZNKSt7__cxx1112basic_stringIcSt11char_traitsIcESaIcEE7_M_dataEv
        .section        .text._ZNSt7__cxx1112basic_stringIcSt11char_traitsIcESaIcEE10_M_disposeEv,"axG",@progbits,_ZNSt7__cxx1112basic_stringIcSt11char_traitsIcESaIcEE10_M_disposeEv,comdat
        .align 2
        .weak   _ZNSt7__cxx1112basic_stringIcSt11char_traitsIcESaIcEE10_M_disposeEv
        .type   _ZNSt7__cxx1112basic_stringIcSt11char_traitsIcESaIcEE10_M_disposeEv, @function
_ZNSt7__cxx1112basic_stringIcSt11char_traitsIcESaIcEE10_M_disposeEv:
.LFB8849:
        .loc 11 218 7
        .cfi_startproc
        push    rbp
        .cfi_def_cfa_offset 16
        .cfi_offset 6, -16
        mov     rbp, rsp
        .cfi_def_cfa_register 6
        sub     rsp, 16
        mov     QWORD PTR [rbp-8], rdi
        .loc 11 220 6
        mov     rax, QWORD PTR [rbp-8]
        mov     rdi, rax
        call    _ZNKSt7__cxx1112basic_stringIcSt11char_traitsIcESaIcEE11_M_is_localEv
        xor     eax, 1
        .loc 11 220 2
        test    al, al
        je      .L113
        .loc 11 221 4
        mov     rax, QWORD PTR [rbp-8]
        mov     rdx, QWORD PTR [rax+16]
        mov     rax, QWORD PTR [rbp-8]
        mov     rsi, rdx
        mov     rdi, rax
        call    _ZNSt7__cxx1112basic_stringIcSt11char_traitsIcESaIcEE10_M_destroyEm
.L113:
        .loc 11 222 7
        nop
        leave
        .cfi_def_cfa 7, 8
        ret
        .cfi_endproc
.LFE8849:
        .size   _ZNSt7__cxx1112basic_stringIcSt11char_traitsIcESaIcEE10_M_disposeEv, .-_ZNSt7__cxx1112basic_stringIcSt11char_traitsIcESaIcEE10_M_disposeEv
        .section        .text._ZNSt7__cxx1112basic_stringIcSt11char_traitsIcESaIcEE13_M_local_dataEv,"axG",@progbits,_ZNSt7__cxx1112basic_stringIcSt11char_traitsIcESaIcEE13_M_local_dataEv,comdat
        .align 2
        .weak   _ZNSt7__cxx1112basic_stringIcSt11char_traitsIcESaIcEE13_M_local_dataEv
        .type   _ZNSt7__cxx1112basic_stringIcSt11char_traitsIcESaIcEE13_M_local_dataEv, @function
_ZNSt7__cxx1112basic_stringIcSt11char_traitsIcESaIcEE13_M_local_dataEv:
.LFB8863:
        .loc 11 179 7
        .cfi_startproc
        push    rbp
        .cfi_def_cfa_offset 16
        .cfi_offset 6, -16
        mov     rbp, rsp
        .cfi_def_cfa_register 6
        sub     rsp, 16
        mov     QWORD PTR [rbp-8], rdi
        .loc 11 182 51
        mov     rax, QWORD PTR [rbp-8]
        add     rax, 16
        .loc 11 182 49
        mov     rdi, rax
        call    _ZNSt14pointer_traitsIPcE10pointer_toERc
        .loc 11 186 7
        leave
        .cfi_def_cfa 7, 8
        ret
        .cfi_endproc
.LFE8863:
        .size   _ZNSt7__cxx1112basic_stringIcSt11char_traitsIcESaIcEE13_M_local_dataEv, .-_ZNSt7__cxx1112basic_stringIcSt11char_traitsIcESaIcEE13_M_local_dataEv
        .section        .text._ZNSt7__cxx1112basic_stringIcSt11char_traitsIcESaIcEE12_Alloc_hiderC2EPcRKS3_,"axG",@progbits,_ZNSt7__cxx1112basic_stringIcSt11char_traitsIcESaIcEE12_Alloc_hiderC5EPcRKS3_,comdat
        .align 2
        .weak   _ZNSt7__cxx1112basic_stringIcSt11char_traitsIcESaIcEE12_Alloc_hiderC2EPcRKS3_
        .type   _ZNSt7__cxx1112basic_stringIcSt11char_traitsIcESaIcEE12_Alloc_hiderC2EPcRKS3_, @function
_ZNSt7__cxx1112basic_stringIcSt11char_traitsIcESaIcEE12_Alloc_hiderC2EPcRKS3_:
.LFB8865:
        .loc 11 145 2
        .cfi_startproc
        push    rbp
        .cfi_def_cfa_offset 16
        .cfi_offset 6, -16
        mov     rbp, rsp
        .cfi_def_cfa_register 6
        sub     rsp, 32
        mov     QWORD PTR [rbp-8], rdi
        mov     QWORD PTR [rbp-16], rsi
        mov     QWORD PTR [rbp-24], rdx
.LBB27:
        .loc 11 146 35
        mov     rdx, QWORD PTR [rbp-24]
        mov     rax, QWORD PTR [rbp-8]
        mov     rsi, rdx
        mov     rdi, rax
        call    _ZNSaIcEC2ERKS_
        mov     rax, QWORD PTR [rbp-8]
        mov     rdx, QWORD PTR [rbp-16]
        mov     QWORD PTR [rax], rdx
.LBE27:
        .loc 11 146 39
        nop
        leave
        .cfi_def_cfa 7, 8
        ret
        .cfi_endproc
.LFE8865:
        .size   _ZNSt7__cxx1112basic_stringIcSt11char_traitsIcESaIcEE12_Alloc_hiderC2EPcRKS3_, .-_ZNSt7__cxx1112basic_stringIcSt11char_traitsIcESaIcEE12_Alloc_hiderC2EPcRKS3_
        .weak   _ZNSt7__cxx1112basic_stringIcSt11char_traitsIcESaIcEE12_Alloc_hiderC1EPcRKS3_
        .set    _ZNSt7__cxx1112basic_stringIcSt11char_traitsIcESaIcEE12_Alloc_hiderC1EPcRKS3_,_ZNSt7__cxx1112basic_stringIcSt11char_traitsIcESaIcEE12_Alloc_hiderC2EPcRKS3_
        .section        .text._ZNSt7__cxx1112basic_stringIcSt11char_traitsIcESaIcEE12_M_constructIPKcEEvT_S8_,"axG",@progbits,_ZNSt7__cxx1112basic_stringIcSt11char_traitsIcESaIcEE12_M_constructIPKcEEvT_S8_,comdat
        .align 2
        .weak   _ZNSt7__cxx1112basic_stringIcSt11char_traitsIcESaIcEE12_M_constructIPKcEEvT_S8_
        .type   _ZNSt7__cxx1112basic_stringIcSt11char_traitsIcESaIcEE12_M_constructIPKcEEvT_S8_, @function
_ZNSt7__cxx1112basic_stringIcSt11char_traitsIcESaIcEE12_M_constructIPKcEEvT_S8_:
.LFB8867:
        .loc 11 252 9
        .cfi_startproc
        push    rbp
        .cfi_def_cfa_offset 16
        .cfi_offset 6, -16
        mov     rbp, rsp
        .cfi_def_cfa_register 6
        sub     rsp, 32
        mov     QWORD PTR [rbp-8], rdi
        mov     QWORD PTR [rbp-16], rsi
        mov     QWORD PTR [rbp-24], rdx
        .loc 11 255 4
        mov     rdx, QWORD PTR [rbp-24]
        mov     rcx, QWORD PTR [rbp-16]
        mov     rax, QWORD PTR [rbp-8]
        mov     rsi, rcx
        mov     rdi, rax
        call    _ZNSt7__cxx1112basic_stringIcSt11char_traitsIcESaIcEE16_M_construct_auxIPKcEEvT_S8_St12__false_type
        .loc 11 256 9
        nop
        leave
        .cfi_def_cfa 7, 8
        ret
        .cfi_endproc
.LFE8867:
        .size   _ZNSt7__cxx1112basic_stringIcSt11char_traitsIcESaIcEE12_M_constructIPKcEEvT_S8_, .-_ZNSt7__cxx1112basic_stringIcSt11char_traitsIcESaIcEE12_M_constructIPKcEEvT_S8_
        .section        .text._ZNKSt7__cxx1112basic_stringIcSt11char_traitsIcESaIcEE4sizeEv,"axG",@progbits,_ZNKSt7__cxx1112basic_stringIcSt11char_traitsIcESaIcEE4sizeEv,comdat
        .align 2
        .weak   _ZNKSt7__cxx1112basic_stringIcSt11char_traitsIcESaIcEE4sizeEv
        .type   _ZNKSt7__cxx1112basic_stringIcSt11char_traitsIcESaIcEE4sizeEv, @function
_ZNKSt7__cxx1112basic_stringIcSt11char_traitsIcESaIcEE4sizeEv:
.LFB8907:
        .loc 11 930 7
        .cfi_startproc
        push    rbp
        .cfi_def_cfa_offset 16
        .cfi_offset 6, -16
        mov     rbp, rsp
        .cfi_def_cfa_register 6
        mov     QWORD PTR [rbp-8], rdi
        .loc 11 931 16
        mov     rax, QWORD PTR [rbp-8]
        mov     rax, QWORD PTR [rax+8]
        .loc 11 931 34
        pop     rbp
        .cfi_def_cfa 7, 8
        ret
        .cfi_endproc
.LFE8907:
        .size   _ZNKSt7__cxx1112basic_stringIcSt11char_traitsIcESaIcEE4sizeEv, .-_ZNKSt7__cxx1112basic_stringIcSt11char_traitsIcESaIcEE4sizeEv
        .section        .text._ZNKSt7__cxx1112basic_stringIcSt11char_traitsIcESaIcEE8capacityEv,"axG",@progbits,_ZNKSt7__cxx1112basic_stringIcSt11char_traitsIcESaIcEE8capacityEv,comdat
        .align 2
        .weak   _ZNKSt7__cxx1112basic_stringIcSt11char_traitsIcESaIcEE8capacityEv
        .type   _ZNKSt7__cxx1112basic_stringIcSt11char_traitsIcESaIcEE8capacityEv, @function
_ZNKSt7__cxx1112basic_stringIcSt11char_traitsIcESaIcEE8capacityEv:
.LFB8908:
        .loc 11 993 7
        .cfi_startproc
        .cfi_personality 0x3,__gxx_personality_v0
        .cfi_lsda 0x3,.LLSDA8908
        push    rbp
        .cfi_def_cfa_offset 16
        .cfi_offset 6, -16
        mov     rbp, rsp
        .cfi_def_cfa_register 6
        sub     rsp, 16
        mov     QWORD PTR [rbp-8], rdi
        .loc 11 995 23
        mov     rax, QWORD PTR [rbp-8]
        mov     rdi, rax
        call    _ZNKSt7__cxx1112basic_stringIcSt11char_traitsIcESaIcEE11_M_is_localEv
        test    al, al
        je      .L121
        .loc 11 995 23 is_stmt 0 discriminator 1
        mov     eax, 15
        .loc 11 996 25 is_stmt 1 discriminator 1
        jmp     .L123
.L121:
        .loc 11 995 23 discriminator 2
        mov     rax, QWORD PTR [rbp-8]
        mov     rax, QWORD PTR [rax+16]
.L123:
        .loc 11 997 7 discriminator 1
        leave
        .cfi_def_cfa 7, 8
        ret
        .cfi_endproc
.LFE8908:
        .section        .gcc_except_table
.LLSDA8908:
        .byte   0xff
        .byte   0xff
        .byte   0x1
        .uleb128 .LLSDACSE8908-.LLSDACSB8908
.LLSDACSB8908:
.LLSDACSE8908:
        .section        .text._ZNKSt7__cxx1112basic_stringIcSt11char_traitsIcESaIcEE8capacityEv,"axG",@progbits,_ZNKSt7__cxx1112basic_stringIcSt11char_traitsIcESaIcEE8capacityEv,comdat
        .size   _ZNKSt7__cxx1112basic_stringIcSt11char_traitsIcESaIcEE8capacityEv, .-_ZNKSt7__cxx1112basic_stringIcSt11char_traitsIcESaIcEE8capacityEv
        .section        .text._ZN9__gnu_cxx14__alloc_traitsISaIcEcE17_S_select_on_copyERKS1_,"axG",@progbits,_ZN9__gnu_cxx14__alloc_traitsISaIcEcE17_S_select_on_copyERKS1_,comdat
        .weak   _ZN9__gnu_cxx14__alloc_traitsISaIcEcE17_S_select_on_copyERKS1_
        .type   _ZN9__gnu_cxx14__alloc_traitsISaIcEcE17_S_select_on_copyERKS1_, @function
_ZN9__gnu_cxx14__alloc_traitsISaIcEcE17_S_select_on_copyERKS1_:
.LFB8971:
        .file 14 "/opt/compiler-explorer/gcc-8.3.0/include/c++/8.3.0/ext/alloc_traits.h"
        .loc 14 94 19
        .cfi_startproc
        push    rbp
        .cfi_def_cfa_offset 16
        .cfi_offset 6, -16
        mov     rbp, rsp
        .cfi_def_cfa_register 6
        sub     rsp, 16
        mov     QWORD PTR [rbp-8], rdi
        mov     QWORD PTR [rbp-16], rsi
        .loc 14 95 67
        mov     rax, QWORD PTR [rbp-8]
        mov     rdx, QWORD PTR [rbp-16]
        mov     rsi, rdx
        mov     rdi, rax
        call    _ZNSt16allocator_traitsISaIcEE37select_on_container_copy_constructionERKS0_
        .loc 14 95 70
        mov     rax, QWORD PTR [rbp-8]
        leave
        .cfi_def_cfa 7, 8
        ret
        .cfi_endproc
.LFE8971:
        .size   _ZN9__gnu_cxx14__alloc_traitsISaIcEcE17_S_select_on_copyERKS1_, .-_ZN9__gnu_cxx14__alloc_traitsISaIcEcE17_S_select_on_copyERKS1_
        .section        .text._ZNKSt7__cxx1112basic_stringIcSt11char_traitsIcESaIcEE16_M_get_allocatorEv,"axG",@progbits,_ZNKSt7__cxx1112basic_stringIcSt11char_traitsIcESaIcEE16_M_get_allocatorEv,comdat
        .align 2
        .weak   _ZNKSt7__cxx1112basic_stringIcSt11char_traitsIcESaIcEE16_M_get_allocatorEv
        .type   _ZNKSt7__cxx1112basic_stringIcSt11char_traitsIcESaIcEE16_M_get_allocatorEv, @function
_ZNKSt7__cxx1112basic_stringIcSt11char_traitsIcESaIcEE16_M_get_allocatorEv:
.LFB8972:
        .loc 11 279 7
        .cfi_startproc
        push    rbp
        .cfi_def_cfa_offset 16
        .cfi_offset 6, -16
        mov     rbp, rsp
        .cfi_def_cfa_register 6
        mov     QWORD PTR [rbp-8], rdi
        .loc 11 280 16
        mov     rax, QWORD PTR [rbp-8]
        .loc 11 280 29
        pop     rbp
        .cfi_def_cfa 7, 8
        ret
        .cfi_endproc
.LFE8972:
        .size   _ZNKSt7__cxx1112basic_stringIcSt11char_traitsIcESaIcEE16_M_get_allocatorEv, .-_ZNKSt7__cxx1112basic_stringIcSt11char_traitsIcESaIcEE16_M_get_allocatorEv
        .section        .text._ZNSt7__cxx1112basic_stringIcSt11char_traitsIcESaIcEE12_Alloc_hiderC2EPcOS3_,"axG",@progbits,_ZNSt7__cxx1112basic_stringIcSt11char_traitsIcESaIcEE12_Alloc_hiderC5EPcOS3_,comdat
        .align 2
        .weak   _ZNSt7__cxx1112basic_stringIcSt11char_traitsIcESaIcEE12_Alloc_hiderC2EPcOS3_
        .type   _ZNSt7__cxx1112basic_stringIcSt11char_traitsIcESaIcEE12_Alloc_hiderC2EPcOS3_, @function
_ZNSt7__cxx1112basic_stringIcSt11char_traitsIcESaIcEE12_Alloc_hiderC2EPcOS3_:
.LFB8974:
        .loc 11 148 2
        .cfi_startproc
        push    rbp
        .cfi_def_cfa_offset 16
        .cfi_offset 6, -16
        mov     rbp, rsp
        .cfi_def_cfa_register 6
        sub     rsp, 32
        mov     QWORD PTR [rbp-8], rdi
        mov     QWORD PTR [rbp-16], rsi
        mov     QWORD PTR [rbp-24], rdx
.LBB28:
        .loc 11 149 28
        mov     rax, QWORD PTR [rbp-24]
        mov     rdi, rax
        call    _ZSt4moveIRSaIcEEONSt16remove_referenceIT_E4typeEOS3_
        mov     rdx, rax
        .loc 11 149 46
        mov     rax, QWORD PTR [rbp-8]
        mov     rsi, rdx
        mov     rdi, rax
        call    _ZNSaIcEC2ERKS_
        mov     rax, QWORD PTR [rbp-8]
        mov     rdx, QWORD PTR [rbp-16]
        mov     QWORD PTR [rax], rdx
.LBE28:
        .loc 11 149 50
        nop
        leave
        .cfi_def_cfa 7, 8
        ret
        .cfi_endproc
.LFE8974:
        .size   _ZNSt7__cxx1112basic_stringIcSt11char_traitsIcESaIcEE12_Alloc_hiderC2EPcOS3_, .-_ZNSt7__cxx1112basic_stringIcSt11char_traitsIcESaIcEE12_Alloc_hiderC2EPcOS3_
        .weak   _ZNSt7__cxx1112basic_stringIcSt11char_traitsIcESaIcEE12_Alloc_hiderC1EPcOS3_
        .set    _ZNSt7__cxx1112basic_stringIcSt11char_traitsIcESaIcEE12_Alloc_hiderC1EPcOS3_,_ZNSt7__cxx1112basic_stringIcSt11char_traitsIcESaIcEE12_Alloc_hiderC2EPcOS3_
        .section        .text._ZNSt7__cxx1112basic_stringIcSt11char_traitsIcESaIcEE12_M_constructIPcEEvT_S7_,"axG",@progbits,_ZNSt7__cxx1112basic_stringIcSt11char_traitsIcESaIcEE12_M_constructIPcEEvT_S7_,comdat
        .align 2
        .weak   _ZNSt7__cxx1112basic_stringIcSt11char_traitsIcESaIcEE12_M_constructIPcEEvT_S7_
        .type   _ZNSt7__cxx1112basic_stringIcSt11char_traitsIcESaIcEE12_M_constructIPcEEvT_S7_, @function
_ZNSt7__cxx1112basic_stringIcSt11char_traitsIcESaIcEE12_M_constructIPcEEvT_S7_:
.LFB8976:
        .loc 11 252 9
        .cfi_startproc
        push    rbp
        .cfi_def_cfa_offset 16
        .cfi_offset 6, -16
        mov     rbp, rsp
        .cfi_def_cfa_register 6
        sub     rsp, 32
        mov     QWORD PTR [rbp-8], rdi
        mov     QWORD PTR [rbp-16], rsi
        mov     QWORD PTR [rbp-24], rdx
        .loc 11 255 4
        mov     rdx, QWORD PTR [rbp-24]
        mov     rcx, QWORD PTR [rbp-16]
        mov     rax, QWORD PTR [rbp-8]
        mov     rsi, rcx
        mov     rdi, rax
        call    _ZNSt7__cxx1112basic_stringIcSt11char_traitsIcESaIcEE16_M_construct_auxIPcEEvT_S7_St12__false_type
        .loc 11 256 9
        nop
        leave
        .cfi_def_cfa 7, 8
        ret
        .cfi_endproc
.LFE8976:
        .size   _ZNSt7__cxx1112basic_stringIcSt11char_traitsIcESaIcEE12_M_constructIPcEEvT_S7_, .-_ZNSt7__cxx1112basic_stringIcSt11char_traitsIcESaIcEE12_M_constructIPcEEvT_S7_
        .section        .text._ZNSt7__cxx1112basic_stringIcSt11char_traitsIcESaIcEE9push_backEc,"axG",@progbits,_ZNSt7__cxx1112basic_stringIcSt11char_traitsIcESaIcEE9push_backEc,comdat
        .align 2
        .weak   _ZNSt7__cxx1112basic_stringIcSt11char_traitsIcESaIcEE9push_backEc
        .type   _ZNSt7__cxx1112basic_stringIcSt11char_traitsIcESaIcEE9push_backEc, @function
_ZNSt7__cxx1112basic_stringIcSt11char_traitsIcESaIcEE9push_backEc:
.LFB8977:
        .loc 11 1349 7
        .cfi_startproc
        push    rbp
        .cfi_def_cfa_offset 16
        .cfi_offset 6, -16
        mov     rbp, rsp
        .cfi_def_cfa_register 6
        push    rbx
        sub     rsp, 40
        .cfi_offset 3, -24
        mov     QWORD PTR [rbp-40], rdi
        mov     eax, esi
        mov     BYTE PTR [rbp-44], al
        .loc 11 1351 18
        mov     rax, QWORD PTR [rbp-40]
        mov     rdi, rax
        call    _ZNKSt7__cxx1112basic_stringIcSt11char_traitsIcESaIcEE4sizeEv
        mov     QWORD PTR [rbp-24], rax
        .loc 11 1352 13
        mov     rax, QWORD PTR [rbp-24]
        lea     rbx, [rax+1]
        .loc 11 1352 17
        mov     rax, QWORD PTR [rbp-40]
        mov     rdi, rax
        call    _ZNKSt7__cxx1112basic_stringIcSt11char_traitsIcESaIcEE8capacityEv
        cmp     rbx, rax
        seta    al
        .loc 11 1352 2
        test    al, al
        je      .L131
        .loc 11 1353 4
        mov     rsi, QWORD PTR [rbp-24]
        mov     rax, QWORD PTR [rbp-40]
        mov     r8d, 1
        mov     ecx, 0
        mov     edx, 0
        mov     rdi, rax
        call    _ZNSt7__cxx1112basic_stringIcSt11char_traitsIcESaIcEE9_M_mutateEmmPKcm
.L131:
        .loc 11 1354 37
        mov     rax, QWORD PTR [rbp-40]
        mov     rdi, rax
        call    _ZNKSt7__cxx1112basic_stringIcSt11char_traitsIcESaIcEE7_M_dataEv
        mov     rdx, rax
        mov     rax, QWORD PTR [rbp-24]
        add     rdx, rax
        .loc 11 1354 21
        lea     rax, [rbp-44]
        mov     rsi, rax
        mov     rdi, rdx
        call    _ZNSt11char_traitsIcE6assignERcRKc
        .loc 11 1355 2
        mov     rax, QWORD PTR [rbp-24]
        lea     rdx, [rax+1]
        mov     rax, QWORD PTR [rbp-40]
        mov     rsi, rdx
        mov     rdi, rax
        call    _ZNSt7__cxx1112basic_stringIcSt11char_traitsIcESaIcEE13_M_set_lengthEm
        .loc 11 1356 7
        nop
        add     rsp, 40
        pop     rbx
        pop     rbp
        .cfi_def_cfa 7, 8
        ret
        .cfi_endproc
.LFE8977:
        .size   _ZNSt7__cxx1112basic_stringIcSt11char_traitsIcESaIcEE9push_backEc, .-_ZNSt7__cxx1112basic_stringIcSt11char_traitsIcESaIcEE9push_backEc
        .section        .text._ZN5Eigen15PlainObjectBaseINS_6MatrixIdLin1ELin1ELi0ELin1ELin1EEEEC2Ev,"axG",@progbits,_ZN5Eigen15PlainObjectBaseINS_6MatrixIdLin1ELin1ELi0ELin1ELin1EEEEC5Ev,comdat
        .align 2
        .weak   _ZN5Eigen15PlainObjectBaseINS_6MatrixIdLin1ELin1ELi0ELin1ELin1EEEEC2Ev
        .type   _ZN5Eigen15PlainObjectBaseINS_6MatrixIdLin1ELin1ELi0ELin1ELin1EEEEC2Ev, @function
_ZN5Eigen15PlainObjectBaseINS_6MatrixIdLin1ELin1ELi0ELin1ELin1EEEEC2Ev:
.LFB8979:
        .loc 8 484 25
        .cfi_startproc
        push    rbp
        .cfi_def_cfa_offset 16
        .cfi_offset 6, -16
        mov     rbp, rsp
        .cfi_def_cfa_register 6
        sub     rsp, 16
        mov     QWORD PTR [rbp-8], rdi
.LBB29:
        .loc 8 484 55
        mov     rax, QWORD PTR [rbp-8]
        mov     rdi, rax
        call    _ZN5Eigen10MatrixBaseINS_6MatrixIdLin1ELin1ELi0ELin1ELin1EEEEC2Ev
        mov     rax, QWORD PTR [rbp-8]
        mov     rdi, rax
        call    _ZN5Eigen12DenseStorageIdLin1ELin1ELin1ELi0EEC1Ev
.LBE29:
        .loc 8 488 5
        nop
        leave
        .cfi_def_cfa 7, 8
        ret
        .cfi_endproc
.LFE8979:
        .size   _ZN5Eigen15PlainObjectBaseINS_6MatrixIdLin1ELin1ELi0ELin1ELin1EEEEC2Ev, .-_ZN5Eigen15PlainObjectBaseINS_6MatrixIdLin1ELin1ELi0ELin1ELin1EEEEC2Ev
        .weak   _ZN5Eigen15PlainObjectBaseINS_6MatrixIdLin1ELin1ELi0ELin1ELin1EEEEC1Ev
        .set    _ZN5Eigen15PlainObjectBaseINS_6MatrixIdLin1ELin1ELi0ELin1ELin1EEEEC1Ev,_ZN5Eigen15PlainObjectBaseINS_6MatrixIdLin1ELin1ELi0ELin1ELin1EEEEC2Ev
        .section        .text._ZN5Eigen15PlainObjectBaseINS_6MatrixIdLin1ELin1ELi0ELin1ELin1EEEE22_check_template_paramsEv,"axG",@progbits,_ZN5Eigen15PlainObjectBaseINS_6MatrixIdLin1ELin1ELi0ELin1ELin1EEEE22_check_template_paramsEv,comdat
        .weak   _ZN5Eigen15PlainObjectBaseINS_6MatrixIdLin1ELin1ELi0ELin1ELin1EEEE22_check_template_paramsEv
        .type   _ZN5Eigen15PlainObjectBaseINS_6MatrixIdLin1ELin1ELi0ELin1ELin1EEEE22_check_template_paramsEv, @function
_ZN5Eigen15PlainObjectBaseINS_6MatrixIdLin1ELin1ELi0ELin1ELin1EEEE22_check_template_paramsEv:
.LFB8981:
        .loc 8 897 37
        .cfi_startproc
        push    rbp
        .cfi_def_cfa_offset 16
        .cfi_offset 6, -16
        mov     rbp, rsp
        .cfi_def_cfa_register 6
        .loc 8 909 5
        nop
        pop     rbp
        .cfi_def_cfa 7, 8
        ret
        .cfi_endproc
.LFE8981:
        .size   _ZN5Eigen15PlainObjectBaseINS_6MatrixIdLin1ELin1ELi0ELin1ELin1EEEE22_check_template_paramsEv, .-_ZN5Eigen15PlainObjectBaseINS_6MatrixIdLin1ELin1ELi0ELin1ELin1EEEE22_check_template_paramsEv
        .section        .text._ZN5Eigen15PlainObjectBaseINS_6MatrixIdLin1ELin1ELi0ELin1ELin1EEEE6_init2IiiEEvllPNS_8internal9enable_ifILb1ET_E4typeE,"axG",@progbits,_ZN5Eigen15PlainObjectBaseINS_6MatrixIdLin1ELin1ELi0ELin1ELin1EEEE6_init2IiiEEvllPNS_8internal9enable_ifILb1ET_E4typeE,comdat
        .align 2
        .weak   _ZN5Eigen15PlainObjectBaseINS_6MatrixIdLin1ELin1ELi0ELin1ELin1EEEE6_init2IiiEEvllPNS_8internal9enable_ifILb1ET_E4typeE
        .type   _ZN5Eigen15PlainObjectBaseINS_6MatrixIdLin1ELin1ELi0ELin1ELin1EEEE6_init2IiiEEvllPNS_8internal9enable_ifILb1ET_E4typeE, @function
_ZN5Eigen15PlainObjectBaseINS_6MatrixIdLin1ELin1ELi0ELin1ELin1EEEE6_init2IiiEEvllPNS_8internal9enable_ifILb1ET_E4typeE:
.LFB8982:
        .loc 8 734 30
        .cfi_startproc
        push    rbp
        .cfi_def_cfa_offset 16
        .cfi_offset 6, -16
        mov     rbp, rsp
        .cfi_def_cfa_register 6
        sub     rsp, 32
        mov     QWORD PTR [rbp-8], rdi
        mov     QWORD PTR [rbp-16], rsi
        mov     QWORD PTR [rbp-24], rdx
        mov     QWORD PTR [rbp-32], rcx
        .loc 8 739 7
        mov     rdx, QWORD PTR [rbp-24]
        mov     rcx, QWORD PTR [rbp-16]
        mov     rax, QWORD PTR [rbp-8]
        mov     rsi, rcx
        mov     rdi, rax
        call    _ZN5Eigen15PlainObjectBaseINS_6MatrixIdLin1ELin1ELi0ELin1ELin1EEEE6resizeEll
        .loc 8 740 5
        nop
        leave
        .cfi_def_cfa 7, 8
        ret
        .cfi_endproc
.LFE8982:
        .size   _ZN5Eigen15PlainObjectBaseINS_6MatrixIdLin1ELin1ELi0ELin1ELin1EEEE6_init2IiiEEvllPNS_8internal9enable_ifILb1ET_E4typeE, .-_ZN5Eigen15PlainObjectBaseINS_6MatrixIdLin1ELin1ELi0ELin1ELin1EEEE6_init2IiiEEvllPNS_8internal9enable_ifILb1ET_E4typeE
        .section        .text._ZN5Eigen8internal31conditional_aligned_delete_autoIdLb1EEEvPT_m,"axG",@progbits,_ZN5Eigen8internal31conditional_aligned_delete_autoIdLb1EEEvPT_m,comdat
        .weak   _ZN5Eigen8internal31conditional_aligned_delete_autoIdLb1EEEvPT_m
        .type   _ZN5Eigen8internal31conditional_aligned_delete_autoIdLb1EEEvPT_m, @function
_ZN5Eigen8internal31conditional_aligned_delete_autoIdLb1EEEvPT_m:
.LFB8983:
        .loc 6 412 64
        .cfi_startproc
        push    rbp
        .cfi_def_cfa_offset 16
        .cfi_offset 6, -16
        mov     rbp, rsp
        .cfi_def_cfa_register 6
        sub     rsp, 16
        mov     QWORD PTR [rbp-8], rdi
        mov     QWORD PTR [rbp-16], rsi
        .loc 6 416 34
        mov     rax, QWORD PTR [rbp-8]
        mov     rdi, rax
        call    _ZN5Eigen8internal24conditional_aligned_freeILb1EEEvPv
        .loc 6 417 1
        nop
        leave
        .cfi_def_cfa 7, 8
        ret
        .cfi_endproc
.LFE8983:
        .size   _ZN5Eigen8internal31conditional_aligned_delete_autoIdLb1EEEvPT_m, .-_ZN5Eigen8internal31conditional_aligned_delete_autoIdLb1EEEvPT_m
        .section        .text._ZNK5Eigen9EigenBaseINS_6MatrixIdLin1ELin1ELi0ELin1ELin1EEEE4rowsEv,"axG",@progbits,_ZNK5Eigen9EigenBaseINS_6MatrixIdLin1ELin1ELi0ELin1ELin1EEEE4rowsEv,comdat
        .align 2
        .weak   _ZNK5Eigen9EigenBaseINS_6MatrixIdLin1ELin1ELi0ELin1ELin1EEEE4rowsEv
        .type   _ZNK5Eigen9EigenBaseINS_6MatrixIdLin1ELin1ELi0ELin1ELin1EEEE4rowsEv, @function
_ZNK5Eigen9EigenBaseINS_6MatrixIdLin1ELin1ELi0ELin1ELin1EEEE4rowsEv:
.LFB8984:
        .file 15 "/opt/compiler-explorer/libs/eigen/v3.3.4/Eigen/src/Core/EigenBase.h"
        .loc 15 59 16
        .cfi_startproc
        push    rbp
        .cfi_def_cfa_offset 16
        .cfi_offset 6, -16
        mov     rbp, rsp
        .cfi_def_cfa_register 6
        sub     rsp, 16
        mov     QWORD PTR [rbp-8], rdi
        .loc 15 59 48
        mov     rax, QWORD PTR [rbp-8]
        mov     rdi, rax
        call    _ZNK5Eigen9EigenBaseINS_6MatrixIdLin1ELin1ELi0ELin1ELin1EEEE7derivedEv
        .loc 15 59 53
        mov     rdi, rax
        call    _ZNK5Eigen15PlainObjectBaseINS_6MatrixIdLin1ELin1ELi0ELin1ELin1EEEE4rowsEv
        .loc 15 59 56
        leave
        .cfi_def_cfa 7, 8
        ret
        .cfi_endproc
.LFE8984:
        .size   _ZNK5Eigen9EigenBaseINS_6MatrixIdLin1ELin1ELi0ELin1ELin1EEEE4rowsEv, .-_ZNK5Eigen9EigenBaseINS_6MatrixIdLin1ELin1ELi0ELin1ELin1EEEE4rowsEv
        .section        .text._ZNK5Eigen9EigenBaseINS_6MatrixIdLin1ELin1ELi0ELin1ELin1EEEE4colsEv,"axG",@progbits,_ZNK5Eigen9EigenBaseINS_6MatrixIdLin1ELin1ELi0ELin1ELin1EEEE4colsEv,comdat
        .align 2
        .weak   _ZNK5Eigen9EigenBaseINS_6MatrixIdLin1ELin1ELi0ELin1ELin1EEEE4colsEv
        .type   _ZNK5Eigen9EigenBaseINS_6MatrixIdLin1ELin1ELi0ELin1ELin1EEEE4colsEv, @function
_ZNK5Eigen9EigenBaseINS_6MatrixIdLin1ELin1ELi0ELin1ELin1EEEE4colsEv:
.LFB8985:
        .loc 15 62 16
        .cfi_startproc
        push    rbp
        .cfi_def_cfa_offset 16
        .cfi_offset 6, -16
        mov     rbp, rsp
        .cfi_def_cfa_register 6
        sub     rsp, 16
        mov     QWORD PTR [rbp-8], rdi
        .loc 15 62 48
        mov     rax, QWORD PTR [rbp-8]
        mov     rdi, rax
        call    _ZNK5Eigen9EigenBaseINS_6MatrixIdLin1ELin1ELi0ELin1ELin1EEEE7derivedEv
        .loc 15 62 53
        mov     rdi, rax
        call    _ZNK5Eigen15PlainObjectBaseINS_6MatrixIdLin1ELin1ELi0ELin1ELin1EEEE4colsEv
        .loc 15 62 56
        leave
        .cfi_def_cfa 7, 8
        ret
        .cfi_endproc
.LFE8985:
        .size   _ZNK5Eigen9EigenBaseINS_6MatrixIdLin1ELin1ELi0ELin1ELin1EEEE4colsEv, .-_ZNK5Eigen9EigenBaseINS_6MatrixIdLin1ELin1ELi0ELin1ELin1EEEE4colsEv
        .section        .text._ZN5Eigen8internal14evaluator_baseINS_6MatrixIdLin1ELin1ELi0ELin1ELin1EEEED2Ev,"axG",@progbits,_ZN5Eigen8internal14evaluator_baseINS_6MatrixIdLin1ELin1ELi0ELin1ELin1EEEED5Ev,comdat
        .align 2
        .weak   _ZN5Eigen8internal14evaluator_baseINS_6MatrixIdLin1ELin1ELi0ELin1ELin1EEEED2Ev
        .type   _ZN5Eigen8internal14evaluator_baseINS_6MatrixIdLin1ELin1ELi0ELin1ELin1EEEED2Ev, @function
_ZN5Eigen8internal14evaluator_baseINS_6MatrixIdLin1ELin1ELi0ELin1ELin1EEEED2Ev:
.LFB8990:
        .file 16 "/opt/compiler-explorer/libs/eigen/v3.3.4/Eigen/src/Core/CoreEvaluators.h"
        .loc 16 109 8
        .cfi_startproc
        push    rbp
        .cfi_def_cfa_offset 16
        .cfi_offset 6, -16
        mov     rbp, rsp
        .cfi_def_cfa_register 6
        sub     rsp, 16
        mov     QWORD PTR [rbp-8], rdi
.LBB30:
        .loc 16 109 8
        mov     rax, QWORD PTR [rbp-8]
        mov     rdi, rax
        call    _ZN5Eigen8internal11noncopyableD2Ev
.LBE30:
        nop
        leave
        .cfi_def_cfa 7, 8
        ret
        .cfi_endproc
.LFE8990:
        .size   _ZN5Eigen8internal14evaluator_baseINS_6MatrixIdLin1ELin1ELi0ELin1ELin1EEEED2Ev, .-_ZN5Eigen8internal14evaluator_baseINS_6MatrixIdLin1ELin1ELi0ELin1ELin1EEEED2Ev
        .weak   _ZN5Eigen8internal14evaluator_baseINS_6MatrixIdLin1ELin1ELi0ELin1ELin1EEEED1Ev
        .set    _ZN5Eigen8internal14evaluator_baseINS_6MatrixIdLin1ELin1ELi0ELin1ELin1EEEED1Ev,_ZN5Eigen8internal14evaluator_baseINS_6MatrixIdLin1ELin1ELi0ELin1ELin1EEEED2Ev
        .section        .text._ZN5Eigen8internal9evaluatorINS_15PlainObjectBaseINS_6MatrixIdLin1ELin1ELi0ELin1ELin1EEEEEED2Ev,"axG",@progbits,_ZN5Eigen8internal9evaluatorINS_15PlainObjectBaseINS_6MatrixIdLin1ELin1ELi0ELin1ELin1EEEEEED5Ev,comdat
        .align 2
        .weak   _ZN5Eigen8internal9evaluatorINS_15PlainObjectBaseINS_6MatrixIdLin1ELin1ELi0ELin1ELin1EEEEEED2Ev
        .type   _ZN5Eigen8internal9evaluatorINS_15PlainObjectBaseINS_6MatrixIdLin1ELin1ELi0ELin1ELin1EEEEEED2Ev, @function
_ZN5Eigen8internal9evaluatorINS_15PlainObjectBaseINS_6MatrixIdLin1ELin1ELi0ELin1ELin1EEEEEED2Ev:
.LFB8992:
        .loc 16 127 8
        .cfi_startproc
        push    rbp
        .cfi_def_cfa_offset 16
        .cfi_offset 6, -16
        mov     rbp, rsp
        .cfi_def_cfa_register 6
        sub     rsp, 16
        mov     QWORD PTR [rbp-8], rdi
.LBB31:
        .loc 16 127 8
        mov     rax, QWORD PTR [rbp-8]
        mov     rdi, rax
        call    _ZN5Eigen8internal14evaluator_baseINS_6MatrixIdLin1ELin1ELi0ELin1ELin1EEEED2Ev
.LBE31:
        nop
        leave
        .cfi_def_cfa 7, 8
        ret
        .cfi_endproc
.LFE8992:
        .size   _ZN5Eigen8internal9evaluatorINS_15PlainObjectBaseINS_6MatrixIdLin1ELin1ELi0ELin1ELin1EEEEEED2Ev, .-_ZN5Eigen8internal9evaluatorINS_15PlainObjectBaseINS_6MatrixIdLin1ELin1ELi0ELin1ELin1EEEEEED2Ev
        .weak   _ZN5Eigen8internal9evaluatorINS_15PlainObjectBaseINS_6MatrixIdLin1ELin1ELi0ELin1ELin1EEEEEED1Ev
        .set    _ZN5Eigen8internal9evaluatorINS_15PlainObjectBaseINS_6MatrixIdLin1ELin1ELi0ELin1ELin1EEEEEED1Ev,_ZN5Eigen8internal9evaluatorINS_15PlainObjectBaseINS_6MatrixIdLin1ELin1ELi0ELin1ELin1EEEEEED2Ev
        .section        .text._ZN5Eigen8internal9evaluatorINS_6MatrixIdLin1ELin1ELi0ELin1ELin1EEEED2Ev,"axG",@progbits,_ZN5Eigen8internal9evaluatorINS_6MatrixIdLin1ELin1ELi0ELin1ELin1EEEED5Ev,comdat
        .align 2
        .weak   _ZN5Eigen8internal9evaluatorINS_6MatrixIdLin1ELin1ELi0ELin1ELin1EEEED2Ev
        .type   _ZN5Eigen8internal9evaluatorINS_6MatrixIdLin1ELin1ELi0ELin1ELin1EEEED2Ev, @function
_ZN5Eigen8internal9evaluatorINS_6MatrixIdLin1ELin1ELi0ELin1ELin1EEEED2Ev:
.LFB8994:
        .loc 16 236 8
        .cfi_startproc
        push    rbp
        .cfi_def_cfa_offset 16
        .cfi_offset 6, -16
        mov     rbp, rsp
        .cfi_def_cfa_register 6
        sub     rsp, 16
        mov     QWORD PTR [rbp-8], rdi
.LBB32:
        .loc 16 236 8
        mov     rax, QWORD PTR [rbp-8]
        mov     rdi, rax
        call    _ZN5Eigen8internal9evaluatorINS_15PlainObjectBaseINS_6MatrixIdLin1ELin1ELi0ELin1ELin1EEEEEED2Ev
.LBE32:
        nop
        leave
        .cfi_def_cfa 7, 8
        ret
        .cfi_endproc
.LFE8994:
        .size   _ZN5Eigen8internal9evaluatorINS_6MatrixIdLin1ELin1ELi0ELin1ELin1EEEED2Ev, .-_ZN5Eigen8internal9evaluatorINS_6MatrixIdLin1ELin1ELi0ELin1ELin1EEEED2Ev
        .weak   _ZN5Eigen8internal9evaluatorINS_6MatrixIdLin1ELin1ELi0ELin1ELin1EEEED1Ev
        .set    _ZN5Eigen8internal9evaluatorINS_6MatrixIdLin1ELin1ELi0ELin1ELin1EEEED1Ev,_ZN5Eigen8internal9evaluatorINS_6MatrixIdLin1ELin1ELi0ELin1ELin1EEEED2Ev
        .section        .text._ZN5Eigen15DenseCoeffsBaseINS_6MatrixIdLin1ELin1ELi0ELin1ELin1EEELi1EE8coeffRefEll,"axG",@progbits,_ZN5Eigen15DenseCoeffsBaseINS_6MatrixIdLin1ELin1ELi0ELin1ELin1EEELi1EE8coeffRefEll,comdat
        .align 2
        .weak   _ZN5Eigen15DenseCoeffsBaseINS_6MatrixIdLin1ELin1ELi0ELin1ELin1EEELi1EE8coeffRefEll
        .type   _ZN5Eigen15DenseCoeffsBaseINS_6MatrixIdLin1ELin1ELi0ELin1ELin1EEELi1EE8coeffRefEll, @function
_ZN5Eigen15DenseCoeffsBaseINS_6MatrixIdLin1ELin1ELi0ELin1ELin1EEELi1EE8coeffRefEll:
.LFB8986:
        .loc 13 340 33
        .cfi_startproc
        .cfi_personality 0x3,__gxx_personality_v0
        .cfi_lsda 0x3,.LLSDA8986
        push    rbp
        .cfi_def_cfa_offset 16
        .cfi_offset 6, -16
        mov     rbp, rsp
        .cfi_def_cfa_register 6
        push    rbx
        sub     rsp, 56
        .cfi_offset 3, -24
        mov     QWORD PTR [rbp-40], rdi
        mov     QWORD PTR [rbp-48], rsi
        mov     QWORD PTR [rbp-56], rdx
        .loc 13 344 50
        mov     rax, QWORD PTR [rbp-40]
        mov     rdi, rax
        call    _ZN5Eigen9EigenBaseINS_6MatrixIdLin1ELin1ELi0ELin1ELin1EEEE7derivedEv
        mov     rdx, rax
        .loc 13 344 70
        lea     rax, [rbp-32]
        mov     rsi, rdx
        mov     rdi, rax
.LEHB29:
        call    _ZN5Eigen8internal9evaluatorINS_6MatrixIdLin1ELin1ELi0ELin1ELin1EEEEC1ERKS3_
.LEHE29:
        mov     rdx, QWORD PTR [rbp-56]
        mov     rcx, QWORD PTR [rbp-48]
        lea     rax, [rbp-32]
        mov     rsi, rcx
        mov     rdi, rax
.LEHB30:
        call    _ZN5Eigen8internal9evaluatorINS_15PlainObjectBaseINS_6MatrixIdLin1ELin1ELi0ELin1ELin1EEEEEE8coeffRefEll
.LEHE30:
        mov     rbx, rax
        lea     rax, [rbp-32]
        mov     rdi, rax
        call    _ZN5Eigen8internal9evaluatorINS_6MatrixIdLin1ELin1ELi0ELin1ELin1EEEED1Ev
        mov     rax, rbx
        jmp     .L147
.L146:
        mov     rbx, rax
        lea     rax, [rbp-32]
        mov     rdi, rax
        call    _ZN5Eigen8internal9evaluatorINS_6MatrixIdLin1ELin1ELi0ELin1ELin1EEEED1Ev
        mov     rax, rbx
        mov     rdi, rax
.LEHB31:
        call    _Unwind_Resume
.LEHE31:
.L147:
        .loc 13 345 5
        add     rsp, 56
        pop     rbx
        pop     rbp
        .cfi_def_cfa 7, 8
        ret
        .cfi_endproc
.LFE8986:
        .section        .gcc_except_table
.LLSDA8986:
        .byte   0xff
        .byte   0xff
        .byte   0x1
        .uleb128 .LLSDACSE8986-.LLSDACSB8986
.LLSDACSB8986:
        .uleb128 .LEHB29-.LFB8986
        .uleb128 .LEHE29-.LEHB29
        .uleb128 0
        .uleb128 0
        .uleb128 .LEHB30-.LFB8986
        .uleb128 .LEHE30-.LEHB30
        .uleb128 .L146-.LFB8986
        .uleb128 0
        .uleb128 .LEHB31-.LFB8986
        .uleb128 .LEHE31-.LEHB31
        .uleb128 0
        .uleb128 0
.LLSDACSE8986:
        .section        .text._ZN5Eigen15DenseCoeffsBaseINS_6MatrixIdLin1ELin1ELi0ELin1ELin1EEELi1EE8coeffRefEll,"axG",@progbits,_ZN5Eigen15DenseCoeffsBaseINS_6MatrixIdLin1ELin1ELi0ELin1ELin1EEELi1EE8coeffRefEll,comdat
        .size   _ZN5Eigen15DenseCoeffsBaseINS_6MatrixIdLin1ELin1ELi0ELin1ELin1EEELi1EE8coeffRefEll, .-_ZN5Eigen15DenseCoeffsBaseINS_6MatrixIdLin1ELin1ELi0ELin1ELin1EEELi1EE8coeffRefEll
        .section        .text._ZNK5Eigen9DenseBaseINS_6MatrixIdLin1ELin1ELi0ELin1ELin1EEEE4evalEv,"axG",@progbits,_ZNK5Eigen9DenseBaseINS_6MatrixIdLin1ELin1ELi0ELin1ELin1EEEE4evalEv,comdat
        .align 2
        .weak   _ZNK5Eigen9DenseBaseINS_6MatrixIdLin1ELin1ELi0ELin1ELin1EEEE4evalEv
        .type   _ZNK5Eigen9DenseBaseINS_6MatrixIdLin1ELin1ELi0ELin1ELin1EEEE4evalEv, @function
_ZNK5Eigen9DenseBaseINS_6MatrixIdLin1ELin1ELi0ELin1ELin1EEEE4evalEv:
.LFB8996:
        .file 17 "/opt/compiler-explorer/libs/eigen/v3.3.4/Eigen/src/Core/DenseBase.h"
        .loc 17 401 40
        .cfi_startproc
        push    rbp
        .cfi_def_cfa_offset 16
        .cfi_offset 6, -16
        mov     rbp, rsp
        .cfi_def_cfa_register 6
        sub     rsp, 16
        mov     QWORD PTR [rbp-8], rdi
        .loc 17 406 60
        mov     rax, QWORD PTR [rbp-8]
        mov     rdi, rax
        call    _ZNK5Eigen9EigenBaseINS_6MatrixIdLin1ELin1ELi0ELin1ELin1EEEE7derivedEv
        .loc 17 407 5
        leave
        .cfi_def_cfa 7, 8
        ret
        .cfi_endproc
.LFE8996:
        .size   _ZNK5Eigen9DenseBaseINS_6MatrixIdLin1ELin1ELi0ELin1ELin1EEEE4evalEv, .-_ZNK5Eigen9DenseBaseINS_6MatrixIdLin1ELin1ELi0ELin1ELin1EEEE4evalEv
        .section        .text._ZN5Eigen8internal12print_matrixINS_6MatrixIdLin1ELin1ELi0ELin1ELin1EEEEERSoS4_RKT_RKNS_8IOFormatE,"axG",@progbits,_ZN5Eigen8internal12print_matrixINS_6MatrixIdLin1ELin1ELi0ELin1ELin1EEEEERSoS4_RKT_RKNS_8IOFormatE,comdat
        .weak   _ZN5Eigen8internal12print_matrixINS_6MatrixIdLin1ELin1ELi0ELin1ELin1EEEEERSoS4_RKT_RKNS_8IOFormatE
        .type   _ZN5Eigen8internal12print_matrixINS_6MatrixIdLin1ELin1ELi0ELin1ELin1EEEEERSoS4_RKT_RKNS_8IOFormatE, @function
_ZN5Eigen8internal12print_matrixINS_6MatrixIdLin1ELin1ELi0ELin1ELin1EEEEERSoS4_RKT_RKNS_8IOFormatE:
.LFB8997:
        .loc 7 129 16
        .cfi_startproc
        .cfi_personality 0x3,__gxx_personality_v0
        .cfi_lsda 0x3,.LLSDA8997
        push    rbp
        .cfi_def_cfa_offset 16
        .cfi_offset 6, -16
        mov     rbp, rsp
        .cfi_def_cfa_register 6
        push    rbx
        sub     rsp, 552
        .cfi_offset 3, -24
        mov     QWORD PTR [rbp-536], rdi
        mov     QWORD PTR [rbp-544], rsi
        mov     QWORD PTR [rbp-552], rdx
        .loc 7 131 16
        mov     rax, QWORD PTR [rbp-544]
        mov     rdi, rax
.LEHB32:
        call    _ZNK5Eigen9EigenBaseINS_6MatrixIdLin1ELin1ELi0ELin1ELin1EEEE4sizeEv
        test    rax, rax
        sete    al
        .loc 7 131 3
        test    al, al
        je      .L151
        .loc 7 133 14
        mov     rdx, QWORD PTR [rbp-552]
        .loc 7 133 24
        mov     rax, QWORD PTR [rbp-536]
        mov     rsi, rdx
        mov     rdi, rax
        call    _ZStlsIcSt11char_traitsIcESaIcEERSt13basic_ostreamIT_T0_ES7_RKNSt7__cxx1112basic_stringIS4_S5_T1_EE
        mov     rdx, rax
        .loc 7 133 31
        mov     rax, QWORD PTR [rbp-552]
        add     rax, 32
        .loc 7 133 24
        mov     rsi, rax
        mov     rdi, rdx
        call    _ZStlsIcSt11char_traitsIcESaIcEERSt13basic_ostreamIT_T0_ES7_RKNSt7__cxx1112basic_stringIS4_S5_T1_EE
        .loc 7 134 12
        mov     rax, QWORD PTR [rbp-536]
        jmp     .L174
.L151:
        .loc 7 137 28
        mov     rax, QWORD PTR [rbp-544]
        mov     QWORD PTR [rbp-72], rax
        .loc 7 140 9
        mov     QWORD PTR [rbp-128], 0
        .loc 7 143 10
        mov     rax, QWORD PTR [rbp-552]
        mov     eax, DWORD PTR [rax+224]
        .loc 7 143 3
        cmp     eax, -1
        jne     .L153
        .loc 7 145 5
        mov     QWORD PTR [rbp-24], 0
        jmp     .L154
.L153:
        .loc 7 147 15
        mov     rax, QWORD PTR [rbp-552]
        mov     eax, DWORD PTR [rax+224]
        .loc 7 147 8
        cmp     eax, -2
        jne     .L155
        .loc 7 155 66
        call    _ZN5Eigen8internal25significant_decimals_implIdE3runEv
        .loc 7 155 7
        cdqe
        mov     QWORD PTR [rbp-24], rax
        jmp     .L154
.L155:
        .loc 7 160 30
        mov     rax, QWORD PTR [rbp-552]
        mov     eax, DWORD PTR [rax+224]
        .loc 7 160 5
        cdqe
        mov     QWORD PTR [rbp-24], rax
.L154:
        .loc 7 163 19
        mov     QWORD PTR [rbp-32], 0
        .loc 7 164 3
        cmp     QWORD PTR [rbp-24], 0
        je      .L156
        .loc 7 164 53 discriminator 1
        mov     rax, QWORD PTR [rbp-536]
        mov     rax, QWORD PTR [rax]
        sub     rax, 24
        mov     rax, QWORD PTR [rax]
        mov     rdx, rax
        mov     rax, QWORD PTR [rbp-536]
        add     rdx, rax
        mov     rax, QWORD PTR [rbp-24]
        mov     rsi, rax
        mov     rdi, rdx
        call    _ZNSt8ios_base9precisionEl
        mov     QWORD PTR [rbp-32], rax
.L156:
        .loc 7 166 27
        mov     rax, QWORD PTR [rbp-552]
        mov     eax, DWORD PTR [rax+228]
        .loc 7 166 33
        and     eax, 1
        .loc 7 166 8
        test    eax, eax
        sete    al
        mov     BYTE PTR [rbp-73], al
.LBB33:
        .loc 7 167 3
        cmp     BYTE PTR [rbp-73], 0
        je      .L157
.LBB34:
.LBB35:
        .loc 7 170 15
        mov     QWORD PTR [rbp-40], 0
.L161:
        .loc 7 170 24 discriminator 1
        mov     rax, QWORD PTR [rbp-72]
        mov     rdi, rax
        call    _ZNK5Eigen15PlainObjectBaseINS_6MatrixIdLin1ELin1ELi0ELin1ELin1EEEE4colsEv
        cmp     QWORD PTR [rbp-40], rax
        setl    al
        test    al, al
        je      .L157
.LBB36:
.LBB37:
        .loc 7 171 17
        mov     QWORD PTR [rbp-48], 0
.L160:
        .loc 7 171 26 discriminator 3
        mov     rax, QWORD PTR [rbp-72]
        mov     rdi, rax
        call    _ZNK5Eigen15PlainObjectBaseINS_6MatrixIdLin1ELin1ELi0ELin1ELin1EEEE4rowsEv
        cmp     QWORD PTR [rbp-48], rax
        setl    al
        test    al, al
        je      .L159
.LBB38:
        .loc 7 173 27
        mov     esi, 8
        mov     edi, 16
        call    _ZStorSt13_Ios_OpenmodeS_
        mov     edx, eax
        lea     rax, [rbp-528]
        mov     esi, edx
        mov     rdi, rax
        call    _ZNSt7__cxx1118basic_stringstreamIcSt11char_traitsIcESaIcEEC1ESt13_Ios_Openmode
.LEHE32:
        .loc 7 174 21
        mov     rax, QWORD PTR [rbp-536]
        mov     rax, QWORD PTR [rax]
        sub     rax, 24
        mov     rax, QWORD PTR [rax]
        mov     rdx, rax
        mov     rax, QWORD PTR [rbp-536]
        add     rdx, rax
        lea     rax, [rbp-528]
        sub     rax, -128
        mov     rsi, rdx
        mov     rdi, rax
.LEHB33:
        call    _ZNSt9basic_iosIcSt11char_traitsIcEE7copyfmtERKS2_
        .loc 7 175 14
        mov     rax, QWORD PTR [rbp-72]
        mov     rdx, QWORD PTR [rbp-40]
        mov     rcx, QWORD PTR [rbp-48]
        mov     rsi, rcx
        mov     rdi, rax
        call    _ZNK5Eigen15PlainObjectBaseINS_6MatrixIdLin1ELin1ELi0ELin1ELin1EEEE5coeffEll
        movsd   xmm0, QWORD PTR [rax]
        lea     rax, [rbp-528]
        add     rax, 16
        mov     rdi, rax
        call    _ZNSolsEd
        .loc 7 176 63
        lea     rax, [rbp-112]
        lea     rdx, [rbp-528]
        mov     rsi, rdx
        mov     rdi, rax
        call    _ZNKSt7__cxx1118basic_stringstreamIcSt11char_traitsIcESaIcEE3strEv
.LEHE33:
        .loc 7 176 63 is_stmt 0 discriminator 1
        lea     rax, [rbp-112]
        mov     rdi, rax
        call    _ZNKSt7__cxx1112basic_stringIcSt11char_traitsIcESaIcEE6lengthEv
        mov     QWORD PTR [rbp-120], rax
        .loc 7 176 66 is_stmt 1 discriminator 1
        lea     rdx, [rbp-120]
        lea     rax, [rbp-128]
        mov     rsi, rdx
        mov     rdi, rax
        call    _ZSt3maxIlERKT_S2_S2_
        .loc 7 176 9 discriminator 1
        mov     rax, QWORD PTR [rax]
        mov     QWORD PTR [rbp-128], rax
        .loc 7 176 63 discriminator 1
        lea     rax, [rbp-112]
        mov     rdi, rax
        call    _ZNSt7__cxx1112basic_stringIcSt11char_traitsIcESaIcEED1Ev
        .loc 7 173 27 discriminator 1
        lea     rax, [rbp-528]
        mov     rdi, rax
        call    _ZNSt7__cxx1118basic_stringstreamIcSt11char_traitsIcESaIcEED1Ev
.LBE38:
        .loc 7 171 7 discriminator 1
        add     QWORD PTR [rbp-48], 1
        jmp     .L160
.L159:
.LBE37:
.LBE36:
        .loc 7 170 5 discriminator 3
        add     QWORD PTR [rbp-40], 1
        jmp     .L161
.L157:
.LBE35:
.LBE34:
.LBE33:
        .loc 7 179 12
        mov     rdx, QWORD PTR [rbp-552]
        .loc 7 179 5
        mov     rax, QWORD PTR [rbp-536]
        mov     rsi, rdx
        mov     rdi, rax
.LEHB34:
        call    _ZStlsIcSt11char_traitsIcESaIcEERSt13basic_ostreamIT_T0_ES7_RKNSt7__cxx1112basic_stringIS4_S5_T1_EE
.LBB44:
        .loc 7 180 13
        mov     QWORD PTR [rbp-56], 0
.L169:
        .loc 7 180 22 discriminator 1
        mov     rax, QWORD PTR [rbp-72]
        mov     rdi, rax
        call    _ZNK5Eigen15PlainObjectBaseINS_6MatrixIdLin1ELin1ELi0ELin1ELin1EEEE4rowsEv
        cmp     QWORD PTR [rbp-56], rax
        setl    al
        test    al, al
        je      .L162
.LBB45:
        .loc 7 182 5
        cmp     QWORD PTR [rbp-56], 0
        je      .L163
        .loc 7 183 16
        mov     rax, QWORD PTR [rbp-552]
        lea     rdx, [rax+160]
        .loc 7 183 9
        mov     rax, QWORD PTR [rbp-536]
        mov     rsi, rdx
        mov     rdi, rax
        call    _ZStlsIcSt11char_traitsIcESaIcEERSt13basic_ostreamIT_T0_ES7_RKNSt7__cxx1112basic_stringIS4_S5_T1_EE
.L163:
        .loc 7 184 14
        mov     rax, QWORD PTR [rbp-552]
        lea     rdx, [rax+64]
        .loc 7 184 7
        mov     rax, QWORD PTR [rbp-536]
        mov     rsi, rdx
        mov     rdi, rax
        call    _ZStlsIcSt11char_traitsIcESaIcEERSt13basic_ostreamIT_T0_ES7_RKNSt7__cxx1112basic_stringIS4_S5_T1_EE
        .loc 7 185 5
        mov     rax, QWORD PTR [rbp-128]
        test    rax, rax
        je      .L164
        .loc 7 185 22 discriminator 1
        mov     rax, QWORD PTR [rbp-536]
        mov     rax, QWORD PTR [rax]
        sub     rax, 24
        mov     rax, QWORD PTR [rax]
        mov     rdx, rax
        mov     rax, QWORD PTR [rbp-536]
        add     rdx, rax
        mov     rax, QWORD PTR [rbp-128]
        mov     rsi, rax
        mov     rdi, rdx
        call    _ZNSt8ios_base5widthEl
.L164:
        .loc 7 186 7
        mov     rax, QWORD PTR [rbp-72]
        mov     rcx, QWORD PTR [rbp-56]
        mov     edx, 0
        mov     rsi, rcx
        mov     rdi, rax
        call    _ZNK5Eigen15PlainObjectBaseINS_6MatrixIdLin1ELin1ELi0ELin1ELin1EEEE5coeffEll
        movsd   xmm0, QWORD PTR [rax]
        mov     rax, QWORD PTR [rbp-536]
        mov     rdi, rax
        call    _ZNSolsEd
.LBB46:
        .loc 7 187 15
        mov     QWORD PTR [rbp-64], 1
.L167:
        .loc 7 187 24 discriminator 1
        mov     rax, QWORD PTR [rbp-72]
        mov     rdi, rax
        call    _ZNK5Eigen15PlainObjectBaseINS_6MatrixIdLin1ELin1ELi0ELin1ELin1EEEE4colsEv
        cmp     QWORD PTR [rbp-64], rax
        setl    al
        test    al, al
        je      .L165
        .loc 7 189 16
        mov     rax, QWORD PTR [rbp-552]
        lea     rdx, [rax+192]
        .loc 7 189 9
        mov     rax, QWORD PTR [rbp-536]
        mov     rsi, rdx
        mov     rdi, rax
        call    _ZStlsIcSt11char_traitsIcESaIcEERSt13basic_ostreamIT_T0_ES7_RKNSt7__cxx1112basic_stringIS4_S5_T1_EE
        .loc 7 190 7
        mov     rax, QWORD PTR [rbp-128]
        test    rax, rax
        je      .L166
        .loc 7 190 25 discriminator 1
        mov     rax, QWORD PTR [rbp-536]
        mov     rax, QWORD PTR [rax]
        sub     rax, 24
        mov     rax, QWORD PTR [rax]
        mov     rdx, rax
        mov     rax, QWORD PTR [rbp-536]
        add     rdx, rax
        mov     rax, QWORD PTR [rbp-128]
        mov     rsi, rax
        mov     rdi, rdx
        call    _ZNSt8ios_base5widthEl
.L166:
        .loc 7 191 9
        mov     rax, QWORD PTR [rbp-72]
        mov     rdx, QWORD PTR [rbp-64]
        mov     rcx, QWORD PTR [rbp-56]
        mov     rsi, rcx
        mov     rdi, rax
        call    _ZNK5Eigen15PlainObjectBaseINS_6MatrixIdLin1ELin1ELi0ELin1ELin1EEEE5coeffEll
        movsd   xmm0, QWORD PTR [rax]
        mov     rax, QWORD PTR [rbp-536]
        mov     rdi, rax
        call    _ZNSolsEd
        .loc 7 187 5
        add     QWORD PTR [rbp-64], 1
        jmp     .L167
.L165:
.LBE46:
        .loc 7 193 14
        mov     rax, QWORD PTR [rbp-552]
        lea     rdx, [rax+96]
        .loc 7 193 7
        mov     rax, QWORD PTR [rbp-536]
        mov     rsi, rdx
        mov     rdi, rax
        call    _ZStlsIcSt11char_traitsIcESaIcEERSt13basic_ostreamIT_T0_ES7_RKNSt7__cxx1112basic_stringIS4_S5_T1_EE
        .loc 7 194 22
        mov     rax, QWORD PTR [rbp-72]
        mov     rdi, rax
        call    _ZNK5Eigen15PlainObjectBaseINS_6MatrixIdLin1ELin1ELi0ELin1ELin1EEEE4rowsEv
        sub     rax, 1
        .loc 7 194 11
        cmp     QWORD PTR [rbp-56], rax
        setl    al
        .loc 7 194 5
        test    al, al
        je      .L168
        .loc 7 195 16
        mov     rax, QWORD PTR [rbp-552]
        lea     rdx, [rax+128]
        .loc 7 195 9
        mov     rax, QWORD PTR [rbp-536]
        mov     rsi, rdx
        mov     rdi, rax
        call    _ZStlsIcSt11char_traitsIcESaIcEERSt13basic_ostreamIT_T0_ES7_RKNSt7__cxx1112basic_stringIS4_S5_T1_EE
.L168:
.LBE45:
        .loc 7 180 3 discriminator 3
        add     QWORD PTR [rbp-56], 1
        jmp     .L169
.L162:
.LBE44:
        .loc 7 197 12
        mov     rax, QWORD PTR [rbp-552]
        lea     rdx, [rax+32]
        .loc 7 197 5
        mov     rax, QWORD PTR [rbp-536]
        mov     rsi, rdx
        mov     rdi, rax
        call    _ZStlsIcSt11char_traitsIcESaIcEERSt13basic_ostreamIT_T0_ES7_RKNSt7__cxx1112basic_stringIS4_S5_T1_EE
        .loc 7 198 3
        cmp     QWORD PTR [rbp-24], 0
        je      .L170
        .loc 7 198 37 discriminator 1
        mov     rax, QWORD PTR [rbp-536]
        mov     rax, QWORD PTR [rax]
        sub     rax, 24
        mov     rax, QWORD PTR [rax]
        mov     rdx, rax
        mov     rax, QWORD PTR [rbp-536]
        add     rdx, rax
        mov     rax, QWORD PTR [rbp-32]
        mov     rsi, rax
        mov     rdi, rdx
        call    _ZNSt8ios_base9precisionEl
.L170:
        .loc 7 199 10
        mov     rax, QWORD PTR [rbp-536]
        jmp     .L174
.L173:
        mov     rbx, rax
.LBB47:
.LBB43:
.LBB42:
.LBB41:
.LBB40:
.LBB39:
        .loc 7 173 27
        lea     rax, [rbp-528]
        mov     rdi, rax
        call    _ZNSt7__cxx1118basic_stringstreamIcSt11char_traitsIcESaIcEED1Ev
        mov     rax, rbx
        mov     rdi, rax
        call    _Unwind_Resume
.LEHE34:
.L174:
.LBE39:
.LBE40:
.LBE41:
.LBE42:
.LBE43:
.LBE47:
        .loc 7 200 1
        add     rsp, 552
        pop     rbx
        pop     rbp
        .cfi_def_cfa 7, 8
        ret
        .cfi_endproc
.LFE8997:
        .section        .gcc_except_table
.LLSDA8997:
        .byte   0xff
        .byte   0xff
        .byte   0x1
        .uleb128 .LLSDACSE8997-.LLSDACSB8997
.LLSDACSB8997:
        .uleb128 .LEHB32-.LFB8997
        .uleb128 .LEHE32-.LEHB32
        .uleb128 0
        .uleb128 0
        .uleb128 .LEHB33-.LFB8997
        .uleb128 .LEHE33-.LEHB33
        .uleb128 .L173-.LFB8997
        .uleb128 0
        .uleb128 .LEHB34-.LFB8997
        .uleb128 .LEHE34-.LEHB34
        .uleb128 0
        .uleb128 0
.LLSDACSE8997:
        .section        .text._ZN5Eigen8internal12print_matrixINS_6MatrixIdLin1ELin1ELi0ELin1ELin1EEEEERSoS4_RKT_RKNS_8IOFormatE,"axG",@progbits,_ZN5Eigen8internal12print_matrixINS_6MatrixIdLin1ELin1ELi0ELin1ELin1EEEEERSoS4_RKT_RKNS_8IOFormatE,comdat
        .size   _ZN5Eigen8internal12print_matrixINS_6MatrixIdLin1ELin1ELi0ELin1ELin1EEEEERSoS4_RKT_RKNS_8IOFormatE, .-_ZN5Eigen8internal12print_matrixINS_6MatrixIdLin1ELin1ELi0ELin1ELin1EEEEERSoS4_RKT_RKNS_8IOFormatE
        .section        .text._ZNKSt7__cxx1112basic_stringIcSt11char_traitsIcESaIcEE11_M_is_localEv,"axG",@progbits,_ZNKSt7__cxx1112basic_stringIcSt11char_traitsIcESaIcEE11_M_is_localEv,comdat
        .align 2
        .weak   _ZNKSt7__cxx1112basic_stringIcSt11char_traitsIcESaIcEE11_M_is_localEv
        .type   _ZNKSt7__cxx1112basic_stringIcSt11char_traitsIcESaIcEE11_M_is_localEv, @function
_ZNKSt7__cxx1112basic_stringIcSt11char_traitsIcESaIcEE11_M_is_localEv:
.LFB9000:
        .loc 11 210 7
        .cfi_startproc
        push    rbp
        .cfi_def_cfa_offset 16
        .cfi_offset 6, -16
        mov     rbp, rsp
        .cfi_def_cfa_register 6
        push    rbx
        sub     rsp, 24
        .cfi_offset 3, -24
        mov     QWORD PTR [rbp-24], rdi
        .loc 11 211 26
        mov     rax, QWORD PTR [rbp-24]
        mov     rdi, rax
        call    _ZNKSt7__cxx1112basic_stringIcSt11char_traitsIcESaIcEE7_M_dataEv
        mov     rbx, rax
        mov     rax, QWORD PTR [rbp-24]
        mov     rdi, rax
        call    _ZNKSt7__cxx1112basic_stringIcSt11char_traitsIcESaIcEE13_M_local_dataEv
        .loc 11 211 43
        cmp     rbx, rax
        sete    al
        .loc 11 211 46
        add     rsp, 24
        pop     rbx
        pop     rbp
        .cfi_def_cfa 7, 8
        ret
        .cfi_endproc
.LFE9000:
        .size   _ZNKSt7__cxx1112basic_stringIcSt11char_traitsIcESaIcEE11_M_is_localEv, .-_ZNKSt7__cxx1112basic_stringIcSt11char_traitsIcESaIcEE11_M_is_localEv
        .section        .text._ZNSt7__cxx1112basic_stringIcSt11char_traitsIcESaIcEE10_M_destroyEm,"axG",@progbits,_ZNSt7__cxx1112basic_stringIcSt11char_traitsIcESaIcEE10_M_destroyEm,comdat
        .align 2
        .weak   _ZNSt7__cxx1112basic_stringIcSt11char_traitsIcESaIcEE10_M_destroyEm
        .type   _ZNSt7__cxx1112basic_stringIcSt11char_traitsIcESaIcEE10_M_destroyEm, @function
_ZNSt7__cxx1112basic_stringIcSt11char_traitsIcESaIcEE10_M_destroyEm:
.LFB9001:
        .loc 11 225 7
        .cfi_startproc
        .cfi_personality 0x3,__gxx_personality_v0
        .cfi_lsda 0x3,.LLSDA9001
        push    rbp
        .cfi_def_cfa_offset 16
        .cfi_offset 6, -16
        mov     rbp, rsp
        .cfi_def_cfa_register 6
        push    r12
        push    rbx
        sub     rsp, 16
        .cfi_offset 12, -24
        .cfi_offset 3, -32
        mov     QWORD PTR [rbp-24], rdi
        mov     QWORD PTR [rbp-32], rsi
        .loc 11 226 34
        mov     rax, QWORD PTR [rbp-32]
        lea     rbx, [rax+1]
        mov     rax, QWORD PTR [rbp-24]
        mov     rdi, rax
        call    _ZNKSt7__cxx1112basic_stringIcSt11char_traitsIcESaIcEE7_M_dataEv
        mov     r12, rax
        mov     rax, QWORD PTR [rbp-24]
        mov     rdi, rax
        call    _ZNSt7__cxx1112basic_stringIcSt11char_traitsIcESaIcEE16_M_get_allocatorEv
        mov     rdx, rbx
        mov     rsi, r12
        mov     rdi, rax
        call    _ZNSt16allocator_traitsISaIcEE10deallocateERS0_Pcm
        .loc 11 226 79
        nop
        add     rsp, 16
        pop     rbx
        pop     r12
        pop     rbp
        .cfi_def_cfa 7, 8
        ret
        .cfi_endproc
.LFE9001:
        .section        .gcc_except_table
.LLSDA9001:
        .byte   0xff
        .byte   0xff
        .byte   0x1
        .uleb128 .LLSDACSE9001-.LLSDACSB9001
.LLSDACSB9001:
.LLSDACSE9001:
        .section        .text._ZNSt7__cxx1112basic_stringIcSt11char_traitsIcESaIcEE10_M_destroyEm,"axG",@progbits,_ZNSt7__cxx1112basic_stringIcSt11char_traitsIcESaIcEE10_M_destroyEm,comdat
        .size   _ZNSt7__cxx1112basic_stringIcSt11char_traitsIcESaIcEE10_M_destroyEm, .-_ZNSt7__cxx1112basic_stringIcSt11char_traitsIcESaIcEE10_M_destroyEm
        .section        .text._ZNSt14pointer_traitsIPcE10pointer_toERc,"axG",@progbits,_ZNSt14pointer_traitsIPcE10pointer_toERc,comdat
        .weak   _ZNSt14pointer_traitsIPcE10pointer_toERc
        .type   _ZNSt14pointer_traitsIPcE10pointer_toERc, @function
_ZNSt14pointer_traitsIPcE10pointer_toERc:
.LFB9005:
        .file 18 "/opt/compiler-explorer/gcc-8.3.0/include/c++/8.3.0/bits/ptr_traits.h"
        .loc 18 141 7
        .cfi_startproc
        push    rbp
        .cfi_def_cfa_offset 16
        .cfi_offset 6, -16
        mov     rbp, rsp
        .cfi_def_cfa_register 6
        sub     rsp, 16
        mov     QWORD PTR [rbp-8], rdi
        .loc 18 142 30
        mov     rax, QWORD PTR [rbp-8]
        mov     rdi, rax
        call    _ZSt9addressofIcEPT_RS0_
        .loc 18 142 37
        leave
        .cfi_def_cfa 7, 8
        ret
        .cfi_endproc
.LFE9005:
        .size   _ZNSt14pointer_traitsIPcE10pointer_toERc, .-_ZNSt14pointer_traitsIPcE10pointer_toERc
        .section        .text._ZNSt7__cxx1112basic_stringIcSt11char_traitsIcESaIcEE16_M_construct_auxIPKcEEvT_S8_St12__false_type,"axG",@progbits,_ZNSt7__cxx1112basic_stringIcSt11char_traitsIcESaIcEE16_M_construct_auxIPKcEEvT_S8_St12__false_type,comdat
        .align 2
        .weak   _ZNSt7__cxx1112basic_stringIcSt11char_traitsIcESaIcEE16_M_construct_auxIPKcEEvT_S8_St12__false_type
        .type   _ZNSt7__cxx1112basic_stringIcSt11char_traitsIcESaIcEE16_M_construct_auxIPKcEEvT_S8_St12__false_type, @function
_ZNSt7__cxx1112basic_stringIcSt11char_traitsIcESaIcEE16_M_construct_auxIPKcEEvT_S8_St12__false_type:
.LFB9009:
        .loc 11 232 9
        .cfi_startproc
        push    rbp
        .cfi_def_cfa_offset 16
        .cfi_offset 6, -16
        mov     rbp, rsp
        .cfi_def_cfa_register 6
        sub     rsp, 48
        mov     QWORD PTR [rbp-24], rdi
        mov     QWORD PTR [rbp-32], rsi
        mov     QWORD PTR [rbp-40], rdx
        .loc 11 236 11
        mov     rdx, QWORD PTR [rbp-40]
        mov     rcx, QWORD PTR [rbp-32]
        mov     rax, QWORD PTR [rbp-24]
        mov     rsi, rcx
        mov     rdi, rax
        call    _ZNSt7__cxx1112basic_stringIcSt11char_traitsIcESaIcEE12_M_constructIPKcEEvT_S8_St20forward_iterator_tag
        .loc 11 237 2
        nop
        leave
        .cfi_def_cfa 7, 8
        ret
        .cfi_endproc
.LFE9009:
        .size   _ZNSt7__cxx1112basic_stringIcSt11char_traitsIcESaIcEE16_M_construct_auxIPKcEEvT_S8_St12__false_type, .-_ZNSt7__cxx1112basic_stringIcSt11char_traitsIcESaIcEE16_M_construct_auxIPKcEEvT_S8_St12__false_type
        .section        .text._ZNSt7__cxx1112basic_stringIcSt11char_traitsIcESaIcEE16_M_get_allocatorEv,"axG",@progbits,_ZNSt7__cxx1112basic_stringIcSt11char_traitsIcESaIcEE16_M_get_allocatorEv,comdat
        .align 2
        .weak   _ZNSt7__cxx1112basic_stringIcSt11char_traitsIcESaIcEE16_M_get_allocatorEv
        .type   _ZNSt7__cxx1112basic_stringIcSt11char_traitsIcESaIcEE16_M_get_allocatorEv, @function
_ZNSt7__cxx1112basic_stringIcSt11char_traitsIcESaIcEE16_M_get_allocatorEv:
.LFB9031:
        .loc 11 275 7
        .cfi_startproc
        push    rbp
        .cfi_def_cfa_offset 16
        .cfi_offset 6, -16
        mov     rbp, rsp
        .cfi_def_cfa_register 6
        mov     QWORD PTR [rbp-8], rdi
        .loc 11 276 16
        mov     rax, QWORD PTR [rbp-8]
        .loc 11 276 29
        pop     rbp
        .cfi_def_cfa 7, 8
        ret
        .cfi_endproc
.LFE9031:
        .size   _ZNSt7__cxx1112basic_stringIcSt11char_traitsIcESaIcEE16_M_get_allocatorEv, .-_ZNSt7__cxx1112basic_stringIcSt11char_traitsIcESaIcEE16_M_get_allocatorEv
        .section        .text._ZSt4moveIRSaIcEEONSt16remove_referenceIT_E4typeEOS3_,"axG",@progbits,_ZSt4moveIRSaIcEEONSt16remove_referenceIT_E4typeEOS3_,comdat
        .weak   _ZSt4moveIRSaIcEEONSt16remove_referenceIT_E4typeEOS3_
        .type   _ZSt4moveIRSaIcEEONSt16remove_referenceIT_E4typeEOS3_, @function
_ZSt4moveIRSaIcEEONSt16remove_referenceIT_E4typeEOS3_:
.LFB9032:
        .file 19 "/opt/compiler-explorer/gcc-8.3.0/include/c++/8.3.0/bits/move.h"
        .loc 19 99 5
        .cfi_startproc
        push    rbp
        .cfi_def_cfa_offset 16
        .cfi_offset 6, -16
        mov     rbp, rsp
        .cfi_def_cfa_register 6
        mov     QWORD PTR [rbp-8], rdi
        .loc 19 100 74
        mov     rax, QWORD PTR [rbp-8]
        .loc 19 100 77
        pop     rbp
        .cfi_def_cfa 7, 8
        ret
        .cfi_endproc
.LFE9032:
        .size   _ZSt4moveIRSaIcEEONSt16remove_referenceIT_E4typeEOS3_, .-_ZSt4moveIRSaIcEEONSt16remove_referenceIT_E4typeEOS3_
        .section        .text._ZNSt7__cxx1112basic_stringIcSt11char_traitsIcESaIcEE7_M_dataEPc,"axG",@progbits,_ZNSt7__cxx1112basic_stringIcSt11char_traitsIcESaIcEE7_M_dataEPc,comdat
        .align 2
        .weak   _ZNSt7__cxx1112basic_stringIcSt11char_traitsIcESaIcEE7_M_dataEPc
        .type   _ZNSt7__cxx1112basic_stringIcSt11char_traitsIcESaIcEE7_M_dataEPc, @function
_ZNSt7__cxx1112basic_stringIcSt11char_traitsIcESaIcEE7_M_dataEPc:
.LFB9033:
        .loc 11 167 7
        .cfi_startproc
        push    rbp
        .cfi_def_cfa_offset 16
        .cfi_offset 6, -16
        mov     rbp, rsp
        .cfi_def_cfa_register 6
        mov     QWORD PTR [rbp-8], rdi
        mov     QWORD PTR [rbp-16], rsi
        .loc 11 168 9
        mov     rax, QWORD PTR [rbp-8]
        mov     rdx, QWORD PTR [rbp-16]
        mov     QWORD PTR [rax], rdx
        .loc 11 168 33
        nop
        pop     rbp
        .cfi_def_cfa 7, 8
        ret
        .cfi_endproc
.LFE9033:
        .size   _ZNSt7__cxx1112basic_stringIcSt11char_traitsIcESaIcEE7_M_dataEPc, .-_ZNSt7__cxx1112basic_stringIcSt11char_traitsIcESaIcEE7_M_dataEPc
        .section        .text._ZNSt7__cxx1112basic_stringIcSt11char_traitsIcESaIcEE11_M_capacityEm,"axG",@progbits,_ZNSt7__cxx1112basic_stringIcSt11char_traitsIcESaIcEE11_M_capacityEm,comdat
        .align 2
        .weak   _ZNSt7__cxx1112basic_stringIcSt11char_traitsIcESaIcEE11_M_capacityEm
        .type   _ZNSt7__cxx1112basic_stringIcSt11char_traitsIcESaIcEE11_M_capacityEm, @function
_ZNSt7__cxx1112basic_stringIcSt11char_traitsIcESaIcEE11_M_capacityEm:
.LFB9034:
        .loc 11 199 7
        .cfi_startproc
        push    rbp
        .cfi_def_cfa_offset 16
        .cfi_offset 6, -16
        mov     rbp, rsp
        .cfi_def_cfa_register 6
        mov     QWORD PTR [rbp-8], rdi
        mov     QWORD PTR [rbp-16], rsi
        .loc 11 200 9
        mov     rax, QWORD PTR [rbp-8]
        mov     rdx, QWORD PTR [rbp-16]
        mov     QWORD PTR [rax+16], rdx
        .loc 11 200 45
        nop
        pop     rbp
        .cfi_def_cfa 7, 8
        ret
        .cfi_endproc
.LFE9034:
        .size   _ZNSt7__cxx1112basic_stringIcSt11char_traitsIcESaIcEE11_M_capacityEm, .-_ZNSt7__cxx1112basic_stringIcSt11char_traitsIcESaIcEE11_M_capacityEm
        .section        .text._ZNSt7__cxx1112basic_stringIcSt11char_traitsIcESaIcEE9_M_lengthEm,"axG",@progbits,_ZNSt7__cxx1112basic_stringIcSt11char_traitsIcESaIcEE9_M_lengthEm,comdat
        .align 2
        .weak   _ZNSt7__cxx1112basic_stringIcSt11char_traitsIcESaIcEE9_M_lengthEm
        .type   _ZNSt7__cxx1112basic_stringIcSt11char_traitsIcESaIcEE9_M_lengthEm, @function
_ZNSt7__cxx1112basic_stringIcSt11char_traitsIcESaIcEE9_M_lengthEm:
.LFB9035:
        .loc 11 171 7
        .cfi_startproc
        push    rbp
        .cfi_def_cfa_offset 16
        .cfi_offset 6, -16
        mov     rbp, rsp
        .cfi_def_cfa_register 6
        mov     QWORD PTR [rbp-8], rdi
        mov     QWORD PTR [rbp-16], rsi
        .loc 11 172 9
        mov     rax, QWORD PTR [rbp-8]
        mov     rdx, QWORD PTR [rbp-16]
        mov     QWORD PTR [rax+8], rdx
        .loc 11 172 38
        nop
        pop     rbp
        .cfi_def_cfa 7, 8
        ret
        .cfi_endproc
.LFE9035:
        .size   _ZNSt7__cxx1112basic_stringIcSt11char_traitsIcESaIcEE9_M_lengthEm, .-_ZNSt7__cxx1112basic_stringIcSt11char_traitsIcESaIcEE9_M_lengthEm
        .section        .text._ZNSt7__cxx1112basic_stringIcSt11char_traitsIcESaIcEE13_M_set_lengthEm,"axG",@progbits,_ZNSt7__cxx1112basic_stringIcSt11char_traitsIcESaIcEE13_M_set_lengthEm,comdat
        .align 2
        .weak   _ZNSt7__cxx1112basic_stringIcSt11char_traitsIcESaIcEE13_M_set_lengthEm
        .type   _ZNSt7__cxx1112basic_stringIcSt11char_traitsIcESaIcEE13_M_set_lengthEm, @function
_ZNSt7__cxx1112basic_stringIcSt11char_traitsIcESaIcEE13_M_set_lengthEm:
.LFB9036:
        .loc 11 203 7
        .cfi_startproc
        push    rbp
        .cfi_def_cfa_offset 16
        .cfi_offset 6, -16
        mov     rbp, rsp
        .cfi_def_cfa_register 6
        sub     rsp, 32
        mov     QWORD PTR [rbp-24], rdi
        mov     QWORD PTR [rbp-32], rsi
        .loc 11 205 2
        mov     rdx, QWORD PTR [rbp-32]
        mov     rax, QWORD PTR [rbp-24]
        mov     rsi, rdx
        mov     rdi, rax
        call    _ZNSt7__cxx1112basic_stringIcSt11char_traitsIcESaIcEE9_M_lengthEm
        .loc 11 206 21
        mov     BYTE PTR [rbp-1], 0
        .loc 11 206 31
        mov     rax, QWORD PTR [rbp-24]
        mov     rdi, rax
        call    _ZNKSt7__cxx1112basic_stringIcSt11char_traitsIcESaIcEE7_M_dataEv
        mov     rdx, rax
        mov     rax, QWORD PTR [rbp-32]
        add     rdx, rax
        .loc 11 206 21
        lea     rax, [rbp-1]
        mov     rsi, rax
        mov     rdi, rdx
        call    _ZNSt11char_traitsIcE6assignERcRKc
        .loc 11 207 7
        nop
        leave
        .cfi_def_cfa 7, 8
        ret
        .cfi_endproc
.LFE9036:
        .size   _ZNSt7__cxx1112basic_stringIcSt11char_traitsIcESaIcEE13_M_set_lengthEm, .-_ZNSt7__cxx1112basic_stringIcSt11char_traitsIcESaIcEE13_M_set_lengthEm
        .section        .text._ZNSt16allocator_traitsISaIcEE37select_on_container_copy_constructionERKS0_,"axG",@progbits,_ZNSt16allocator_traitsISaIcEE37select_on_container_copy_constructionERKS0_,comdat
        .weak   _ZNSt16allocator_traitsISaIcEE37select_on_container_copy_constructionERKS0_
        .type   _ZNSt16allocator_traitsISaIcEE37select_on_container_copy_constructionERKS0_, @function
_ZNSt16allocator_traitsISaIcEE37select_on_container_copy_constructionERKS0_:
.LFB9059:
        .file 20 "/opt/compiler-explorer/gcc-8.3.0/include/c++/8.3.0/bits/alloc_traits.h"
        .loc 20 504 7
        .cfi_startproc
        push    rbp
        .cfi_def_cfa_offset 16
        .cfi_offset 6, -16
        mov     rbp, rsp
        .cfi_def_cfa_register 6
        sub     rsp, 16
        mov     QWORD PTR [rbp-8], rdi
        mov     QWORD PTR [rbp-16], rsi
        .loc 20 505 16
        mov     rdx, QWORD PTR [rbp-16]
        mov     rax, QWORD PTR [rbp-8]
        mov     rsi, rdx
        mov     rdi, rax
        call    _ZNSaIcEC1ERKS_
        .loc 20 505 23
        mov     rax, QWORD PTR [rbp-8]
        leave
        .cfi_def_cfa 7, 8
        ret
        .cfi_endproc
.LFE9059:
        .size   _ZNSt16allocator_traitsISaIcEE37select_on_container_copy_constructionERKS0_, .-_ZNSt16allocator_traitsISaIcEE37select_on_container_copy_constructionERKS0_
        .section        .text._ZNSt7__cxx1112basic_stringIcSt11char_traitsIcESaIcEE16_M_construct_auxIPcEEvT_S7_St12__false_type,"axG",@progbits,_ZNSt7__cxx1112basic_stringIcSt11char_traitsIcESaIcEE16_M_construct_auxIPcEEvT_S7_St12__false_type,comdat
        .align 2
        .weak   _ZNSt7__cxx1112basic_stringIcSt11char_traitsIcESaIcEE16_M_construct_auxIPcEEvT_S7_St12__false_type
        .type   _ZNSt7__cxx1112basic_stringIcSt11char_traitsIcESaIcEE16_M_construct_auxIPcEEvT_S7_St12__false_type, @function
_ZNSt7__cxx1112basic_stringIcSt11char_traitsIcESaIcEE16_M_construct_auxIPcEEvT_S7_St12__false_type:
.LFB9060:
        .loc 11 232 9
        .cfi_startproc
        push    rbp
        .cfi_def_cfa_offset 16
        .cfi_offset 6, -16
        mov     rbp, rsp
        .cfi_def_cfa_register 6
        sub     rsp, 48
        mov     QWORD PTR [rbp-24], rdi
        mov     QWORD PTR [rbp-32], rsi
        mov     QWORD PTR [rbp-40], rdx
        .loc 11 236 11
        mov     rdx, QWORD PTR [rbp-40]
        mov     rcx, QWORD PTR [rbp-32]
        mov     rax, QWORD PTR [rbp-24]
        mov     rsi, rcx
        mov     rdi, rax
        call    _ZNSt7__cxx1112basic_stringIcSt11char_traitsIcESaIcEE12_M_constructIPcEEvT_S7_St20forward_iterator_tag
        .loc 11 237 2
        nop
        leave
        .cfi_def_cfa 7, 8
        ret
        .cfi_endproc
.LFE9060:
        .size   _ZNSt7__cxx1112basic_stringIcSt11char_traitsIcESaIcEE16_M_construct_auxIPcEEvT_S7_St12__false_type, .-_ZNSt7__cxx1112basic_stringIcSt11char_traitsIcESaIcEE16_M_construct_auxIPcEEvT_S7_St12__false_type
        .section        .text._ZNSt7__cxx1112basic_stringIcSt11char_traitsIcESaIcEE9_M_mutateEmmPKcm,"axG",@progbits,_ZNSt7__cxx1112basic_stringIcSt11char_traitsIcESaIcEE9_M_mutateEmmPKcm,comdat
        .align 2
        .weak   _ZNSt7__cxx1112basic_stringIcSt11char_traitsIcESaIcEE9_M_mutateEmmPKcm
        .type   _ZNSt7__cxx1112basic_stringIcSt11char_traitsIcESaIcEE9_M_mutateEmmPKcm, @function
_ZNSt7__cxx1112basic_stringIcSt11char_traitsIcESaIcEE9_M_mutateEmmPKcm:
.LFB9061:
        .file 21 "/opt/compiler-explorer/gcc-8.3.0/include/c++/8.3.0/bits/basic_string.tcc"
        .loc 21 310 5
        .cfi_startproc
        push    rbp
        .cfi_def_cfa_offset 16
        .cfi_offset 6, -16
        mov     rbp, rsp
        .cfi_def_cfa_register 6
        sub     rsp, 80
        mov     QWORD PTR [rbp-40], rdi
        mov     QWORD PTR [rbp-48], rsi
        mov     QWORD PTR [rbp-56], rdx
        mov     QWORD PTR [rbp-64], rcx
        mov     QWORD PTR [rbp-72], r8
        .loc 21 314 45
        mov     rax, QWORD PTR [rbp-40]
        mov     rdi, rax
        call    _ZNKSt7__cxx1112basic_stringIcSt11char_traitsIcESaIcEE6lengthEv
        sub     rax, QWORD PTR [rbp-48]
        .loc 21 314 23
        sub     rax, QWORD PTR [rbp-56]
        mov     QWORD PTR [rbp-8], rax
        .loc 21 316 43
        mov     rax, QWORD PTR [rbp-40]
        mov     rdi, rax
        call    _ZNKSt7__cxx1112basic_stringIcSt11char_traitsIcESaIcEE6lengthEv
        mov     rdx, rax
        mov     rax, QWORD PTR [rbp-72]
        add     rax, rdx
        .loc 21 316 52
        sub     rax, QWORD PTR [rbp-56]
        .loc 21 316 17
        mov     QWORD PTR [rbp-24], rax
        .loc 21 317 15
        mov     rax, QWORD PTR [rbp-40]
        mov     rdi, rax
        call    _ZNKSt7__cxx1112basic_stringIcSt11char_traitsIcESaIcEE8capacityEv
        mov     rdx, rax
        lea     rcx, [rbp-24]
        mov     rax, QWORD PTR [rbp-40]
        mov     rsi, rcx
        mov     rdi, rax
        call    _ZNSt7__cxx1112basic_stringIcSt11char_traitsIcESaIcEE9_M_createERmm
        mov     QWORD PTR [rbp-16], rax
        .loc 21 319 7
        cmp     QWORD PTR [rbp-48], 0
        je      .L193
        .loc 21 320 2
        mov     rax, QWORD PTR [rbp-40]
        mov     rdi, rax
        call    _ZNKSt7__cxx1112basic_stringIcSt11char_traitsIcESaIcEE7_M_dataEv
        mov     rcx, rax
        mov     rdx, QWORD PTR [rbp-48]
        mov     rax, QWORD PTR [rbp-16]
        mov     rsi, rcx
        mov     rdi, rax
        call    _ZNSt7__cxx1112basic_stringIcSt11char_traitsIcESaIcEE7_S_copyEPcPKcm
.L193:
        .loc 21 321 7
        cmp     QWORD PTR [rbp-64], 0
        je      .L194
        .loc 21 321 15 discriminator 1
        cmp     QWORD PTR [rbp-72], 0
        je      .L194
        .loc 21 322 2
        mov     rdx, QWORD PTR [rbp-16]
        mov     rax, QWORD PTR [rbp-48]
        lea     rcx, [rdx+rax]
        mov     rdx, QWORD PTR [rbp-72]
        mov     rax, QWORD PTR [rbp-64]
        mov     rsi, rax
        mov     rdi, rcx
        call    _ZNSt7__cxx1112basic_stringIcSt11char_traitsIcESaIcEE7_S_copyEPcPKcm
.L194:
        .loc 21 323 7
        cmp     QWORD PTR [rbp-8], 0
        je      .L195
        .loc 21 325 19
        mov     rax, QWORD PTR [rbp-40]
        mov     rdi, rax
        call    _ZNKSt7__cxx1112basic_stringIcSt11char_traitsIcESaIcEE7_M_dataEv
        mov     rcx, rax
        .loc 21 325 27
        mov     rdx, QWORD PTR [rbp-48]
        mov     rax, QWORD PTR [rbp-56]
        add     rax, rdx
        lea     rsi, [rcx+rax]
        .loc 21 324 28
        mov     rdx, QWORD PTR [rbp-48]
        mov     rax, QWORD PTR [rbp-72]
        add     rdx, rax
        .loc 21 324 2
        mov     rax, QWORD PTR [rbp-16]
        lea     rcx, [rdx+rax]
        mov     rax, QWORD PTR [rbp-8]
        mov     rdx, rax
        mov     rdi, rcx
        call    _ZNSt7__cxx1112basic_stringIcSt11char_traitsIcESaIcEE7_S_copyEPcPKcm
.L195:
        .loc 21 327 7
        mov     rax, QWORD PTR [rbp-40]
        mov     rdi, rax
        call    _ZNSt7__cxx1112basic_stringIcSt11char_traitsIcESaIcEE10_M_disposeEv
        .loc 21 328 7
        mov     rdx, QWORD PTR [rbp-16]
        mov     rax, QWORD PTR [rbp-40]
        mov     rsi, rdx
        mov     rdi, rax
        call    _ZNSt7__cxx1112basic_stringIcSt11char_traitsIcESaIcEE7_M_dataEPc
        .loc 21 329 7
        mov     rdx, QWORD PTR [rbp-24]
        mov     rax, QWORD PTR [rbp-40]
        mov     rsi, rdx
        mov     rdi, rax
        call    _ZNSt7__cxx1112basic_stringIcSt11char_traitsIcESaIcEE11_M_capacityEm
        .loc 21 330 5
        nop
        leave
        .cfi_def_cfa 7, 8
        ret
        .cfi_endproc
.LFE9061:
        .size   _ZNSt7__cxx1112basic_stringIcSt11char_traitsIcESaIcEE9_M_mutateEmmPKcm, .-_ZNSt7__cxx1112basic_stringIcSt11char_traitsIcESaIcEE9_M_mutateEmmPKcm
        .section        .text._ZN5Eigen10MatrixBaseINS_6MatrixIdLin1ELin1ELi0ELin1ELin1EEEEC2Ev,"axG",@progbits,_ZN5Eigen10MatrixBaseINS_6MatrixIdLin1ELin1ELi0ELin1ELin1EEEEC5Ev,comdat
        .align 2
        .weak   _ZN5Eigen10MatrixBaseINS_6MatrixIdLin1ELin1ELi0ELin1ELin1EEEEC2Ev
        .type   _ZN5Eigen10MatrixBaseINS_6MatrixIdLin1ELin1ELi0ELin1ELin1EEEEC2Ev, @function
_ZN5Eigen10MatrixBaseINS_6MatrixIdLin1ELin1ELi0ELin1ELin1EEEEC2Ev:
.LFB9063:
        .file 22 "/opt/compiler-explorer/libs/eigen/v3.3.4/Eigen/src/Core/MatrixBase.h"
        .loc 22 468 23
        .cfi_startproc
        push    rbp
        .cfi_def_cfa_offset 16
        .cfi_offset 6, -16
        mov     rbp, rsp
        .cfi_def_cfa_register 6
        sub     rsp, 16
        mov     QWORD PTR [rbp-8], rdi
.LBB48:
        .loc 22 468 43
        mov     rax, QWORD PTR [rbp-8]
        mov     rdi, rax
        call    _ZN5Eigen9DenseBaseINS_6MatrixIdLin1ELin1ELi0ELin1ELin1EEEEC2Ev
.LBE48:
        .loc 22 468 46
        nop
        leave
        .cfi_def_cfa 7, 8
        ret
        .cfi_endproc
.LFE9063:
        .size   _ZN5Eigen10MatrixBaseINS_6MatrixIdLin1ELin1ELi0ELin1ELin1EEEEC2Ev, .-_ZN5Eigen10MatrixBaseINS_6MatrixIdLin1ELin1ELi0ELin1ELin1EEEEC2Ev
        .weak   _ZN5Eigen10MatrixBaseINS_6MatrixIdLin1ELin1ELi0ELin1ELin1EEEEC1Ev
        .set    _ZN5Eigen10MatrixBaseINS_6MatrixIdLin1ELin1ELi0ELin1ELin1EEEEC1Ev,_ZN5Eigen10MatrixBaseINS_6MatrixIdLin1ELin1ELi0ELin1ELin1EEEEC2Ev
        .section        .text._ZN5Eigen12DenseStorageIdLin1ELin1ELin1ELi0EEC2Ev,"axG",@progbits,_ZN5Eigen12DenseStorageIdLin1ELin1ELin1ELi0EEC5Ev,comdat
        .align 2
        .weak   _ZN5Eigen12DenseStorageIdLin1ELin1ELin1ELi0EEC2Ev
        .type   _ZN5Eigen12DenseStorageIdLin1ELin1ELin1ELi0EEC2Ev, @function
_ZN5Eigen12DenseStorageIdLin1ELin1ELin1ELi0EEC2Ev:
.LFB9066:
        .loc 12 344 23
        .cfi_startproc
        push    rbp
        .cfi_def_cfa_offset 16
        .cfi_offset 6, -16
        mov     rbp, rsp
        .cfi_def_cfa_register 6
        mov     QWORD PTR [rbp-8], rdi
.LBB49:
        .loc 12 344 70
        mov     rax, QWORD PTR [rbp-8]
        mov     QWORD PTR [rax], 0
        mov     rax, QWORD PTR [rbp-8]
        mov     QWORD PTR [rax+8], 0
        mov     rax, QWORD PTR [rbp-8]
        mov     QWORD PTR [rax+16], 0
.LBE49:
        .loc 12 344 73
        nop
        pop     rbp
        .cfi_def_cfa 7, 8
        ret
        .cfi_endproc
.LFE9066:
        .size   _ZN5Eigen12DenseStorageIdLin1ELin1ELin1ELi0EEC2Ev, .-_ZN5Eigen12DenseStorageIdLin1ELin1ELin1ELi0EEC2Ev
        .weak   _ZN5Eigen12DenseStorageIdLin1ELin1ELin1ELi0EEC1Ev
        .set    _ZN5Eigen12DenseStorageIdLin1ELin1ELin1ELi0EEC1Ev,_ZN5Eigen12DenseStorageIdLin1ELin1ELin1ELi0EEC2Ev
        .section        .rodata
        .align 8
.LC10:
        .string "/opt/compiler-explorer/libs/eigen/v3.3.4/Eigen/src/Core/PlainObjectBase.h"
        .align 8
.LC11:
        .ascii  "(!(RowsAtCompileTime!=Dynamic) || (rows==RowsAtCompileTime))"
        .ascii  " && (!(ColsAtCompileTime!=Dynamic) || (cols==ColsAtCompileTi"
        .ascii  "me)) && (!(RowsAtCompi"
        .string "leTime==Dynamic && MaxRowsAtCompileTime!=Dynamic) || (rows<=MaxRowsAtCompileTime)) && (!(ColsAtCompileTime==Dynamic && MaxColsAtCompileTime!=Dynamic) || (cols<=MaxColsAtCompileTime)) && rows>=0 && cols>=0 && \"Invalid sizes when resizing a matrix or array.\""
        .section        .text._ZN5Eigen15PlainObjectBaseINS_6MatrixIdLin1ELin1ELi0ELin1ELin1EEEE6resizeEll,"axG",@progbits,_ZN5Eigen15PlainObjectBaseINS_6MatrixIdLin1ELin1ELi0ELin1ELin1EEEE6resizeEll,comdat
        .align 2
        .weak   _ZN5Eigen15PlainObjectBaseINS_6MatrixIdLin1ELin1ELi0ELin1ELin1EEEE6resizeEll
        .type   _ZN5Eigen15PlainObjectBaseINS_6MatrixIdLin1ELin1ELi0ELin1ELin1EEEE6resizeEll, @function
_ZN5Eigen15PlainObjectBaseINS_6MatrixIdLin1ELin1ELi0ELin1ELin1EEEE6resizeEll:
.LFB9068:
        .loc 8 279 30
        .cfi_startproc
        push    rbp
        .cfi_def_cfa_offset 16
        .cfi_offset 6, -16
        mov     rbp, rsp
        .cfi_def_cfa_register 6
        sub     rsp, 64
        mov     QWORD PTR [rbp-40], rdi
        mov     QWORD PTR [rbp-48], rsi
        mov     QWORD PTR [rbp-56], rdx
        .loc 8 281 7
        cmp     QWORD PTR [rbp-48], 0
        js      .L199
        .loc 8 281 7 is_stmt 0 discriminator 1
        cmp     QWORD PTR [rbp-56], 0
        jns     .L204
.L199:
        .loc 8 281 7 discriminator 3
        mov     ecx, OFFSET FLAT:_ZZN5Eigen15PlainObjectBaseINS_6MatrixIdLin1ELin1ELi0ELin1ELin1EEEE6resizeEllE19__PRETTY_FUNCTION__
        mov     edx, 285
        mov     esi, OFFSET FLAT:.LC10
        mov     edi, OFFSET FLAT:.LC11
        call    __assert_fail
.L204:
        mov     rax, QWORD PTR [rbp-48]
        mov     QWORD PTR [rbp-8], rax
        mov     rax, QWORD PTR [rbp-56]
        mov     QWORD PTR [rbp-16], rax
.LBB50:
.LBB51:
        .loc 8 44 11 is_stmt 1
        movabs  rax, 9223372036854775807
        mov     QWORD PTR [rbp-24], rax
        .loc 8 45 43
        cmp     QWORD PTR [rbp-8], 0
        je      .L201
        .loc 8 45 29
        cmp     QWORD PTR [rbp-16], 0
        je      .L201
        .loc 8 46 36
        mov     rax, QWORD PTR [rbp-24]
        cqo
        idiv    QWORD PTR [rbp-16]
        .loc 8 45 43
        cmp     QWORD PTR [rbp-8], rax
        jle     .L201
        mov     eax, 1
        jmp     .L202
.L201:
        mov     eax, 0
.L202:
        .loc 8 45 10
        mov     BYTE PTR [rbp-25], al
        .loc 8 47 5
        cmp     BYTE PTR [rbp-25], 0
        je      .L203
        .loc 8 48 26
        call    _ZN5Eigen8internal19throw_std_bad_allocEv
.L203:
.LBE51:
.LBE50:
        .loc 8 293 9
        mov     rax, QWORD PTR [rbp-40]
        mov     rdx, QWORD PTR [rbp-48]
        mov     rsi, rdx
        imul    rsi, QWORD PTR [rbp-56]
        mov     rcx, QWORD PTR [rbp-56]
        mov     rdx, QWORD PTR [rbp-48]
        mov     rdi, rax
        call    _ZN5Eigen12DenseStorageIdLin1ELin1ELin1ELi0EE6resizeElll
        .loc 8 295 5
        nop
        leave
        .cfi_def_cfa 7, 8
        ret
        .cfi_endproc
.LFE9068:
        .size   _ZN5Eigen15PlainObjectBaseINS_6MatrixIdLin1ELin1ELi0ELin1ELin1EEEE6resizeEll, .-_ZN5Eigen15PlainObjectBaseINS_6MatrixIdLin1ELin1ELi0ELin1ELin1EEEE6resizeEll
        .section        .text._ZN5Eigen8internal24conditional_aligned_freeILb1EEEvPv,"axG",@progbits,_ZN5Eigen8internal24conditional_aligned_freeILb1EEEvPv,comdat
        .weak   _ZN5Eigen8internal24conditional_aligned_freeILb1EEEvPv
        .type   _ZN5Eigen8internal24conditional_aligned_freeILb1EEEvPv, @function
_ZN5Eigen8internal24conditional_aligned_freeILb1EEEvPv:
.LFB9070:
        .loc 6 228 52
        .cfi_startproc
        push    rbp
        .cfi_def_cfa_offset 16
        .cfi_offset 6, -16
        mov     rbp, rsp
        .cfi_def_cfa_register 6
        sub     rsp, 16
        mov     QWORD PTR [rbp-8], rdi
        .loc 6 230 15
        mov     rax, QWORD PTR [rbp-8]
        mov     rdi, rax
        call    _ZN5Eigen8internal12aligned_freeEPv
        .loc 6 231 1
        nop
        leave
        .cfi_def_cfa 7, 8
        ret
        .cfi_endproc
.LFE9070:
        .size   _ZN5Eigen8internal24conditional_aligned_freeILb1EEEvPv, .-_ZN5Eigen8internal24conditional_aligned_freeILb1EEEvPv
        .section        .text._ZNK5Eigen9EigenBaseINS_6MatrixIdLin1ELin1ELi0ELin1ELin1EEEE7derivedEv,"axG",@progbits,_ZNK5Eigen9EigenBaseINS_6MatrixIdLin1ELin1ELi0ELin1ELin1EEEE7derivedEv,comdat
        .align 2
        .weak   _ZNK5Eigen9EigenBaseINS_6MatrixIdLin1ELin1ELi0ELin1ELin1EEEE7derivedEv
        .type   _ZNK5Eigen9EigenBaseINS_6MatrixIdLin1ELin1ELi0ELin1ELin1EEEE7derivedEv, @function
_ZNK5Eigen9EigenBaseINS_6MatrixIdLin1ELin1ELi0ELin1ELin1EEEE7derivedEv:
.LFB9071:
        .loc 15 48 18
        .cfi_startproc
        push    rbp
        .cfi_def_cfa_offset 16
        .cfi_offset 6, -16
        mov     rbp, rsp
        .cfi_def_cfa_register 6
        mov     QWORD PTR [rbp-8], rdi
        .loc 15 48 76
        mov     rax, QWORD PTR [rbp-8]
        .loc 15 48 79
        pop     rbp
        .cfi_def_cfa 7, 8
        ret
        .cfi_endproc
.LFE9071:
        .size   _ZNK5Eigen9EigenBaseINS_6MatrixIdLin1ELin1ELi0ELin1ELin1EEEE7derivedEv, .-_ZNK5Eigen9EigenBaseINS_6MatrixIdLin1ELin1ELi0ELin1ELin1EEEE7derivedEv
        .section        .text._ZNK5Eigen15PlainObjectBaseINS_6MatrixIdLin1ELin1ELi0ELin1ELin1EEEE4rowsEv,"axG",@progbits,_ZNK5Eigen15PlainObjectBaseINS_6MatrixIdLin1ELin1ELi0ELin1ELin1EEEE4rowsEv,comdat
        .align 2
        .weak   _ZNK5Eigen15PlainObjectBaseINS_6MatrixIdLin1ELin1ELi0ELin1ELin1EEEE4rowsEv
        .type   _ZNK5Eigen15PlainObjectBaseINS_6MatrixIdLin1ELin1ELi0ELin1ELin1EEEE4rowsEv, @function
_ZNK5Eigen15PlainObjectBaseINS_6MatrixIdLin1ELin1ELi0ELin1ELin1EEEE4rowsEv:
.LFB9072:
        .loc 8 151 31
        .cfi_startproc
        push    rbp
        .cfi_def_cfa_offset 16
        .cfi_offset 6, -16
        mov     rbp, rsp
        .cfi_def_cfa_register 6
        sub     rsp, 16
        mov     QWORD PTR [rbp-8], rdi
        .loc 8 151 68
        mov     rax, QWORD PTR [rbp-8]
        mov     rdi, rax
        call    _ZNK5Eigen12DenseStorageIdLin1ELin1ELin1ELi0EE4rowsEv
        .loc 8 151 71
        leave
        .cfi_def_cfa 7, 8
        ret
        .cfi_endproc
.LFE9072:
        .size   _ZNK5Eigen15PlainObjectBaseINS_6MatrixIdLin1ELin1ELi0ELin1ELin1EEEE4rowsEv, .-_ZNK5Eigen15PlainObjectBaseINS_6MatrixIdLin1ELin1ELi0ELin1ELin1EEEE4rowsEv
        .section        .text._ZNK5Eigen15PlainObjectBaseINS_6MatrixIdLin1ELin1ELi0ELin1ELin1EEEE4colsEv,"axG",@progbits,_ZNK5Eigen15PlainObjectBaseINS_6MatrixIdLin1ELin1ELi0ELin1ELin1EEEE4colsEv,comdat
        .align 2
        .weak   _ZNK5Eigen15PlainObjectBaseINS_6MatrixIdLin1ELin1ELi0ELin1ELin1EEEE4colsEv
        .type   _ZNK5Eigen15PlainObjectBaseINS_6MatrixIdLin1ELin1ELi0ELin1ELin1EEEE4colsEv, @function
_ZNK5Eigen15PlainObjectBaseINS_6MatrixIdLin1ELin1ELi0ELin1ELin1EEEE4colsEv:
.LFB9073:
        .loc 8 153 31
        .cfi_startproc
        push    rbp
        .cfi_def_cfa_offset 16
        .cfi_offset 6, -16
        mov     rbp, rsp
        .cfi_def_cfa_register 6
        sub     rsp, 16
        mov     QWORD PTR [rbp-8], rdi
        .loc 8 153 68
        mov     rax, QWORD PTR [rbp-8]
        mov     rdi, rax
        call    _ZNK5Eigen12DenseStorageIdLin1ELin1ELin1ELi0EE4colsEv
        .loc 8 153 71
        leave
        .cfi_def_cfa 7, 8
        ret
        .cfi_endproc
.LFE9073:
        .size   _ZNK5Eigen15PlainObjectBaseINS_6MatrixIdLin1ELin1ELi0ELin1ELin1EEEE4colsEv, .-_ZNK5Eigen15PlainObjectBaseINS_6MatrixIdLin1ELin1ELi0ELin1ELin1EEEE4colsEv
        .section        .text._ZN5Eigen9EigenBaseINS_6MatrixIdLin1ELin1ELi0ELin1ELin1EEEE7derivedEv,"axG",@progbits,_ZN5Eigen9EigenBaseINS_6MatrixIdLin1ELin1ELi0ELin1ELin1EEEE7derivedEv,comdat
        .align 2
        .weak   _ZN5Eigen9EigenBaseINS_6MatrixIdLin1ELin1ELi0ELin1ELin1EEEE7derivedEv
        .type   _ZN5Eigen9EigenBaseINS_6MatrixIdLin1ELin1ELi0ELin1ELin1EEEE7derivedEv, @function
_ZN5Eigen9EigenBaseINS_6MatrixIdLin1ELin1ELi0ELin1ELin1EEEE7derivedEv:
.LFB9074:
        .loc 15 45 12
        .cfi_startproc
        push    rbp
        .cfi_def_cfa_offset 16
        .cfi_offset 6, -16
        mov     rbp, rsp
        .cfi_def_cfa_register 6
        mov     QWORD PTR [rbp-8], rdi
        .loc 15 45 58
        mov     rax, QWORD PTR [rbp-8]
        .loc 15 45 61
        pop     rbp
        .cfi_def_cfa 7, 8
        ret
        .cfi_endproc
.LFE9074:
        .size   _ZN5Eigen9EigenBaseINS_6MatrixIdLin1ELin1ELi0ELin1ELin1EEEE7derivedEv, .-_ZN5Eigen9EigenBaseINS_6MatrixIdLin1ELin1ELi0ELin1ELin1EEEE7derivedEv
        .section        .text._ZN5Eigen8internal9evaluatorINS_6MatrixIdLin1ELin1ELi0ELin1ELin1EEEEC2ERKS3_,"axG",@progbits,_ZN5Eigen8internal9evaluatorINS_6MatrixIdLin1ELin1ELi0ELin1ELin1EEEEC5ERKS3_,comdat
        .align 2
        .weak   _ZN5Eigen8internal9evaluatorINS_6MatrixIdLin1ELin1ELi0ELin1ELin1EEEEC2ERKS3_
        .type   _ZN5Eigen8internal9evaluatorINS_6MatrixIdLin1ELin1ELi0ELin1ELin1EEEEC2ERKS3_, @function
_ZN5Eigen8internal9evaluatorINS_6MatrixIdLin1ELin1ELi0ELin1ELin1EEEEC2ERKS3_:
.LFB9076:
        .loc 16 243 30
        .cfi_startproc
        push    rbp
        .cfi_def_cfa_offset 16
        .cfi_offset 6, -16
        mov     rbp, rsp
        .cfi_def_cfa_register 6
        sub     rsp, 16
        mov     QWORD PTR [rbp-8], rdi
        mov     QWORD PTR [rbp-16], rsi
.LBB52:
        .loc 16 244 45
        mov     rax, QWORD PTR [rbp-8]
        mov     rdx, QWORD PTR [rbp-16]
        mov     rsi, rdx
        mov     rdi, rax
        call    _ZN5Eigen8internal9evaluatorINS_15PlainObjectBaseINS_6MatrixIdLin1ELin1ELi0ELin1ELin1EEEEEEC2ERKS5_
.LBE52:
        .loc 16 245 5
        nop
        leave
        .cfi_def_cfa 7, 8
        ret
        .cfi_endproc
.LFE9076:
        .size   _ZN5Eigen8internal9evaluatorINS_6MatrixIdLin1ELin1ELi0ELin1ELin1EEEEC2ERKS3_, .-_ZN5Eigen8internal9evaluatorINS_6MatrixIdLin1ELin1ELi0ELin1ELin1EEEEC2ERKS3_
        .weak   _ZN5Eigen8internal9evaluatorINS_6MatrixIdLin1ELin1ELi0ELin1ELin1EEEEC1ERKS3_
        .set    _ZN5Eigen8internal9evaluatorINS_6MatrixIdLin1ELin1ELi0ELin1ELin1EEEEC1ERKS3_,_ZN5Eigen8internal9evaluatorINS_6MatrixIdLin1ELin1ELi0ELin1ELin1EEEEC2ERKS3_
        .section        .text._ZN5Eigen8internal9evaluatorINS_15PlainObjectBaseINS_6MatrixIdLin1ELin1ELi0ELin1ELin1EEEEEE8coeffRefEll,"axG",@progbits,_ZN5Eigen8internal9evaluatorINS_15PlainObjectBaseINS_6MatrixIdLin1ELin1ELi0ELin1ELin1EEEEEE8coeffRefEll,comdat
        .align 2
        .weak   _ZN5Eigen8internal9evaluatorINS_15PlainObjectBaseINS_6MatrixIdLin1ELin1ELi0ELin1ELin1EEEEEE8coeffRefEll
        .type   _ZN5Eigen8internal9evaluatorINS_15PlainObjectBaseINS_6MatrixIdLin1ELin1ELi0ELin1ELin1EEEEEE8coeffRefEll, @function
_ZN5Eigen8internal9evaluatorINS_15PlainObjectBaseINS_6MatrixIdLin1ELin1ELi0ELin1ELin1EEEEEE8coeffRefEll:
.LFB9078:
        .loc 16 176 11
        .cfi_startproc
        push    rbp
        .cfi_def_cfa_offset 16
        .cfi_offset 6, -16
        mov     rbp, rsp
        .cfi_def_cfa_register 6
        push    rbx
        sub     rsp, 40
        .cfi_offset 3, -24
        mov     QWORD PTR [rbp-24], rdi
        mov     QWORD PTR [rbp-32], rsi
        mov     QWORD PTR [rbp-40], rdx
        .loc 16 181 34
        mov     rax, QWORD PTR [rbp-24]
        mov     rbx, QWORD PTR [rax]
        .loc 16 181 52
        mov     rax, QWORD PTR [rbp-24]
        add     rax, 8
        mov     rdi, rax
        call    _ZNK5Eigen8internal19variable_if_dynamicIlLin1EE5valueEv
        imul    rax, QWORD PTR [rbp-40]
        mov     rdx, rax
        .loc 16 181 46
        mov     rax, QWORD PTR [rbp-32]
        add     rax, rdx
        .loc 16 181 41
        sal     rax, 3
        .loc 16 181 75
        add     rax, rbx
        .loc 16 182 3
        add     rsp, 40
        pop     rbx
        pop     rbp
        .cfi_def_cfa 7, 8
        ret
        .cfi_endproc
.LFE9078:
        .size   _ZN5Eigen8internal9evaluatorINS_15PlainObjectBaseINS_6MatrixIdLin1ELin1ELi0ELin1ELin1EEEEEE8coeffRefEll, .-_ZN5Eigen8internal9evaluatorINS_15PlainObjectBaseINS_6MatrixIdLin1ELin1ELi0ELin1ELin1EEEEEE8coeffRefEll
        .section        .text._ZNK5Eigen9EigenBaseINS_6MatrixIdLin1ELin1ELi0ELin1ELin1EEEE4sizeEv,"axG",@progbits,_ZNK5Eigen9EigenBaseINS_6MatrixIdLin1ELin1ELi0ELin1ELin1EEEE4sizeEv,comdat
        .align 2
        .weak   _ZNK5Eigen9EigenBaseINS_6MatrixIdLin1ELin1ELi0ELin1ELin1EEEE4sizeEv
        .type   _ZNK5Eigen9EigenBaseINS_6MatrixIdLin1ELin1ELi0ELin1ELin1EEEE4sizeEv, @function
_ZNK5Eigen9EigenBaseINS_6MatrixIdLin1ELin1ELi0ELin1ELin1EEEE4sizeEv:
.LFB9079:
        .loc 15 66 16
        .cfi_startproc
        push    rbp
        .cfi_def_cfa_offset 16
        .cfi_offset 6, -16
        mov     rbp, rsp
        .cfi_def_cfa_register 6
        push    rbx
        sub     rsp, 24
        .cfi_offset 3, -24
        mov     QWORD PTR [rbp-24], rdi
        .loc 15 66 45
        mov     rax, QWORD PTR [rbp-24]
        mov     rdi, rax
        call    _ZNK5Eigen9EigenBaseINS_6MatrixIdLin1ELin1ELi0ELin1ELin1EEEE4rowsEv
        mov     rbx, rax
        mov     rax, QWORD PTR [rbp-24]
        mov     rdi, rax
        call    _ZNK5Eigen9EigenBaseINS_6MatrixIdLin1ELin1ELi0ELin1ELin1EEEE4colsEv
        .loc 15 66 52
        imul    rax, rbx
        .loc 15 66 55
        add     rsp, 24
        pop     rbx
        pop     rbp
        .cfi_def_cfa 7, 8
        ret
        .cfi_endproc
.LFE9079:
        .size   _ZNK5Eigen9EigenBaseINS_6MatrixIdLin1ELin1ELi0ELin1ELin1EEEE4sizeEv, .-_ZNK5Eigen9EigenBaseINS_6MatrixIdLin1ELin1ELi0ELin1ELin1EEEE4sizeEv
        .section        .text._ZN5Eigen8internal25significant_decimals_implIdE3runEv,"axG",@progbits,_ZN5Eigen8internal25significant_decimals_implIdE3runEv,comdat
        .weak   _ZN5Eigen8internal25significant_decimals_implIdE3runEv
        .type   _ZN5Eigen8internal25significant_decimals_implIdE3runEv, @function
_ZN5Eigen8internal25significant_decimals_implIdE3runEv:
.LFB9081:
        .loc 7 120 21
        .cfi_startproc
        push    rbp
        .cfi_def_cfa_offset 16
        .cfi_offset 6, -16
        mov     rbp, rsp
        .cfi_def_cfa_register 6
        .loc 7 122 39
        call    _ZN5Eigen16GenericNumTraitsIdE8digits10Ev
        .loc 7 123 3
        pop     rbp
        .cfi_def_cfa 7, 8
        ret
        .cfi_endproc
.LFE9081:
        .size   _ZN5Eigen8internal25significant_decimals_implIdE3runEv, .-_ZN5Eigen8internal25significant_decimals_implIdE3runEv
        .section        .text._ZNK5Eigen15PlainObjectBaseINS_6MatrixIdLin1ELin1ELi0ELin1ELin1EEEE5coeffEll,"axG",@progbits,_ZNK5Eigen15PlainObjectBaseINS_6MatrixIdLin1ELin1ELi0ELin1ELin1EEEE5coeffEll,comdat
        .align 2
        .weak   _ZNK5Eigen15PlainObjectBaseINS_6MatrixIdLin1ELin1ELi0ELin1ELin1EEEE5coeffEll
        .type   _ZNK5Eigen15PlainObjectBaseINS_6MatrixIdLin1ELin1ELi0ELin1ELin1EEEE5coeffEll, @function
_ZNK5Eigen15PlainObjectBaseINS_6MatrixIdLin1ELin1ELi0ELin1ELin1EEEE5coeffEll:
.LFB9093:
        .loc 8 160 39
        .cfi_startproc
        push    rbp
        .cfi_def_cfa_offset 16
        .cfi_offset 6, -16
        mov     rbp, rsp
        .cfi_def_cfa_register 6
        push    rbx
        sub     rsp, 40
        .cfi_offset 3, -24
        mov     QWORD PTR [rbp-24], rdi
        mov     QWORD PTR [rbp-32], rsi
        mov     QWORD PTR [rbp-40], rdx
        .loc 8 165 32
        mov     rax, QWORD PTR [rbp-24]
        mov     rdi, rax
        call    _ZNK5Eigen12DenseStorageIdLin1ELin1ELin1ELi0EE4dataEv
        mov     rbx, rax
        .loc 8 165 47
        mov     rax, QWORD PTR [rbp-24]
        mov     rdi, rax
        call    _ZNK5Eigen12DenseStorageIdLin1ELin1ELin1ELi0EE4rowsEv
        imul    rax, QWORD PTR [rbp-40]
        mov     rdx, rax
        .loc 8 165 39
        mov     rax, QWORD PTR [rbp-32]
        add     rax, rdx
        .loc 8 165 32
        sal     rax, 3
        .loc 8 165 65
        add     rax, rbx
        .loc 8 166 5
        add     rsp, 40
        pop     rbx
        pop     rbp
        .cfi_def_cfa 7, 8
        ret
        .cfi_endproc
.LFE9093:
        .size   _ZNK5Eigen15PlainObjectBaseINS_6MatrixIdLin1ELin1ELi0ELin1ELin1EEEE5coeffEll, .-_ZNK5Eigen15PlainObjectBaseINS_6MatrixIdLin1ELin1ELi0ELin1ELin1EEEE5coeffEll
        .section        .text._ZSt3maxIlERKT_S2_S2_,"axG",@progbits,_ZSt3maxIlERKT_S2_S2_,comdat
        .weak   _ZSt3maxIlERKT_S2_S2_
        .type   _ZSt3maxIlERKT_S2_S2_, @function
_ZSt3maxIlERKT_S2_S2_:
.LFB9096:
        .file 23 "/opt/compiler-explorer/gcc-8.3.0/include/c++/8.3.0/bits/stl_algobase.h"
        .loc 23 219 5
        .cfi_startproc
        push    rbp
        .cfi_def_cfa_offset 16
        .cfi_offset 6, -16
        mov     rbp, rsp
        .cfi_def_cfa_register 6
        mov     QWORD PTR [rbp-8], rdi
        mov     QWORD PTR [rbp-16], rsi
        .loc 23 224 15
        mov     rax, QWORD PTR [rbp-8]
        mov     rdx, QWORD PTR [rax]
        mov     rax, QWORD PTR [rbp-16]
        mov     rax, QWORD PTR [rax]
        .loc 23 224 7
        cmp     rdx, rax
        jge     .L224
        .loc 23 225 9
        mov     rax, QWORD PTR [rbp-16]
        jmp     .L225
.L224:
        .loc 23 226 14
        mov     rax, QWORD PTR [rbp-8]
.L225:
        .loc 23 227 5
        pop     rbp
        .cfi_def_cfa 7, 8
        ret
        .cfi_endproc
.LFE9096:
        .size   _ZSt3maxIlERKT_S2_S2_, .-_ZSt3maxIlERKT_S2_S2_
        .section        .text._ZNKSt7__cxx1112basic_stringIcSt11char_traitsIcESaIcEE13_M_local_dataEv,"axG",@progbits,_ZNKSt7__cxx1112basic_stringIcSt11char_traitsIcESaIcEE13_M_local_dataEv,comdat
        .align 2
        .weak   _ZNKSt7__cxx1112basic_stringIcSt11char_traitsIcESaIcEE13_M_local_dataEv
        .type   _ZNKSt7__cxx1112basic_stringIcSt11char_traitsIcESaIcEE13_M_local_dataEv, @function
_ZNKSt7__cxx1112basic_stringIcSt11char_traitsIcESaIcEE13_M_local_dataEv:
.LFB9098:
        .loc 11 189 7
        .cfi_startproc
        push    rbp
        .cfi_def_cfa_offset 16
        .cfi_offset 6, -16
        mov     rbp, rsp
        .cfi_def_cfa_register 6
        sub     rsp, 16
        mov     QWORD PTR [rbp-8], rdi
        .loc 11 192 57
        mov     rax, QWORD PTR [rbp-8]
        add     rax, 16
        .loc 11 192 55
        mov     rdi, rax
        call    _ZNSt14pointer_traitsIPKcE10pointer_toERS0_
        .loc 11 196 7
        leave
        .cfi_def_cfa 7, 8
        ret
        .cfi_endproc
.LFE9098:
        .size   _ZNKSt7__cxx1112basic_stringIcSt11char_traitsIcESaIcEE13_M_local_dataEv, .-_ZNKSt7__cxx1112basic_stringIcSt11char_traitsIcESaIcEE13_M_local_dataEv
        .section        .text._ZNSt16allocator_traitsISaIcEE10deallocateERS0_Pcm,"axG",@progbits,_ZNSt16allocator_traitsISaIcEE10deallocateERS0_Pcm,comdat
        .weak   _ZNSt16allocator_traitsISaIcEE10deallocateERS0_Pcm
        .type   _ZNSt16allocator_traitsISaIcEE10deallocateERS0_Pcm, @function
_ZNSt16allocator_traitsISaIcEE10deallocateERS0_Pcm:
.LFB9099:
        .loc 20 461 7
        .cfi_startproc
        push    rbp
        .cfi_def_cfa_offset 16
        .cfi_offset 6, -16
        mov     rbp, rsp
        .cfi_def_cfa_register 6
        sub     rsp, 32
        mov     QWORD PTR [rbp-8], rdi
        mov     QWORD PTR [rbp-16], rsi
        mov     QWORD PTR [rbp-24], rdx
        .loc 20 462 9
        mov     rdx, QWORD PTR [rbp-24]
        mov     rcx, QWORD PTR [rbp-16]
        mov     rax, QWORD PTR [rbp-8]
        mov     rsi, rcx
        mov     rdi, rax
        call    _ZN9__gnu_cxx13new_allocatorIcE10deallocateEPcm
        .loc 20 462 35
        nop
        leave
        .cfi_def_cfa 7, 8
        ret
        .cfi_endproc
.LFE9099:
        .size   _ZNSt16allocator_traitsISaIcEE10deallocateERS0_Pcm, .-_ZNSt16allocator_traitsISaIcEE10deallocateERS0_Pcm
        .section        .text._ZSt9addressofIcEPT_RS0_,"axG",@progbits,_ZSt9addressofIcEPT_RS0_,comdat
        .weak   _ZSt9addressofIcEPT_RS0_
        .type   _ZSt9addressofIcEPT_RS0_, @function
_ZSt9addressofIcEPT_RS0_:
.LFB9104:
        .loc 19 138 5
        .cfi_startproc
        push    rbp
        .cfi_def_cfa_offset 16
        .cfi_offset 6, -16
        mov     rbp, rsp
        .cfi_def_cfa_register 6
        sub     rsp, 16
        mov     QWORD PTR [rbp-8], rdi
        .loc 19 139 30
        mov     rax, QWORD PTR [rbp-8]
        mov     rdi, rax
        call    _ZSt11__addressofIcEPT_RS0_
        .loc 19 139 37
        leave
        .cfi_def_cfa 7, 8
        ret
        .cfi_endproc
.LFE9104:
        .size   _ZSt9addressofIcEPT_RS0_, .-_ZSt9addressofIcEPT_RS0_
        .section        .text._ZSt8distanceIPKcENSt15iterator_traitsIT_E15difference_typeES3_S3_,"axG",@progbits,_ZSt8distanceIPKcENSt15iterator_traitsIT_E15difference_typeES3_S3_,comdat
        .weak   _ZSt8distanceIPKcENSt15iterator_traitsIT_E15difference_typeES3_S3_
        .type   _ZSt8distanceIPKcENSt15iterator_traitsIT_E15difference_typeES3_S3_, @function
_ZSt8distanceIPKcENSt15iterator_traitsIT_E15difference_typeES3_S3_:
.LFB9109:
        .file 24 "/opt/compiler-explorer/gcc-8.3.0/include/c++/8.3.0/bits/stl_iterator_base_funcs.h"
        .loc 24 138 5
        .cfi_startproc
        push    rbp
        .cfi_def_cfa_offset 16
        .cfi_offset 6, -16
        mov     rbp, rsp
        .cfi_def_cfa_register 6
        sub     rsp, 16
        mov     QWORD PTR [rbp-8], rdi
        mov     QWORD PTR [rbp-16], rsi
        .loc 24 142 33
        lea     rax, [rbp-8]
        mov     rdi, rax
        call    _ZSt19__iterator_categoryIPKcENSt15iterator_traitsIT_E17iterator_categoryERKS3_
        .loc 24 141 29
        mov     rax, QWORD PTR [rbp-8]
        mov     rdx, QWORD PTR [rbp-16]
        mov     rsi, rdx
        mov     rdi, rax
        call    _ZSt10__distanceIPKcENSt15iterator_traitsIT_E15difference_typeES3_S3_St26random_access_iterator_tag
        .loc 24 143 5
        leave
        .cfi_def_cfa 7, 8
        ret
        .cfi_endproc
.LFE9109:
        .size   _ZSt8distanceIPKcENSt15iterator_traitsIT_E15difference_typeES3_S3_, .-_ZSt8distanceIPKcENSt15iterator_traitsIT_E15difference_typeES3_S3_
        .section        .rodata
        .align 8
.LC12:
        .string "basic_string::_M_construct null not valid"
        .section        .text._ZNSt7__cxx1112basic_stringIcSt11char_traitsIcESaIcEE12_M_constructIPKcEEvT_S8_St20forward_iterator_tag,"axG",@progbits,_ZNSt7__cxx1112basic_stringIcSt11char_traitsIcESaIcEE12_M_constructIPKcEEvT_S8_St20forward_iterator_tag,comdat
        .align 2
        .weak   _ZNSt7__cxx1112basic_stringIcSt11char_traitsIcESaIcEE12_M_constructIPKcEEvT_S8_St20forward_iterator_tag
        .type   _ZNSt7__cxx1112basic_stringIcSt11char_traitsIcESaIcEE12_M_constructIPKcEEvT_S8_St20forward_iterator_tag, @function
_ZNSt7__cxx1112basic_stringIcSt11char_traitsIcESaIcEE12_M_constructIPKcEEvT_S8_St20forward_iterator_tag:
.LFB9108:
        .loc 21 206 7
        .cfi_startproc
        push    rbp
        .cfi_def_cfa_offset 16
        .cfi_offset 6, -16
        mov     rbp, rsp
        .cfi_def_cfa_register 6
        sub     rsp, 48
        mov     QWORD PTR [rbp-24], rdi
        mov     QWORD PTR [rbp-32], rsi
        mov     QWORD PTR [rbp-40], rdx
        .loc 21 211 34
        mov     rax, QWORD PTR [rbp-32]
        mov     rdi, rax
        call    _ZN9__gnu_cxx17__is_null_pointerIKcEEbPT_
        .loc 21 211 42
        test    al, al
        je      .L234
        .loc 21 211 42 is_stmt 0 discriminator 1
        mov     rax, QWORD PTR [rbp-32]
        cmp     rax, QWORD PTR [rbp-40]
        je      .L234
        .loc 21 211 42 discriminator 3
        mov     eax, 1
        jmp     .L235
.L234:
        .loc 21 211 42 discriminator 4
        mov     eax, 0
.L235:
        .loc 21 211 2 is_stmt 1 discriminator 6
        test    al, al
        je      .L236
        .loc 21 212 28
        mov     edi, OFFSET FLAT:.LC12
        call    _ZSt19__throw_logic_errorPKc
.L236:
        .loc 21 215 57
        mov     rdx, QWORD PTR [rbp-40]
        mov     rax, QWORD PTR [rbp-32]
        mov     rsi, rdx
        mov     rdi, rax
        call    _ZSt8distanceIPKcENSt15iterator_traitsIT_E15difference_typeES3_S3_
        .loc 21 215 12
        mov     QWORD PTR [rbp-8], rax
        .loc 21 217 13
        mov     rax, QWORD PTR [rbp-8]
        .loc 21 217 2
        cmp     rax, 15
        jbe     .L237
        .loc 21 219 6
        lea     rcx, [rbp-8]
        mov     rax, QWORD PTR [rbp-24]
        mov     edx, 0
        mov     rsi, rcx
        mov     rdi, rax
        call    _ZNSt7__cxx1112basic_stringIcSt11char_traitsIcESaIcEE9_M_createERmm
        mov     rdx, rax
        mov     rax, QWORD PTR [rbp-24]
        mov     rsi, rdx
        mov     rdi, rax
        call    _ZNSt7__cxx1112basic_stringIcSt11char_traitsIcESaIcEE7_M_dataEPc
        .loc 21 220 6
        mov     rdx, QWORD PTR [rbp-8]
        mov     rax, QWORD PTR [rbp-24]
        mov     rsi, rdx
        mov     rdi, rax
        call    _ZNSt7__cxx1112basic_stringIcSt11char_traitsIcESaIcEE11_M_capacityEm
.L237:
        .loc 21 225 6
        mov     rax, QWORD PTR [rbp-24]
        mov     rdi, rax
        call    _ZNKSt7__cxx1112basic_stringIcSt11char_traitsIcESaIcEE7_M_dataEv
        mov     rcx, rax
        mov     rdx, QWORD PTR [rbp-40]
        mov     rax, QWORD PTR [rbp-32]
        mov     rsi, rax
        mov     rdi, rcx
        call    _ZNSt7__cxx1112basic_stringIcSt11char_traitsIcESaIcEE13_S_copy_charsEPcPKcS7_
        .loc 21 232 2
        mov     rdx, QWORD PTR [rbp-8]
        mov     rax, QWORD PTR [rbp-24]
        mov     rsi, rdx
        mov     rdi, rax
        call    _ZNSt7__cxx1112basic_stringIcSt11char_traitsIcESaIcEE13_M_set_lengthEm
        .loc 21 233 7
        nop
        leave
        .cfi_def_cfa 7, 8
        ret
        .cfi_endproc
.LFE9108:
        .size   _ZNSt7__cxx1112basic_stringIcSt11char_traitsIcESaIcEE12_M_constructIPKcEEvT_S8_St20forward_iterator_tag, .-_ZNSt7__cxx1112basic_stringIcSt11char_traitsIcESaIcEE12_M_constructIPKcEEvT_S8_St20forward_iterator_tag
        .section        .text._ZNKSt7__cxx1112basic_stringIcSt11char_traitsIcESaIcEE8max_sizeEv,"axG",@progbits,_ZNKSt7__cxx1112basic_stringIcSt11char_traitsIcESaIcEE8max_sizeEv,comdat
        .align 2
        .weak   _ZNKSt7__cxx1112basic_stringIcSt11char_traitsIcESaIcEE8max_sizeEv
        .type   _ZNKSt7__cxx1112basic_stringIcSt11char_traitsIcESaIcEE8max_sizeEv, @function
_ZNKSt7__cxx1112basic_stringIcSt11char_traitsIcESaIcEE8max_sizeEv:
.LFB9134:
        .loc 11 941 7
        .cfi_startproc
        push    rbp
        .cfi_def_cfa_offset 16
        .cfi_offset 6, -16
        mov     rbp, rsp
        .cfi_def_cfa_register 6
        sub     rsp, 16
        mov     QWORD PTR [rbp-8], rdi
        .loc 11 942 40
        mov     rax, QWORD PTR [rbp-8]
        mov     rdi, rax
        call    _ZNKSt7__cxx1112basic_stringIcSt11char_traitsIcESaIcEE16_M_get_allocatorEv
        mov     rdi, rax
        call    _ZNSt16allocator_traitsISaIcEE8max_sizeERKS0_
        .loc 11 942 61
        sub     rax, 1
        .loc 11 942 68
        shr     rax
        .loc 11 942 71
        leave
        .cfi_def_cfa 7, 8
        ret
        .cfi_endproc
.LFE9134:
        .size   _ZNKSt7__cxx1112basic_stringIcSt11char_traitsIcESaIcEE8max_sizeEv, .-_ZNKSt7__cxx1112basic_stringIcSt11char_traitsIcESaIcEE8max_sizeEv
        .section        .text._ZNSt7__cxx1112basic_stringIcSt11char_traitsIcESaIcEE7_S_copyEPcPKcm,"axG",@progbits,_ZNSt7__cxx1112basic_stringIcSt11char_traitsIcESaIcEE7_S_copyEPcPKcm,comdat
        .weak   _ZNSt7__cxx1112basic_stringIcSt11char_traitsIcESaIcEE7_S_copyEPcPKcm
        .type   _ZNSt7__cxx1112basic_stringIcSt11char_traitsIcESaIcEE7_S_copyEPcPKcm, @function
_ZNSt7__cxx1112basic_stringIcSt11char_traitsIcESaIcEE7_S_copyEPcPKcm:
.LFB9135:
        .loc 11 335 7
        .cfi_startproc
        push    rbp
        .cfi_def_cfa_offset 16
        .cfi_offset 6, -16
        mov     rbp, rsp
        .cfi_def_cfa_register 6
        sub     rsp, 32
        mov     QWORD PTR [rbp-8], rdi
        mov     QWORD PTR [rbp-16], rsi
        mov     QWORD PTR [rbp-24], rdx
        .loc 11 337 2
        cmp     QWORD PTR [rbp-24], 1
        jne     .L241
        .loc 11 338 23
        mov     rdx, QWORD PTR [rbp-16]
        mov     rax, QWORD PTR [rbp-8]
        mov     rsi, rdx
        mov     rdi, rax
        call    _ZNSt11char_traitsIcE6assignERcRKc
        .loc 11 341 7
        jmp     .L243
.L241:
        .loc 11 340 21
        mov     rdx, QWORD PTR [rbp-24]
        mov     rcx, QWORD PTR [rbp-16]
        mov     rax, QWORD PTR [rbp-8]
        mov     rsi, rcx
        mov     rdi, rax
        call    _ZNSt11char_traitsIcE4copyEPcPKcm
.L243:
        .loc 11 341 7
        nop
        leave
        .cfi_def_cfa 7, 8
        ret
        .cfi_endproc
.LFE9135:
        .size   _ZNSt7__cxx1112basic_stringIcSt11char_traitsIcESaIcEE7_S_copyEPcPKcm, .-_ZNSt7__cxx1112basic_stringIcSt11char_traitsIcESaIcEE7_S_copyEPcPKcm
        .section        .text._ZSt8distanceIPcENSt15iterator_traitsIT_E15difference_typeES2_S2_,"axG",@progbits,_ZSt8distanceIPcENSt15iterator_traitsIT_E15difference_typeES2_S2_,comdat
        .weak   _ZSt8distanceIPcENSt15iterator_traitsIT_E15difference_typeES2_S2_
        .type   _ZSt8distanceIPcENSt15iterator_traitsIT_E15difference_typeES2_S2_, @function
_ZSt8distanceIPcENSt15iterator_traitsIT_E15difference_typeES2_S2_:
.LFB9151:
        .loc 24 138 5
        .cfi_startproc
        push    rbp
        .cfi_def_cfa_offset 16
        .cfi_offset 6, -16
        mov     rbp, rsp
        .cfi_def_cfa_register 6
        sub     rsp, 16
        mov     QWORD PTR [rbp-8], rdi
        mov     QWORD PTR [rbp-16], rsi
        .loc 24 142 33
        lea     rax, [rbp-8]
        mov     rdi, rax
        call    _ZSt19__iterator_categoryIPcENSt15iterator_traitsIT_E17iterator_categoryERKS2_
        .loc 24 141 29
        mov     rax, QWORD PTR [rbp-8]
        mov     rdx, QWORD PTR [rbp-16]
        mov     rsi, rdx
        mov     rdi, rax
        call    _ZSt10__distanceIPcENSt15iterator_traitsIT_E15difference_typeES2_S2_St26random_access_iterator_tag
        .loc 24 143 5
        leave
        .cfi_def_cfa 7, 8
        ret
        .cfi_endproc
.LFE9151:
        .size   _ZSt8distanceIPcENSt15iterator_traitsIT_E15difference_typeES2_S2_, .-_ZSt8distanceIPcENSt15iterator_traitsIT_E15difference_typeES2_S2_
        .section        .text._ZNSt7__cxx1112basic_stringIcSt11char_traitsIcESaIcEE12_M_constructIPcEEvT_S7_St20forward_iterator_tag,"axG",@progbits,_ZNSt7__cxx1112basic_stringIcSt11char_traitsIcESaIcEE12_M_constructIPcEEvT_S7_St20forward_iterator_tag,comdat
        .align 2
        .weak   _ZNSt7__cxx1112basic_stringIcSt11char_traitsIcESaIcEE12_M_constructIPcEEvT_S7_St20forward_iterator_tag
        .type   _ZNSt7__cxx1112basic_stringIcSt11char_traitsIcESaIcEE12_M_constructIPcEEvT_S7_St20forward_iterator_tag, @function
_ZNSt7__cxx1112basic_stringIcSt11char_traitsIcESaIcEE12_M_constructIPcEEvT_S7_St20forward_iterator_tag:
.LFB9150:
        .loc 21 206 7
        .cfi_startproc
        push    rbp
        .cfi_def_cfa_offset 16
        .cfi_offset 6, -16
        mov     rbp, rsp
        .cfi_def_cfa_register 6
        sub     rsp, 48
        mov     QWORD PTR [rbp-24], rdi
        mov     QWORD PTR [rbp-32], rsi
        mov     QWORD PTR [rbp-40], rdx
        .loc 21 211 34
        mov     rax, QWORD PTR [rbp-32]
        mov     rdi, rax
        call    _ZN9__gnu_cxx17__is_null_pointerIcEEbPT_
        .loc 21 211 42
        test    al, al
        je      .L247
        .loc 21 211 42 is_stmt 0 discriminator 1
        mov     rax, QWORD PTR [rbp-32]
        cmp     rax, QWORD PTR [rbp-40]
        je      .L247
        .loc 21 211 42 discriminator 3
        mov     eax, 1
        jmp     .L248
.L247:
        .loc 21 211 42 discriminator 4
        mov     eax, 0
.L248:
        .loc 21 211 2 is_stmt 1 discriminator 6
        test    al, al
        je      .L249
        .loc 21 212 28
        mov     edi, OFFSET FLAT:.LC12
        call    _ZSt19__throw_logic_errorPKc
.L249:
        .loc 21 215 57
        mov     rdx, QWORD PTR [rbp-40]
        mov     rax, QWORD PTR [rbp-32]
        mov     rsi, rdx
        mov     rdi, rax
        call    _ZSt8distanceIPcENSt15iterator_traitsIT_E15difference_typeES2_S2_
        .loc 21 215 12
        mov     QWORD PTR [rbp-8], rax
        .loc 21 217 13
        mov     rax, QWORD PTR [rbp-8]
        .loc 21 217 2
        cmp     rax, 15
        jbe     .L250
        .loc 21 219 6
        lea     rcx, [rbp-8]
        mov     rax, QWORD PTR [rbp-24]
        mov     edx, 0
        mov     rsi, rcx
        mov     rdi, rax
        call    _ZNSt7__cxx1112basic_stringIcSt11char_traitsIcESaIcEE9_M_createERmm
        mov     rdx, rax
        mov     rax, QWORD PTR [rbp-24]
        mov     rsi, rdx
        mov     rdi, rax
        call    _ZNSt7__cxx1112basic_stringIcSt11char_traitsIcESaIcEE7_M_dataEPc
        .loc 21 220 6
        mov     rdx, QWORD PTR [rbp-8]
        mov     rax, QWORD PTR [rbp-24]
        mov     rsi, rdx
        mov     rdi, rax
        call    _ZNSt7__cxx1112basic_stringIcSt11char_traitsIcESaIcEE11_M_capacityEm
.L250:
        .loc 21 225 6
        mov     rax, QWORD PTR [rbp-24]
        mov     rdi, rax
        call    _ZNKSt7__cxx1112basic_stringIcSt11char_traitsIcESaIcEE7_M_dataEv
        mov     rcx, rax
        mov     rdx, QWORD PTR [rbp-40]
        mov     rax, QWORD PTR [rbp-32]
        mov     rsi, rax
        mov     rdi, rcx
        call    _ZNSt7__cxx1112basic_stringIcSt11char_traitsIcESaIcEE13_S_copy_charsEPcS5_S5_
        .loc 21 232 2
        mov     rdx, QWORD PTR [rbp-8]
        mov     rax, QWORD PTR [rbp-24]
        mov     rsi, rdx
        mov     rdi, rax
        call    _ZNSt7__cxx1112basic_stringIcSt11char_traitsIcESaIcEE13_M_set_lengthEm
        .loc 21 233 7
        nop
        leave
        .cfi_def_cfa 7, 8
        ret
        .cfi_endproc
.LFE9150:
        .size   _ZNSt7__cxx1112basic_stringIcSt11char_traitsIcESaIcEE12_M_constructIPcEEvT_S7_St20forward_iterator_tag, .-_ZNSt7__cxx1112basic_stringIcSt11char_traitsIcESaIcEE12_M_constructIPcEEvT_S7_St20forward_iterator_tag
        .section        .rodata
.LC13:
        .string "basic_string::_M_create"
        .section        .text._ZNSt7__cxx1112basic_stringIcSt11char_traitsIcESaIcEE9_M_createERmm,"axG",@progbits,_ZNSt7__cxx1112basic_stringIcSt11char_traitsIcESaIcEE9_M_createERmm,comdat
        .align 2
        .weak   _ZNSt7__cxx1112basic_stringIcSt11char_traitsIcESaIcEE9_M_createERmm
        .type   _ZNSt7__cxx1112basic_stringIcSt11char_traitsIcESaIcEE9_M_createERmm, @function
_ZNSt7__cxx1112basic_stringIcSt11char_traitsIcESaIcEE9_M_createERmm:
.LFB9152:
        .loc 21 132 5
        .cfi_startproc
        push    rbp
        .cfi_def_cfa_offset 16
        .cfi_offset 6, -16
        mov     rbp, rsp
        .cfi_def_cfa_register 6
        push    rbx
        sub     rsp, 40
        .cfi_offset 3, -24
        mov     QWORD PTR [rbp-24], rdi
        mov     QWORD PTR [rbp-32], rsi
        mov     QWORD PTR [rbp-40], rdx
        .loc 21 137 22
        mov     rax, QWORD PTR [rbp-32]
        mov     rbx, QWORD PTR [rax]
        mov     rax, QWORD PTR [rbp-24]
        mov     rdi, rax
        call    _ZNKSt7__cxx1112basic_stringIcSt11char_traitsIcESaIcEE8max_sizeEv
        cmp     rbx, rax
        seta    al
        .loc 21 137 7
        test    al, al
        je      .L252
        .loc 21 138 27
        mov     edi, OFFSET FLAT:.LC13
        call    _ZSt20__throw_length_errorPKc
.L252:
        .loc 21 143 22
        mov     rax, QWORD PTR [rbp-32]
        mov     rax, QWORD PTR [rax]
        .loc 21 143 7
        cmp     QWORD PTR [rbp-40], rax
        jnb     .L253
        .loc 21 143 53 discriminator 1
        mov     rax, QWORD PTR [rbp-32]
        mov     rax, QWORD PTR [rax]
        .loc 21 143 57 discriminator 1
        mov     rdx, QWORD PTR [rbp-40]
        add     rdx, rdx
        .loc 21 143 39 discriminator 1
        cmp     rax, rdx
        jnb     .L253
        .loc 21 145 19
        mov     rax, QWORD PTR [rbp-40]
        lea     rdx, [rax+rax]
        .loc 21 145 4
        mov     rax, QWORD PTR [rbp-32]
        mov     QWORD PTR [rax], rdx
        .loc 21 147 19
        mov     rax, QWORD PTR [rbp-32]
        mov     rbx, QWORD PTR [rax]
        mov     rax, QWORD PTR [rbp-24]
        mov     rdi, rax
        call    _ZNKSt7__cxx1112basic_stringIcSt11char_traitsIcESaIcEE8max_sizeEv
        cmp     rbx, rax
        seta    al
        .loc 21 147 4
        test    al, al
        je      .L253
        .loc 21 148 17
        mov     rax, QWORD PTR [rbp-24]
        mov     rdi, rax
        call    _ZNKSt7__cxx1112basic_stringIcSt11char_traitsIcESaIcEE8max_sizeEv
        mov     rdx, rax
        .loc 21 148 6
        mov     rax, QWORD PTR [rbp-32]
        mov     QWORD PTR [rax], rdx
.L253:
        .loc 21 153 37
        mov     rax, QWORD PTR [rbp-32]
        mov     rax, QWORD PTR [rax]
        lea     rbx, [rax+1]
        mov     rax, QWORD PTR [rbp-24]
        mov     rdi, rax
        call    _ZNSt7__cxx1112basic_stringIcSt11char_traitsIcESaIcEE16_M_get_allocatorEv
        mov     rsi, rbx
        mov     rdi, rax
        call    _ZNSt16allocator_traitsISaIcEE8allocateERS0_m
        .loc 21 154 5
        add     rsp, 40
        pop     rbx
        pop     rbp
        .cfi_def_cfa 7, 8
        ret
        .cfi_endproc
.LFE9152:
        .size   _ZNSt7__cxx1112basic_stringIcSt11char_traitsIcESaIcEE9_M_createERmm, .-_ZNSt7__cxx1112basic_stringIcSt11char_traitsIcESaIcEE9_M_createERmm
        .section        .text._ZN5Eigen9DenseBaseINS_6MatrixIdLin1ELin1ELi0ELin1ELin1EEEEC2Ev,"axG",@progbits,_ZN5Eigen9DenseBaseINS_6MatrixIdLin1ELin1ELi0ELin1ELin1EEEEC5Ev,comdat
        .align 2
        .weak   _ZN5Eigen9DenseBaseINS_6MatrixIdLin1ELin1ELi0ELin1ELin1EEEEC2Ev
        .type   _ZN5Eigen9DenseBaseINS_6MatrixIdLin1ELin1ELi0ELin1ELin1EEEEC2Ev, @function
_ZN5Eigen9DenseBaseINS_6MatrixIdLin1ELin1ELi0ELin1ELin1EEEEC2Ev:
.LFB9154:
        .loc 17 591 23
        .cfi_startproc
        push    rbp
        .cfi_def_cfa_offset 16
        .cfi_offset 6, -16
        mov     rbp, rsp
        .cfi_def_cfa_register 6
        mov     QWORD PTR [rbp-8], rdi
        .loc 17 601 5
        nop
        pop     rbp
        .cfi_def_cfa 7, 8
        ret
        .cfi_endproc
.LFE9154:
        .size   _ZN5Eigen9DenseBaseINS_6MatrixIdLin1ELin1ELi0ELin1ELin1EEEEC2Ev, .-_ZN5Eigen9DenseBaseINS_6MatrixIdLin1ELin1ELi0ELin1ELin1EEEEC2Ev
        .weak   _ZN5Eigen9DenseBaseINS_6MatrixIdLin1ELin1ELi0ELin1ELin1EEEEC1Ev
        .set    _ZN5Eigen9DenseBaseINS_6MatrixIdLin1ELin1ELi0ELin1ELin1EEEEC1Ev,_ZN5Eigen9DenseBaseINS_6MatrixIdLin1ELin1ELi0ELin1ELin1EEEEC2Ev
        .section        .text._ZN5Eigen12DenseStorageIdLin1ELin1ELin1ELi0EE6resizeElll,"axG",@progbits,_ZN5Eigen12DenseStorageIdLin1ELin1ELin1ELi0EE6resizeElll,comdat
        .align 2
        .weak   _ZN5Eigen12DenseStorageIdLin1ELin1ELin1ELi0EE6resizeElll
        .type   _ZN5Eigen12DenseStorageIdLin1ELin1ELin1ELi0EE6resizeElll, @function
_ZN5Eigen12DenseStorageIdLin1ELin1ELin1ELi0EE6resizeElll:
.LFB9157:
        .loc 12 402 28
        .cfi_startproc
        push    rbp
        .cfi_def_cfa_offset 16
        .cfi_offset 6, -16
        mov     rbp, rsp
        .cfi_def_cfa_register 6
        sub     rsp, 32
        mov     QWORD PTR [rbp-8], rdi
        mov     QWORD PTR [rbp-16], rsi
        mov     QWORD PTR [rbp-24], rdx
        mov     QWORD PTR [rbp-32], rcx
        .loc 12 404 18
        mov     rax, QWORD PTR [rbp-8]
        mov     rdx, QWORD PTR [rax+8]
        .loc 12 404 25
        mov     rax, QWORD PTR [rbp-8]
        mov     rax, QWORD PTR [rax+16]
        .loc 12 404 24
        imul    rax, rdx
        .loc 12 404 7
        cmp     QWORD PTR [rbp-16], rax
        je      .L257
        .loc 12 406 86
        mov     rax, QWORD PTR [rbp-8]
        mov     rdx, QWORD PTR [rax+8]
        .loc 12 406 93
        mov     rax, QWORD PTR [rbp-8]
        mov     rax, QWORD PTR [rax+16]
        .loc 12 406 92
        imul    rax, rdx
        .loc 12 406 77
        mov     rdx, rax
        mov     rax, QWORD PTR [rbp-8]
        mov     rax, QWORD PTR [rax]
        mov     rsi, rdx
        mov     rdi, rax
        call    _ZN5Eigen8internal31conditional_aligned_delete_autoIdLb1EEEvPT_m
        .loc 12 407 9
        cmp     QWORD PTR [rbp-16], 0
        je      .L258
        .loc 12 408 85
        mov     rax, QWORD PTR [rbp-16]
        mov     rdi, rax
        call    _ZN5Eigen8internal28conditional_aligned_new_autoIdLb1EEEPT_m
        mov     rdx, rax
        .loc 12 408 11
        mov     rax, QWORD PTR [rbp-8]
        mov     QWORD PTR [rax], rdx
        jmp     .L257
.L258:
        .loc 12 410 11
        mov     rax, QWORD PTR [rbp-8]
        mov     QWORD PTR [rax], 0
.L257:
        .loc 12 413 7
        mov     rax, QWORD PTR [rbp-8]
        mov     rdx, QWORD PTR [rbp-24]
        mov     QWORD PTR [rax+8], rdx
        .loc 12 414 7
        mov     rax, QWORD PTR [rbp-8]
        mov     rdx, QWORD PTR [rbp-32]
        mov     QWORD PTR [rax+16], rdx
        .loc 12 415 5
        nop
        leave
        .cfi_def_cfa 7, 8
        ret
        .cfi_endproc
.LFE9157:
        .size   _ZN5Eigen12DenseStorageIdLin1ELin1ELin1ELi0EE6resizeElll, .-_ZN5Eigen12DenseStorageIdLin1ELin1ELin1ELi0EE6resizeElll
        .section        .text._ZNK5Eigen12DenseStorageIdLin1ELin1ELin1ELi0EE4rowsEv,"axG",@progbits,_ZNK5Eigen12DenseStorageIdLin1ELin1ELin1ELi0EE4rowsEv,comdat
        .align 2
        .weak   _ZNK5Eigen12DenseStorageIdLin1ELin1ELin1ELi0EE4rowsEv
        .type   _ZNK5Eigen12DenseStorageIdLin1ELin1ELin1ELi0EE4rowsEv, @function
_ZNK5Eigen12DenseStorageIdLin1ELin1ELin1ELi0EE4rowsEv:
.LFB9158:
        .loc 12 394 29
        .cfi_startproc
        push    rbp
        .cfi_def_cfa_offset 16
        .cfi_offset 6, -16
        mov     rbp, rsp
        .cfi_def_cfa_register 6
        mov     QWORD PTR [rbp-8], rdi
        .loc 12 394 54
        mov     rax, QWORD PTR [rbp-8]
        mov     rax, QWORD PTR [rax+8]
        .loc 12 394 61
        pop     rbp
        .cfi_def_cfa 7, 8
        ret
        .cfi_endproc
.LFE9158:
        .size   _ZNK5Eigen12DenseStorageIdLin1ELin1ELin1ELi0EE4rowsEv, .-_ZNK5Eigen12DenseStorageIdLin1ELin1ELin1ELi0EE4rowsEv
        .section        .text._ZNK5Eigen12DenseStorageIdLin1ELin1ELin1ELi0EE4colsEv,"axG",@progbits,_ZNK5Eigen12DenseStorageIdLin1ELin1ELin1ELi0EE4colsEv,comdat
        .align 2
        .weak   _ZNK5Eigen12DenseStorageIdLin1ELin1ELin1ELi0EE4colsEv
        .type   _ZNK5Eigen12DenseStorageIdLin1ELin1ELin1ELi0EE4colsEv, @function
_ZNK5Eigen12DenseStorageIdLin1ELin1ELin1ELi0EE4colsEv:
.LFB9159:
        .loc 12 395 29
        .cfi_startproc
        push    rbp
        .cfi_def_cfa_offset 16
        .cfi_offset 6, -16
        mov     rbp, rsp
        .cfi_def_cfa_register 6
        mov     QWORD PTR [rbp-8], rdi
        .loc 12 395 54
        mov     rax, QWORD PTR [rbp-8]
        mov     rax, QWORD PTR [rax+16]
        .loc 12 395 61
        pop     rbp
        .cfi_def_cfa 7, 8
        ret
        .cfi_endproc
.LFE9159:
        .size   _ZNK5Eigen12DenseStorageIdLin1ELin1ELin1ELi0EE4colsEv, .-_ZNK5Eigen12DenseStorageIdLin1ELin1ELin1ELi0EE4colsEv
        .section        .text._ZN5Eigen8internal14evaluator_baseINS_6MatrixIdLin1ELin1ELi0ELin1ELin1EEEEC2Ev,"axG",@progbits,_ZN5Eigen8internal14evaluator_baseINS_6MatrixIdLin1ELin1ELi0ELin1ELin1EEEEC5Ev,comdat
        .align 2
        .weak   _ZN5Eigen8internal14evaluator_baseINS_6MatrixIdLin1ELin1ELi0ELin1ELin1EEEEC2Ev
        .type   _ZN5Eigen8internal14evaluator_baseINS_6MatrixIdLin1ELin1ELi0ELin1ELin1EEEEC2Ev, @function
_ZN5Eigen8internal14evaluator_baseINS_6MatrixIdLin1ELin1ELi0ELin1ELin1EEEEC2Ev:
.LFB9162:
        .loc 16 109 8
        .cfi_startproc
        push    rbp
        .cfi_def_cfa_offset 16
        .cfi_offset 6, -16
        mov     rbp, rsp
        .cfi_def_cfa_register 6
        sub     rsp, 16
        mov     QWORD PTR [rbp-8], rdi
.LBB53:
        .loc 16 109 8
        mov     rax, QWORD PTR [rbp-8]
        mov     rdi, rax
        call    _ZN5Eigen8internal11noncopyableC2Ev
.LBE53:
        nop
        leave
        .cfi_def_cfa 7, 8
        ret
        .cfi_endproc
.LFE9162:
        .size   _ZN5Eigen8internal14evaluator_baseINS_6MatrixIdLin1ELin1ELi0ELin1ELin1EEEEC2Ev, .-_ZN5Eigen8internal14evaluator_baseINS_6MatrixIdLin1ELin1ELi0ELin1ELin1EEEEC2Ev
        .weak   _ZN5Eigen8internal14evaluator_baseINS_6MatrixIdLin1ELin1ELi0ELin1ELin1EEEEC1Ev
        .set    _ZN5Eigen8internal14evaluator_baseINS_6MatrixIdLin1ELin1ELi0ELin1ELin1EEEEC1Ev,_ZN5Eigen8internal14evaluator_baseINS_6MatrixIdLin1ELin1ELi0ELin1ELin1EEEEC2Ev
        .section        .text._ZN5Eigen8internal9evaluatorINS_15PlainObjectBaseINS_6MatrixIdLin1ELin1ELi0ELin1ELin1EEEEEEC2ERKS5_,"axG",@progbits,_ZN5Eigen8internal9evaluatorINS_15PlainObjectBaseINS_6MatrixIdLin1ELin1ELi0ELin1ELin1EEEEEEC5ERKS5_,comdat
        .align 2
        .weak   _ZN5Eigen8internal9evaluatorINS_15PlainObjectBaseINS_6MatrixIdLin1ELin1ELi0ELin1ELin1EEEEEEC2ERKS5_
        .type   _ZN5Eigen8internal9evaluatorINS_15PlainObjectBaseINS_6MatrixIdLin1ELin1ELi0ELin1ELin1EEEEEEC2ERKS5_, @function
_ZN5Eigen8internal9evaluatorINS_15PlainObjectBaseINS_6MatrixIdLin1ELin1ELi0ELin1ELin1EEEEEEC2ERKS5_:
.LFB9164:
        .loc 16 154 30
        .cfi_startproc
        .cfi_personality 0x3,__gxx_personality_v0
        .cfi_lsda 0x3,.LLSDA9164
        push    rbp
        .cfi_def_cfa_offset 16
        .cfi_offset 6, -16
        mov     rbp, rsp
        .cfi_def_cfa_register 6
        push    rbx
        sub     rsp, 24
        .cfi_offset 3, -24
        mov     QWORD PTR [rbp-24], rdi
        mov     QWORD PTR [rbp-32], rsi
.LBB54:
        .loc 16 155 82
        mov     rax, QWORD PTR [rbp-24]
        mov     rdi, rax
        call    _ZN5Eigen8internal14evaluator_baseINS_6MatrixIdLin1ELin1ELi0ELin1ELin1EEEEC2Ev
        mov     rax, QWORD PTR [rbp-32]
        mov     rdi, rax
        call    _ZNK5Eigen15PlainObjectBaseINS_6MatrixIdLin1ELin1ELi0ELin1ELin1EEEE4dataEv
        mov     rdx, rax
        mov     rax, QWORD PTR [rbp-24]
        mov     QWORD PTR [rax], rdx
        mov     rax, QWORD PTR [rbp-24]
        lea     rbx, [rax+8]
        mov     rax, QWORD PTR [rbp-32]
        mov     rdi, rax
.LEHB35:
        call    _ZNK5Eigen15DenseCoeffsBaseINS_6MatrixIdLin1ELin1ELi0ELin1ELin1EEELi3EE11outerStrideEv
.LEHE35:
        mov     rsi, rax
        mov     rdi, rbx
        call    _ZN5Eigen8internal19variable_if_dynamicIlLin1EEC1El
.LBE54:
        .loc 16 158 3
        jmp     .L268
.L267:
        mov     rbx, rax
.LBB55:
        .loc 16 155 82
        mov     rax, QWORD PTR [rbp-24]
        mov     rdi, rax
        call    _ZN5Eigen8internal14evaluator_baseINS_6MatrixIdLin1ELin1ELi0ELin1ELin1EEEED2Ev
        mov     rax, rbx
        mov     rdi, rax
.LEHB36:
        call    _Unwind_Resume
.LEHE36:
.L268:
.LBE55:
        .loc 16 158 3
        add     rsp, 24
        pop     rbx
        pop     rbp
        .cfi_def_cfa 7, 8
        ret
        .cfi_endproc
.LFE9164:
        .section        .gcc_except_table
.LLSDA9164:
        .byte   0xff
        .byte   0xff
        .byte   0x1
        .uleb128 .LLSDACSE9164-.LLSDACSB9164
.LLSDACSB9164:
        .uleb128 .LEHB35-.LFB9164
        .uleb128 .LEHE35-.LEHB35
        .uleb128 .L267-.LFB9164
        .uleb128 0
        .uleb128 .LEHB36-.LFB9164
        .uleb128 .LEHE36-.LEHB36
        .uleb128 0
        .uleb128 0
.LLSDACSE9164:
        .section        .text._ZN5Eigen8internal9evaluatorINS_15PlainObjectBaseINS_6MatrixIdLin1ELin1ELi0ELin1ELin1EEEEEEC2ERKS5_,"axG",@progbits,_ZN5Eigen8internal9evaluatorINS_15PlainObjectBaseINS_6MatrixIdLin1ELin1ELi0ELin1ELin1EEEEEEC5ERKS5_,comdat
        .size   _ZN5Eigen8internal9evaluatorINS_15PlainObjectBaseINS_6MatrixIdLin1ELin1ELi0ELin1ELin1EEEEEEC2ERKS5_, .-_ZN5Eigen8internal9evaluatorINS_15PlainObjectBaseINS_6MatrixIdLin1ELin1ELi0ELin1ELin1EEEEEEC2ERKS5_
        .weak   _ZN5Eigen8internal9evaluatorINS_15PlainObjectBaseINS_6MatrixIdLin1ELin1ELi0ELin1ELin1EEEEEEC1ERKS5_
        .set    _ZN5Eigen8internal9evaluatorINS_15PlainObjectBaseINS_6MatrixIdLin1ELin1ELi0ELin1ELin1EEEEEEC1ERKS5_,_ZN5Eigen8internal9evaluatorINS_15PlainObjectBaseINS_6MatrixIdLin1ELin1ELi0ELin1ELin1EEEEEEC2ERKS5_
        .section        .text._ZNK5Eigen8internal19variable_if_dynamicIlLin1EE5valueEv,"axG",@progbits,_ZNK5Eigen8internal19variable_if_dynamicIlLin1EE5valueEv,comdat
        .align 2
        .weak   _ZNK5Eigen8internal19variable_if_dynamicIlLin1EE5valueEv
        .type   _ZNK5Eigen8internal19variable_if_dynamicIlLin1EE5valueEv, @function
_ZNK5Eigen8internal19variable_if_dynamicIlLin1EE5valueEv:
.LFB9166:
        .file 25 "/opt/compiler-explorer/libs/eigen/v3.3.4/Eigen/src/Core/util/XprHelper.h"
        .loc 25 121 45
        .cfi_startproc
        push    rbp
        .cfi_def_cfa_offset 16
        .cfi_offset 6, -16
        mov     rbp, rsp
        .cfi_def_cfa_register 6
        mov     QWORD PTR [rbp-8], rdi
        .loc 25 121 68
        mov     rax, QWORD PTR [rbp-8]
        mov     rax, QWORD PTR [rax]
        .loc 25 121 77
        pop     rbp
        .cfi_def_cfa 7, 8
        ret
        .cfi_endproc
.LFE9166:
        .size   _ZNK5Eigen8internal19variable_if_dynamicIlLin1EE5valueEv, .-_ZNK5Eigen8internal19variable_if_dynamicIlLin1EE5valueEv
        .section        .text._ZN5Eigen16GenericNumTraitsIdE8digits10Ev,"axG",@progbits,_ZN5Eigen16GenericNumTraitsIdE8digits10Ev,comdat
        .weak   _ZN5Eigen16GenericNumTraitsIdE8digits10Ev
        .type   _ZN5Eigen16GenericNumTraitsIdE8digits10Ev, @function
_ZN5Eigen16GenericNumTraitsIdE8digits10Ev:
.LFB9167:
        .file 26 "/opt/compiler-explorer/libs/eigen/v3.3.4/Eigen/src/Core/NumTraits.h"
        .loc 26 116 21
        .cfi_startproc
        push    rbp
        .cfi_def_cfa_offset 16
        .cfi_offset 6, -16
        mov     rbp, rsp
        .cfi_def_cfa_register 6
        .loc 26 118 51
        call    _ZN5Eigen8internal21default_digits10_implIdLb1ELb0EE3runEv
        .loc 26 119 3
        pop     rbp
        .cfi_def_cfa 7, 8
        ret
        .cfi_endproc
.LFE9167:
        .size   _ZN5Eigen16GenericNumTraitsIdE8digits10Ev, .-_ZN5Eigen16GenericNumTraitsIdE8digits10Ev
        .section        .text._ZNK5Eigen12DenseStorageIdLin1ELin1ELin1ELi0EE4dataEv,"axG",@progbits,_ZNK5Eigen12DenseStorageIdLin1ELin1ELin1ELi0EE4dataEv,comdat
        .align 2
        .weak   _ZNK5Eigen12DenseStorageIdLin1ELin1ELin1ELi0EE4dataEv
        .type   _ZNK5Eigen12DenseStorageIdLin1ELin1ELin1ELi0EE4dataEv, @function
_ZNK5Eigen12DenseStorageIdLin1ELin1ELin1ELi0EE4dataEv:
.LFB9189:
        .loc 12 416 32
        .cfi_startproc
        push    rbp
        .cfi_def_cfa_offset 16
        .cfi_offset 6, -16
        mov     rbp, rsp
        .cfi_def_cfa_register 6
        mov     QWORD PTR [rbp-8], rdi
        .loc 12 416 54
        mov     rax, QWORD PTR [rbp-8]
        mov     rax, QWORD PTR [rax]
        .loc 12 416 62
        pop     rbp
        .cfi_def_cfa 7, 8
        ret
        .cfi_endproc
.LFE9189:
        .size   _ZNK5Eigen12DenseStorageIdLin1ELin1ELin1ELi0EE4dataEv, .-_ZNK5Eigen12DenseStorageIdLin1ELin1ELin1ELi0EE4dataEv
        .section        .text._ZNSt14pointer_traitsIPKcE10pointer_toERS0_,"axG",@progbits,_ZNSt14pointer_traitsIPKcE10pointer_toERS0_,comdat
        .weak   _ZNSt14pointer_traitsIPKcE10pointer_toERS0_
        .type   _ZNSt14pointer_traitsIPKcE10pointer_toERS0_, @function
_ZNSt14pointer_traitsIPKcE10pointer_toERS0_:
.LFB9191:
        .loc 18 141 7
        .cfi_startproc
        push    rbp
        .cfi_def_cfa_offset 16
        .cfi_offset 6, -16
        mov     rbp, rsp
        .cfi_def_cfa_register 6
        sub     rsp, 16
        mov     QWORD PTR [rbp-8], rdi
        .loc 18 142 30
        mov     rax, QWORD PTR [rbp-8]
        mov     rdi, rax
        call    _ZSt9addressofIKcEPT_RS1_
        .loc 18 142 37
        leave
        .cfi_def_cfa 7, 8
        ret
        .cfi_endproc
.LFE9191:
        .size   _ZNSt14pointer_traitsIPKcE10pointer_toERS0_, .-_ZNSt14pointer_traitsIPKcE10pointer_toERS0_
        .section        .text._ZN9__gnu_cxx13new_allocatorIcE10deallocateEPcm,"axG",@progbits,_ZN9__gnu_cxx13new_allocatorIcE10deallocateEPcm,comdat
        .align 2
        .weak   _ZN9__gnu_cxx13new_allocatorIcE10deallocateEPcm
        .type   _ZN9__gnu_cxx13new_allocatorIcE10deallocateEPcm, @function
_ZN9__gnu_cxx13new_allocatorIcE10deallocateEPcm:
.LFB9192:
        .file 27 "/opt/compiler-explorer/gcc-8.3.0/include/c++/8.3.0/ext/new_allocator.h"
        .loc 27 116 7
        .cfi_startproc
        push    rbp
        .cfi_def_cfa_offset 16
        .cfi_offset 6, -16
        mov     rbp, rsp
        .cfi_def_cfa_register 6
        sub     rsp, 32
        mov     QWORD PTR [rbp-8], rdi
        mov     QWORD PTR [rbp-16], rsi
        mov     QWORD PTR [rbp-24], rdx
        .loc 27 125 19
        mov     rax, QWORD PTR [rbp-16]
        mov     rdi, rax
        call    _ZdlPv
        .loc 27 126 7
        leave
        .cfi_def_cfa 7, 8
        ret
        .cfi_endproc
.LFE9192:
        .size   _ZN9__gnu_cxx13new_allocatorIcE10deallocateEPcm, .-_ZN9__gnu_cxx13new_allocatorIcE10deallocateEPcm
        .section        .text._ZSt11__addressofIcEPT_RS0_,"axG",@progbits,_ZSt11__addressofIcEPT_RS0_,comdat
        .weak   _ZSt11__addressofIcEPT_RS0_
        .type   _ZSt11__addressofIcEPT_RS0_, @function
_ZSt11__addressofIcEPT_RS0_:
.LFB9197:
        .loc 19 47 5
        .cfi_startproc
        push    rbp
        .cfi_def_cfa_offset 16
        .cfi_offset 6, -16
        mov     rbp, rsp
        .cfi_def_cfa_register 6
        mov     QWORD PTR [rbp-8], rdi
        .loc 19 48 37
        mov     rax, QWORD PTR [rbp-8]
        .loc 19 48 40
        pop     rbp
        .cfi_def_cfa 7, 8
        ret
        .cfi_endproc
.LFE9197:
        .size   _ZSt11__addressofIcEPT_RS0_, .-_ZSt11__addressofIcEPT_RS0_
        .section        .text._ZN9__gnu_cxx17__is_null_pointerIKcEEbPT_,"axG",@progbits,_ZN9__gnu_cxx17__is_null_pointerIKcEEbPT_,comdat
        .weak   _ZN9__gnu_cxx17__is_null_pointerIKcEEbPT_
        .type   _ZN9__gnu_cxx17__is_null_pointerIKcEEbPT_, @function
_ZN9__gnu_cxx17__is_null_pointerIKcEEbPT_:
.LFB9198:
        .file 28 "/opt/compiler-explorer/gcc-8.3.0/include/c++/8.3.0/ext/type_traits.h"
        .loc 28 152 5
        .cfi_startproc
        push    rbp
        .cfi_def_cfa_offset 16
        .cfi_offset 6, -16
        mov     rbp, rsp
        .cfi_def_cfa_register 6
        mov     QWORD PTR [rbp-8], rdi
        .loc 28 153 23
        cmp     QWORD PTR [rbp-8], 0
        sete    al
        .loc 28 153 26
        pop     rbp
        .cfi_def_cfa 7, 8
        ret
        .cfi_endproc
.LFE9198:
        .size   _ZN9__gnu_cxx17__is_null_pointerIKcEEbPT_, .-_ZN9__gnu_cxx17__is_null_pointerIKcEEbPT_
        .section        .text._ZSt19__iterator_categoryIPKcENSt15iterator_traitsIT_E17iterator_categoryERKS3_,"axG",@progbits,_ZSt19__iterator_categoryIPKcENSt15iterator_traitsIT_E17iterator_categoryERKS3_,comdat
        .weak   _ZSt19__iterator_categoryIPKcENSt15iterator_traitsIT_E17iterator_categoryERKS3_
        .type   _ZSt19__iterator_categoryIPKcENSt15iterator_traitsIT_E17iterator_categoryERKS3_, @function
_ZSt19__iterator_categoryIPKcENSt15iterator_traitsIT_E17iterator_categoryERKS3_:
.LFB9199:
        .file 29 "/opt/compiler-explorer/gcc-8.3.0/include/c++/8.3.0/bits/stl_iterator_base_types.h"
        .loc 29 205 5
        .cfi_startproc
        push    rbp
        .cfi_def_cfa_offset 16
        .cfi_offset 6, -16
        mov     rbp, rsp
        .cfi_def_cfa_register 6
        mov     QWORD PTR [rbp-8], rdi
        .loc 29 206 68
        pop     rbp
        .cfi_def_cfa 7, 8
        ret
        .cfi_endproc
.LFE9199:
        .size   _ZSt19__iterator_categoryIPKcENSt15iterator_traitsIT_E17iterator_categoryERKS3_, .-_ZSt19__iterator_categoryIPKcENSt15iterator_traitsIT_E17iterator_categoryERKS3_
        .section        .text._ZSt10__distanceIPKcENSt15iterator_traitsIT_E15difference_typeES3_S3_St26random_access_iterator_tag,"axG",@progbits,_ZSt10__distanceIPKcENSt15iterator_traitsIT_E15difference_typeES3_S3_St26random_access_iterator_tag,comdat
        .weak   _ZSt10__distanceIPKcENSt15iterator_traitsIT_E15difference_typeES3_S3_St26random_access_iterator_tag
        .type   _ZSt10__distanceIPKcENSt15iterator_traitsIT_E15difference_typeES3_S3_St26random_access_iterator_tag, @function
_ZSt10__distanceIPKcENSt15iterator_traitsIT_E15difference_typeES3_S3_St26random_access_iterator_tag:
.LFB9200:
        .loc 24 98 5
        .cfi_startproc
        push    rbp
        .cfi_def_cfa_offset 16
        .cfi_offset 6, -16
        mov     rbp, rsp
        .cfi_def_cfa_register 6
        mov     QWORD PTR [rbp-8], rdi
        mov     QWORD PTR [rbp-16], rsi
        .loc 24 104 23
        mov     rax, QWORD PTR [rbp-16]
        sub     rax, QWORD PTR [rbp-8]
        .loc 24 105 5
        pop     rbp
        .cfi_def_cfa 7, 8
        ret
        .cfi_endproc
.LFE9200:
        .size   _ZSt10__distanceIPKcENSt15iterator_traitsIT_E15difference_typeES3_S3_St26random_access_iterator_tag, .-_ZSt10__distanceIPKcENSt15iterator_traitsIT_E15difference_typeES3_S3_St26random_access_iterator_tag
        .section        .text._ZNSt7__cxx1112basic_stringIcSt11char_traitsIcESaIcEE13_S_copy_charsEPcPKcS7_,"axG",@progbits,_ZNSt7__cxx1112basic_stringIcSt11char_traitsIcESaIcEE13_S_copy_charsEPcPKcS7_,comdat
        .weak   _ZNSt7__cxx1112basic_stringIcSt11char_traitsIcESaIcEE13_S_copy_charsEPcPKcS7_
        .type   _ZNSt7__cxx1112basic_stringIcSt11char_traitsIcESaIcEE13_S_copy_charsEPcPKcS7_, @function
_ZNSt7__cxx1112basic_stringIcSt11char_traitsIcESaIcEE13_S_copy_charsEPcPKcS7_:
.LFB9201:
        .loc 11 385 7
        .cfi_startproc
        push    rbp
        .cfi_def_cfa_offset 16
        .cfi_offset 6, -16
        mov     rbp, rsp
        .cfi_def_cfa_register 6
        sub     rsp, 32
        mov     QWORD PTR [rbp-8], rdi
        mov     QWORD PTR [rbp-16], rsi
        mov     QWORD PTR [rbp-24], rdx
        .loc 11 387 33
        mov     rax, QWORD PTR [rbp-24]
        sub     rax, QWORD PTR [rbp-16]
        .loc 11 387 16
        mov     rdx, rax
        mov     rcx, QWORD PTR [rbp-16]
        mov     rax, QWORD PTR [rbp-8]
        mov     rsi, rcx
        mov     rdi, rax
        call    _ZNSt7__cxx1112basic_stringIcSt11char_traitsIcESaIcEE7_S_copyEPcPKcm
        .loc 11 387 42
        nop
        leave
        .cfi_def_cfa 7, 8
        ret
        .cfi_endproc
.LFE9201:
        .size   _ZNSt7__cxx1112basic_stringIcSt11char_traitsIcESaIcEE13_S_copy_charsEPcPKcS7_, .-_ZNSt7__cxx1112basic_stringIcSt11char_traitsIcESaIcEE13_S_copy_charsEPcPKcS7_
        .section        .text._ZNSt16allocator_traitsISaIcEE8max_sizeERKS0_,"axG",@progbits,_ZNSt16allocator_traitsISaIcEE8max_sizeERKS0_,comdat
        .weak   _ZNSt16allocator_traitsISaIcEE8max_sizeERKS0_
        .type   _ZNSt16allocator_traitsISaIcEE8max_sizeERKS0_, @function
_ZNSt16allocator_traitsISaIcEE8max_sizeERKS0_:
.LFB9233:
        .loc 20 495 7
        .cfi_startproc
        push    rbp
        .cfi_def_cfa_offset 16
        .cfi_offset 6, -16
        mov     rbp, rsp
        .cfi_def_cfa_register 6
        sub     rsp, 16
        mov     QWORD PTR [rbp-8], rdi
        .loc 20 496 29
        mov     rax, QWORD PTR [rbp-8]
        mov     rdi, rax
        call    _ZNK9__gnu_cxx13new_allocatorIcE8max_sizeEv
        .loc 20 496 32
        leave
        .cfi_def_cfa 7, 8
        ret
        .cfi_endproc
.LFE9233:
        .size   _ZNSt16allocator_traitsISaIcEE8max_sizeERKS0_, .-_ZNSt16allocator_traitsISaIcEE8max_sizeERKS0_
        .section        .text._ZN9__gnu_cxx17__is_null_pointerIcEEbPT_,"axG",@progbits,_ZN9__gnu_cxx17__is_null_pointerIcEEbPT_,comdat
        .weak   _ZN9__gnu_cxx17__is_null_pointerIcEEbPT_
        .type   _ZN9__gnu_cxx17__is_null_pointerIcEEbPT_, @function
_ZN9__gnu_cxx17__is_null_pointerIcEEbPT_:
.LFB9236:
        .loc 28 152 5
        .cfi_startproc
        push    rbp
        .cfi_def_cfa_offset 16
        .cfi_offset 6, -16
        mov     rbp, rsp
        .cfi_def_cfa_register 6
        mov     QWORD PTR [rbp-8], rdi
        .loc 28 153 23
        cmp     QWORD PTR [rbp-8], 0
        sete    al
        .loc 28 153 26
        pop     rbp
        .cfi_def_cfa 7, 8
        ret
        .cfi_endproc
.LFE9236:
        .size   _ZN9__gnu_cxx17__is_null_pointerIcEEbPT_, .-_ZN9__gnu_cxx17__is_null_pointerIcEEbPT_
        .section        .text._ZSt19__iterator_categoryIPcENSt15iterator_traitsIT_E17iterator_categoryERKS2_,"axG",@progbits,_ZSt19__iterator_categoryIPcENSt15iterator_traitsIT_E17iterator_categoryERKS2_,comdat
        .weak   _ZSt19__iterator_categoryIPcENSt15iterator_traitsIT_E17iterator_categoryERKS2_
        .type   _ZSt19__iterator_categoryIPcENSt15iterator_traitsIT_E17iterator_categoryERKS2_, @function
_ZSt19__iterator_categoryIPcENSt15iterator_traitsIT_E17iterator_categoryERKS2_:
.LFB9237:
        .loc 29 205 5
        .cfi_startproc
        push    rbp
        .cfi_def_cfa_offset 16
        .cfi_offset 6, -16
        mov     rbp, rsp
        .cfi_def_cfa_register 6
        mov     QWORD PTR [rbp-8], rdi
        .loc 29 206 68
        pop     rbp
        .cfi_def_cfa 7, 8
        ret
        .cfi_endproc
.LFE9237:
        .size   _ZSt19__iterator_categoryIPcENSt15iterator_traitsIT_E17iterator_categoryERKS2_, .-_ZSt19__iterator_categoryIPcENSt15iterator_traitsIT_E17iterator_categoryERKS2_
        .section        .text._ZSt10__distanceIPcENSt15iterator_traitsIT_E15difference_typeES2_S2_St26random_access_iterator_tag,"axG",@progbits,_ZSt10__distanceIPcENSt15iterator_traitsIT_E15difference_typeES2_S2_St26random_access_iterator_tag,comdat
        .weak   _ZSt10__distanceIPcENSt15iterator_traitsIT_E15difference_typeES2_S2_St26random_access_iterator_tag
        .type   _ZSt10__distanceIPcENSt15iterator_traitsIT_E15difference_typeES2_S2_St26random_access_iterator_tag, @function
_ZSt10__distanceIPcENSt15iterator_traitsIT_E15difference_typeES2_S2_St26random_access_iterator_tag:
.LFB9238:
        .loc 24 98 5
        .cfi_startproc
        push    rbp
        .cfi_def_cfa_offset 16
        .cfi_offset 6, -16
        mov     rbp, rsp
        .cfi_def_cfa_register 6
        mov     QWORD PTR [rbp-8], rdi
        mov     QWORD PTR [rbp-16], rsi
        .loc 24 104 23
        mov     rax, QWORD PTR [rbp-16]
        sub     rax, QWORD PTR [rbp-8]
        .loc 24 105 5
        pop     rbp
        .cfi_def_cfa 7, 8
        ret
        .cfi_endproc
.LFE9238:
        .size   _ZSt10__distanceIPcENSt15iterator_traitsIT_E15difference_typeES2_S2_St26random_access_iterator_tag, .-_ZSt10__distanceIPcENSt15iterator_traitsIT_E15difference_typeES2_S2_St26random_access_iterator_tag
        .section        .text._ZNSt7__cxx1112basic_stringIcSt11char_traitsIcESaIcEE13_S_copy_charsEPcS5_S5_,"axG",@progbits,_ZNSt7__cxx1112basic_stringIcSt11char_traitsIcESaIcEE13_S_copy_charsEPcS5_S5_,comdat
        .weak   _ZNSt7__cxx1112basic_stringIcSt11char_traitsIcESaIcEE13_S_copy_charsEPcS5_S5_
        .type   _ZNSt7__cxx1112basic_stringIcSt11char_traitsIcESaIcEE13_S_copy_charsEPcS5_S5_, @function
_ZNSt7__cxx1112basic_stringIcSt11char_traitsIcESaIcEE13_S_copy_charsEPcS5_S5_:
.LFB9239:
        .loc 11 381 7
        .cfi_startproc
        push    rbp
        .cfi_def_cfa_offset 16
        .cfi_offset 6, -16
        mov     rbp, rsp
        .cfi_def_cfa_register 6
        sub     rsp, 32
        mov     QWORD PTR [rbp-8], rdi
        mov     QWORD PTR [rbp-16], rsi
        mov     QWORD PTR [rbp-24], rdx
        .loc 11 382 33
        mov     rax, QWORD PTR [rbp-24]
        sub     rax, QWORD PTR [rbp-16]
        .loc 11 382 16
        mov     rdx, rax
        mov     rcx, QWORD PTR [rbp-16]
        mov     rax, QWORD PTR [rbp-8]
        mov     rsi, rcx
        mov     rdi, rax
        call    _ZNSt7__cxx1112basic_stringIcSt11char_traitsIcESaIcEE7_S_copyEPcPKcm
        .loc 11 382 42
        nop
        leave
        .cfi_def_cfa 7, 8
        ret
        .cfi_endproc
.LFE9239:
        .size   _ZNSt7__cxx1112basic_stringIcSt11char_traitsIcESaIcEE13_S_copy_charsEPcS5_S5_, .-_ZNSt7__cxx1112basic_stringIcSt11char_traitsIcESaIcEE13_S_copy_charsEPcS5_S5_
        .section        .text._ZNSt16allocator_traitsISaIcEE8allocateERS0_m,"axG",@progbits,_ZNSt16allocator_traitsISaIcEE8allocateERS0_m,comdat
        .weak   _ZNSt16allocator_traitsISaIcEE8allocateERS0_m
        .type   _ZNSt16allocator_traitsISaIcEE8allocateERS0_m, @function
_ZNSt16allocator_traitsISaIcEE8allocateERS0_m:
.LFB9240:
        .loc 20 435 7
        .cfi_startproc
        push    rbp
        .cfi_def_cfa_offset 16
        .cfi_offset 6, -16
        mov     rbp, rsp
        .cfi_def_cfa_register 6
        sub     rsp, 16
        mov     QWORD PTR [rbp-8], rdi
        mov     QWORD PTR [rbp-16], rsi
        .loc 20 436 32
        mov     rcx, QWORD PTR [rbp-16]
        mov     rax, QWORD PTR [rbp-8]
        mov     edx, 0
        mov     rsi, rcx
        mov     rdi, rax
        call    _ZN9__gnu_cxx13new_allocatorIcE8allocateEmPKv
        .loc 20 436 35
        leave
        .cfi_def_cfa 7, 8
        ret
        .cfi_endproc
.LFE9240:
        .size   _ZNSt16allocator_traitsISaIcEE8allocateERS0_m, .-_ZNSt16allocator_traitsISaIcEE8allocateERS0_m
        .section        .text._ZN5Eigen8internal28conditional_aligned_new_autoIdLb1EEEPT_m,"axG",@progbits,_ZN5Eigen8internal28conditional_aligned_new_autoIdLb1EEEPT_m,comdat
        .weak   _ZN5Eigen8internal28conditional_aligned_new_autoIdLb1EEEPT_m
        .type   _ZN5Eigen8internal28conditional_aligned_new_autoIdLb1EEEPT_m, @function
_ZN5Eigen8internal28conditional_aligned_new_autoIdLb1EEEPT_m:
.LFB9241:
        .loc 6 369 62
        .cfi_startproc
        push    rbp
        .cfi_def_cfa_offset 16
        .cfi_offset 6, -16
        mov     rbp, rsp
        .cfi_def_cfa_register 6
        sub     rsp, 32
        mov     QWORD PTR [rbp-24], rdi
        .loc 6 371 3
        cmp     QWORD PTR [rbp-24], 0
        jne     .L300
        .loc 6 372 12
        mov     eax, 0
        jmp     .L301
.L300:
        mov     rax, QWORD PTR [rbp-24]
        mov     QWORD PTR [rbp-16], rax
.LBB56:
.LBB57:
        .loc 6 288 3
        movabs  rax, 2305843009213693951
        cmp     QWORD PTR [rbp-16], rax
        jbe     .L302
        .loc 6 289 24
        call    _ZN5Eigen8internal19throw_std_bad_allocEv
.L302:
.LBE57:
.LBE56:
        .loc 6 374 69
        mov     rax, QWORD PTR [rbp-24]
        sal     rax, 3
        mov     rdi, rax
        call    _ZN5Eigen8internal26conditional_aligned_mallocILb1EEEPvm
        mov     QWORD PTR [rbp-8], rax
        .loc 6 387 10
        mov     rax, QWORD PTR [rbp-8]
.L301:
        .loc 6 388 1
        leave
        .cfi_def_cfa 7, 8
        ret
        .cfi_endproc
.LFE9241:
        .size   _ZN5Eigen8internal28conditional_aligned_new_autoIdLb1EEEPT_m, .-_ZN5Eigen8internal28conditional_aligned_new_autoIdLb1EEEPT_m
        .section        .text._ZNK5Eigen15PlainObjectBaseINS_6MatrixIdLin1ELin1ELi0ELin1ELin1EEEE4dataEv,"axG",@progbits,_ZNK5Eigen15PlainObjectBaseINS_6MatrixIdLin1ELin1ELi0ELin1ELin1EEEE4dataEv,comdat
        .align 2
        .weak   _ZNK5Eigen15PlainObjectBaseINS_6MatrixIdLin1ELin1ELi0ELin1ELin1EEEE4dataEv
        .type   _ZNK5Eigen15PlainObjectBaseINS_6MatrixIdLin1ELin1ELi0ELin1ELin1EEEE4dataEv, @function
_ZNK5Eigen15PlainObjectBaseINS_6MatrixIdLin1ELin1ELi0ELin1ELin1EEEE4dataEv:
.LFB9242:
        .loc 8 255 57
        .cfi_startproc
        push    rbp
        .cfi_def_cfa_offset 16
        .cfi_offset 6, -16
        mov     rbp, rsp
        .cfi_def_cfa_register 6
        sub     rsp, 16
        mov     QWORD PTR [rbp-8], rdi
        .loc 8 256 29
        mov     rax, QWORD PTR [rbp-8]
        mov     rdi, rax
        call    _ZNK5Eigen12DenseStorageIdLin1ELin1ELin1ELi0EE4dataEv
        .loc 8 256 32
        leave
        .cfi_def_cfa 7, 8
        ret
        .cfi_endproc
.LFE9242:
        .size   _ZNK5Eigen15PlainObjectBaseINS_6MatrixIdLin1ELin1ELi0ELin1ELin1EEEE4dataEv, .-_ZNK5Eigen15PlainObjectBaseINS_6MatrixIdLin1ELin1ELi0ELin1ELin1EEEE4dataEv
        .section        .text._ZNK5Eigen15DenseCoeffsBaseINS_6MatrixIdLin1ELin1ELi0ELin1ELin1EEELi3EE11outerStrideEv,"axG",@progbits,_ZNK5Eigen15DenseCoeffsBaseINS_6MatrixIdLin1ELin1ELi0ELin1ELin1EEELi3EE11outerStrideEv,comdat
        .align 2
        .weak   _ZNK5Eigen15DenseCoeffsBaseINS_6MatrixIdLin1ELin1ELi0ELin1ELin1EEELi3EE11outerStrideEv
        .type   _ZNK5Eigen15DenseCoeffsBaseINS_6MatrixIdLin1ELin1ELi0ELin1ELin1EEELi3EE11outerStrideEv, @function
_ZNK5Eigen15DenseCoeffsBaseINS_6MatrixIdLin1ELin1ELi0ELin1ELin1EEELi3EE11outerStrideEv:
.LFB9243:
        .loc 13 581 18
        .cfi_startproc
        push    rbp
        .cfi_def_cfa_offset 16
        .cfi_offset 6, -16
        mov     rbp, rsp
        .cfi_def_cfa_register 6
        sub     rsp, 16
        mov     QWORD PTR [rbp-8], rdi
        .loc 13 583 21
        mov     rax, QWORD PTR [rbp-8]
        mov     rdi, rax
        call    _ZNK5Eigen9EigenBaseINS_6MatrixIdLin1ELin1ELi0ELin1ELin1EEEE7derivedEv
        .loc 13 583 36
        mov     rdi, rax
        call    _ZNK5Eigen6MatrixIdLin1ELin1ELi0ELin1ELin1EE11outerStrideEv
        .loc 13 584 5
        leave
        .cfi_def_cfa 7, 8
        ret
        .cfi_endproc
.LFE9243:
        .size   _ZNK5Eigen15DenseCoeffsBaseINS_6MatrixIdLin1ELin1ELi0ELin1ELin1EEELi3EE11outerStrideEv, .-_ZNK5Eigen15DenseCoeffsBaseINS_6MatrixIdLin1ELin1ELi0ELin1ELin1EEELi3EE11outerStrideEv
        .section        .text._ZN5Eigen8internal19variable_if_dynamicIlLin1EEC2El,"axG",@progbits,_ZN5Eigen8internal19variable_if_dynamicIlLin1EEC5El,comdat
        .align 2
        .weak   _ZN5Eigen8internal19variable_if_dynamicIlLin1EEC2El
        .type   _ZN5Eigen8internal19variable_if_dynamicIlLin1EEC2El, @function
_ZN5Eigen8internal19variable_if_dynamicIlLin1EEC2El:
.LFB9245:
        .loc 25 120 52
        .cfi_startproc
        push    rbp
        .cfi_def_cfa_offset 16
        .cfi_offset 6, -16
        mov     rbp, rsp
        .cfi_def_cfa_register 6
        mov     QWORD PTR [rbp-8], rdi
        mov     QWORD PTR [rbp-16], rsi
.LBB58:
        .loc 25 120 96
        mov     rax, QWORD PTR [rbp-8]
        mov     rdx, QWORD PTR [rbp-16]
        mov     QWORD PTR [rax], rdx
.LBE58:
        .loc 25 120 99
        nop
        pop     rbp
        .cfi_def_cfa 7, 8
        ret
        .cfi_endproc
.LFE9245:
        .size   _ZN5Eigen8internal19variable_if_dynamicIlLin1EEC2El, .-_ZN5Eigen8internal19variable_if_dynamicIlLin1EEC2El
        .weak   _ZN5Eigen8internal19variable_if_dynamicIlLin1EEC1El
        .set    _ZN5Eigen8internal19variable_if_dynamicIlLin1EEC1El,_ZN5Eigen8internal19variable_if_dynamicIlLin1EEC2El
        .section        .text._ZN5Eigen8internal21default_digits10_implIdLb1ELb0EE3runEv,"axG",@progbits,_ZN5Eigen8internal21default_digits10_implIdLb1ELb0EE3runEv,comdat
        .weak   _ZN5Eigen8internal21default_digits10_implIdLb1ELb0EE3runEv
        .type   _ZN5Eigen8internal21default_digits10_implIdLb1ELb0EE3runEv, @function
_ZN5Eigen8internal21default_digits10_implIdLb1ELb0EE3runEv:
.LFB9247:
        .loc 26 24 14
        .cfi_startproc
        push    rbp
        .cfi_def_cfa_offset 16
        .cfi_offset 6, -16
        mov     rbp, rsp
        .cfi_def_cfa_register 6
        .loc 26 24 53
        mov     eax, 15
        .loc 26 24 63
        pop     rbp
        .cfi_def_cfa 7, 8
        ret
        .cfi_endproc
.LFE9247:
        .size   _ZN5Eigen8internal21default_digits10_implIdLb1ELb0EE3runEv, .-_ZN5Eigen8internal21default_digits10_implIdLb1ELb0EE3runEv
        .section        .text._ZSt9addressofIKcEPT_RS1_,"axG",@progbits,_ZSt9addressofIKcEPT_RS1_,comdat
        .weak   _ZSt9addressofIKcEPT_RS1_
        .type   _ZSt9addressofIKcEPT_RS1_, @function
_ZSt9addressofIKcEPT_RS1_:
.LFB9279:
        .loc 19 138 5
        .cfi_startproc
        push    rbp
        .cfi_def_cfa_offset 16
        .cfi_offset 6, -16
        mov     rbp, rsp
        .cfi_def_cfa_register 6
        sub     rsp, 16
        mov     QWORD PTR [rbp-8], rdi
        .loc 19 139 30
        mov     rax, QWORD PTR [rbp-8]
        mov     rdi, rax
        call    _ZSt11__addressofIKcEPT_RS1_
        .loc 19 139 37
        leave
        .cfi_def_cfa 7, 8
        ret
        .cfi_endproc
.LFE9279:
        .size   _ZSt9addressofIKcEPT_RS1_, .-_ZSt9addressofIKcEPT_RS1_
        .section        .text._ZNK9__gnu_cxx13new_allocatorIcE8max_sizeEv,"axG",@progbits,_ZNK9__gnu_cxx13new_allocatorIcE8max_sizeEv,comdat
        .align 2
        .weak   _ZNK9__gnu_cxx13new_allocatorIcE8max_sizeEv
        .type   _ZNK9__gnu_cxx13new_allocatorIcE8max_sizeEv, @function
_ZNK9__gnu_cxx13new_allocatorIcE8max_sizeEv:
.LFB9299:
        .loc 27 129 7
        .cfi_startproc
        push    rbp
        .cfi_def_cfa_offset 16
        .cfi_offset 6, -16
        mov     rbp, rsp
        .cfi_def_cfa_register 6
        mov     QWORD PTR [rbp-8], rdi
        .loc 27 130 39
        mov     rax, -1
        .loc 27 130 42
        pop     rbp
        .cfi_def_cfa 7, 8
        ret
        .cfi_endproc
.LFE9299:
        .size   _ZNK9__gnu_cxx13new_allocatorIcE8max_sizeEv, .-_ZNK9__gnu_cxx13new_allocatorIcE8max_sizeEv
        .section        .text._ZN9__gnu_cxx13new_allocatorIcE8allocateEmPKv,"axG",@progbits,_ZN9__gnu_cxx13new_allocatorIcE8allocateEmPKv,comdat
        .align 2
        .weak   _ZN9__gnu_cxx13new_allocatorIcE8allocateEmPKv
        .type   _ZN9__gnu_cxx13new_allocatorIcE8allocateEmPKv, @function
_ZN9__gnu_cxx13new_allocatorIcE8allocateEmPKv:
.LFB9301:
        .loc 27 99 7
        .cfi_startproc
        push    rbp
        .cfi_def_cfa_offset 16
        .cfi_offset 6, -16
        mov     rbp, rsp
        .cfi_def_cfa_register 6
        sub     rsp, 32
        mov     QWORD PTR [rbp-8], rdi
        mov     QWORD PTR [rbp-16], rsi
        mov     QWORD PTR [rbp-24], rdx
        .loc 27 101 10
        mov     rax, QWORD PTR [rbp-8]
        mov     rdi, rax
        call    _ZNK9__gnu_cxx13new_allocatorIcE8max_sizeEv
        cmp     QWORD PTR [rbp-16], rax
        seta    al
        .loc 27 101 2
        test    al, al
        je      .L317
        .loc 27 102 26
        call    _ZSt17__throw_bad_allocv
.L317:
        .loc 27 111 41
        mov     rax, QWORD PTR [rbp-16]
        mov     rdi, rax
        call    _Znwm
        .loc 27 111 60
        nop
        .loc 27 112 7
        leave
        .cfi_def_cfa 7, 8
        ret
        .cfi_endproc
.LFE9301:
        .size   _ZN9__gnu_cxx13new_allocatorIcE8allocateEmPKv, .-_ZN9__gnu_cxx13new_allocatorIcE8allocateEmPKv
        .section        .text._ZN5Eigen8internal26conditional_aligned_mallocILb1EEEPvm,"axG",@progbits,_ZN5Eigen8internal26conditional_aligned_mallocILb1EEEPvm,comdat
        .weak   _ZN5Eigen8internal26conditional_aligned_mallocILb1EEEPvm
        .type   _ZN5Eigen8internal26conditional_aligned_mallocILb1EEEPvm, @function
_ZN5Eigen8internal26conditional_aligned_mallocILb1EEEPvm:
.LFB9303:
        .loc 6 212 53
        .cfi_startproc
        push    rbp
        .cfi_def_cfa_offset 16
        .cfi_offset 6, -16
        mov     rbp, rsp
        .cfi_def_cfa_register 6
        sub     rsp, 16
        mov     QWORD PTR [rbp-8], rdi
        .loc 6 214 24
        mov     rax, QWORD PTR [rbp-8]
        mov     rdi, rax
        call    _ZN5Eigen8internal14aligned_mallocEm
        .loc 6 215 1
        leave
        .cfi_def_cfa 7, 8
        ret
        .cfi_endproc
.LFE9303:
        .size   _ZN5Eigen8internal26conditional_aligned_mallocILb1EEEPvm, .-_ZN5Eigen8internal26conditional_aligned_mallocILb1EEEPvm
        .section        .text._ZNK5Eigen6MatrixIdLin1ELin1ELi0ELin1ELin1EE11outerStrideEv,"axG",@progbits,_ZNK5Eigen6MatrixIdLin1ELin1ELi0ELin1ELin1EE11outerStrideEv,comdat
        .align 2
        .weak   _ZNK5Eigen6MatrixIdLin1ELin1ELi0ELin1ELin1EE11outerStrideEv
        .type   _ZNK5Eigen6MatrixIdLin1ELin1ELi0ELin1ELin1EE11outerStrideEv, @function
_ZNK5Eigen6MatrixIdLin1ELin1ELi0ELin1ELin1EE11outerStrideEv:
.LFB9305:
        .loc 9 383 36
        .cfi_startproc
        push    rbp
        .cfi_def_cfa_offset 16
        .cfi_offset 6, -16
        mov     rbp, rsp
        .cfi_def_cfa_register 6
        sub     rsp, 16
        mov     QWORD PTR [rbp-8], rdi
        .loc 9 383 81
        mov     rax, QWORD PTR [rbp-8]
        mov     rdi, rax
        call    _ZNK5Eigen9DenseBaseINS_6MatrixIdLin1ELin1ELi0ELin1ELin1EEEE9innerSizeEv
        .loc 9 383 84
        leave
        .cfi_def_cfa 7, 8
        ret
        .cfi_endproc
.LFE9305:
        .size   _ZNK5Eigen6MatrixIdLin1ELin1ELi0ELin1ELin1EE11outerStrideEv, .-_ZNK5Eigen6MatrixIdLin1ELin1ELi0ELin1ELin1EE11outerStrideEv
        .section        .text._ZSt11__addressofIKcEPT_RS1_,"axG",@progbits,_ZSt11__addressofIKcEPT_RS1_,comdat
        .weak   _ZSt11__addressofIKcEPT_RS1_
        .type   _ZSt11__addressofIKcEPT_RS1_, @function
_ZSt11__addressofIKcEPT_RS1_:
.LFB9315:
        .loc 19 47 5
        .cfi_startproc
        push    rbp
        .cfi_def_cfa_offset 16
        .cfi_offset 6, -16
        mov     rbp, rsp
        .cfi_def_cfa_register 6
        mov     QWORD PTR [rbp-8], rdi
        .loc 19 48 37
        mov     rax, QWORD PTR [rbp-8]
        .loc 19 48 40
        pop     rbp
        .cfi_def_cfa 7, 8
        ret
        .cfi_endproc
.LFE9315:
        .size   _ZSt11__addressofIKcEPT_RS1_, .-_ZSt11__addressofIKcEPT_RS1_
        .section        .text._ZNK5Eigen9DenseBaseINS_6MatrixIdLin1ELin1ELi0ELin1ELin1EEEE9innerSizeEv,"axG",@progbits,_ZNK5Eigen9DenseBaseINS_6MatrixIdLin1ELin1ELi0ELin1ELin1EEEE9innerSizeEv,comdat
        .align 2
        .weak   _ZNK5Eigen9DenseBaseINS_6MatrixIdLin1ELin1ELi0ELin1ELin1EEEE9innerSizeEv
        .type   _ZNK5Eigen9DenseBaseINS_6MatrixIdLin1ELin1ELi0ELin1ELin1EEEE9innerSizeEv, @function
_ZNK5Eigen9DenseBaseINS_6MatrixIdLin1ELin1ELi0ELin1ELin1EEEE9innerSizeEv:
.LFB9328:
        .loc 17 230 11
        .cfi_startproc
        push    rbp
        .cfi_def_cfa_offset 16
        .cfi_offset 6, -16
        mov     rbp, rsp
        .cfi_def_cfa_register 6
        sub     rsp, 16
        mov     QWORD PTR [rbp-8], rdi
        .loc 17 232 36
        mov     rax, QWORD PTR [rbp-8]
        mov     rdi, rax
        call    _ZNK5Eigen9EigenBaseINS_6MatrixIdLin1ELin1ELi0ELin1ELin1EEEE4rowsEv
        .loc 17 234 5
        leave
        .cfi_def_cfa 7, 8
        ret
        .cfi_endproc
.LFE9328:
        .size   _ZNK5Eigen9DenseBaseINS_6MatrixIdLin1ELin1ELi0ELin1ELin1EEEE9innerSizeEv, .-_ZNK5Eigen9DenseBaseINS_6MatrixIdLin1ELin1ELi0ELin1ELin1EEEE9innerSizeEv
        .text
        .type   _Z41__static_initialization_and_destruction_0ii, @function
_Z41__static_initialization_and_destruction_0ii:
.LFB9345:
        .loc 10 12 1
        .cfi_startproc
        push    rbp
        .cfi_def_cfa_offset 16
        .cfi_offset 6, -16
        mov     rbp, rsp
        .cfi_def_cfa_register 6
        sub     rsp, 16
        mov     DWORD PTR [rbp-4], edi
        mov     DWORD PTR [rbp-8], esi
        .loc 10 12 1
        cmp     DWORD PTR [rbp-4], 1
        jne     .L328
        .loc 10 12 1 is_stmt 0 discriminator 1
        cmp     DWORD PTR [rbp-8], 65535
        jne     .L328
        .file 30 "/opt/compiler-explorer/gcc-8.3.0/include/c++/8.3.0/iostream"
        .loc 30 74 25 is_stmt 1
        mov     edi, OFFSET FLAT:_ZStL8__ioinit
        call    _ZNSt8ios_base4InitC1Ev
        mov     edx, OFFSET FLAT:__dso_handle
        mov     esi, OFFSET FLAT:_ZStL8__ioinit
        mov     edi, OFFSET FLAT:_ZNSt8ios_base4InitD1Ev
        call    __cxa_atexit
.L328:
        .loc 10 12 1
        nop
        leave
        .cfi_def_cfa 7, 8
        ret
        .cfi_endproc
.LFE9345:
        .size   _Z41__static_initialization_and_destruction_0ii, .-_Z41__static_initialization_and_destruction_0ii
        .type   _GLOBAL__sub_I_main, @function
_GLOBAL__sub_I_main:
.LFB9346:
        .loc 10 12 1
        .cfi_startproc
        push    rbp
        .cfi_def_cfa_offset 16
        .cfi_offset 6, -16
        mov     rbp, rsp
        .cfi_def_cfa_register 6
        .loc 10 12 1
        mov     esi, 65535
        mov     edi, 1
        call    _Z41__static_initialization_and_destruction_0ii
        pop     rbp
        .cfi_def_cfa 7, 8
        ret
        .cfi_endproc
.LFE9346:
        .size   _GLOBAL__sub_I_main, .-_GLOBAL__sub_I_main
        .section        .init_array,"aw"
        .align 8
        .quad   _GLOBAL__sub_I_main
        .section        .rodata
        .align 32
        .type   _ZZN5Eigen15PlainObjectBaseINS_6MatrixIdLin1ELin1ELi0ELin1ELin1EEEE6resizeEllE19__PRETTY_FUNCTION__, @object
        .size   _ZZN5Eigen15PlainObjectBaseINS_6MatrixIdLin1ELin1ELi0ELin1ELin1EEEE6resizeEllE19__PRETTY_FUNCTION__, 145
_ZZN5Eigen15PlainObjectBaseINS_6MatrixIdLin1ELin1ELi0ELin1ELin1EEEE6resizeEllE19__PRETTY_FUNCTION__:
        .string "void Eigen::PlainObjectBase<Derived>::resize(Eigen::Index, Eigen::Index) [with Derived = Eigen::Matrix<double, -1, -1>; Eigen::Index = long int]"
        .align 32
        .type   _ZZN5Eigen8internal14aligned_mallocEmE19__PRETTY_FUNCTION__, @object
        .size   _ZZN5Eigen8internal14aligned_mallocEmE19__PRETTY_FUNCTION__, 51
_ZZN5Eigen8internal14aligned_mallocEmE19__PRETTY_FUNCTION__:
        .string "void* Eigen::internal::aligned_malloc(std::size_t)"
        .align 32
        .type   _ZZN5Eigen15DenseCoeffsBaseINS_6MatrixIdLin1ELin1ELi0ELin1ELin1EEELi1EEclEllE19__PRETTY_FUNCTION__, @object
        .size   _ZZN5Eigen15DenseCoeffsBaseINS_6MatrixIdLin1ELin1ELi0ELin1ELin1EEELi1EEclEllE19__PRETTY_FUNCTION__, 244
_ZZN5Eigen15DenseCoeffsBaseINS_6MatrixIdLin1ELin1ELi0ELin1ELin1EEELi1EEclEllE19__PRETTY_FUNCTION__:
        .string "Eigen::DenseCoeffsBase<Derived, 1>::Scalar& Eigen::DenseCoeffsBase<Derived, 1>::operator()(Eigen::Index, Eigen::Index) [with Derived = Eigen::Matrix<double, -1, -1>; Eigen::DenseCoeffsBase<Derived, 1>::Scalar = double; Eigen::Index = long int]"
        .align 8
.LC3:
        .long   0
        .long   1074266112
        .align 8
.LC4:
        .long   0
        .long   1074003968
        .align 8
.LC5:
        .long   0
        .long   -1074790400
        .text
.Letext0:
        .file 31 "/opt/compiler-explorer/gcc-8.3.0/include/c++/8.3.0/bits/stringfwd.h"
        .file 32 "/opt/compiler-explorer/gcc-8.3.0/include/c++/8.3.0/cwchar"
        .file 33 "/opt/compiler-explorer/gcc-8.3.0/include/c++/8.3.0/bits/exception_ptr.h"
        .file 34 "/opt/compiler-explorer/gcc-8.3.0/include/c++/8.3.0/x86_64-linux-gnu/bits/c++config.h"
        .file 35 "/opt/compiler-explorer/gcc-8.3.0/include/c++/8.3.0/type_traits"
        .file 36 "/opt/compiler-explorer/gcc-8.3.0/include/c++/8.3.0/bits/cpp_type_traits.h"
        .file 37 "/opt/compiler-explorer/gcc-8.3.0/include/c++/8.3.0/bits/stl_pair.h"
        .file 38 "/opt/compiler-explorer/gcc-8.3.0/include/c++/8.3.0/debug/debug.h"
        .file 39 "/opt/compiler-explorer/gcc-8.3.0/include/c++/8.3.0/cstdint"
        .file 40 "/opt/compiler-explorer/gcc-8.3.0/include/c++/8.3.0/clocale"
        .file 41 "/opt/compiler-explorer/gcc-8.3.0/include/c++/8.3.0/bits/allocator.h"
        .file 42 "/opt/compiler-explorer/gcc-8.3.0/include/c++/8.3.0/limits"
        .file 43 "/opt/compiler-explorer/gcc-8.3.0/include/c++/8.3.0/string_view"
        .file 44 "/opt/compiler-explorer/gcc-8.3.0/include/c++/8.3.0/complex"
        .file 45 "/opt/compiler-explorer/gcc-8.3.0/include/c++/8.3.0/cstdlib"
        .file 46 "/opt/compiler-explorer/gcc-8.3.0/include/c++/8.3.0/cstdio"
        .file 47 "/opt/compiler-explorer/gcc-8.3.0/include/c++/8.3.0/initializer_list"
        .file 48 "/opt/compiler-explorer/gcc-8.3.0/include/c++/8.3.0/system_error"
        .file 49 "/opt/compiler-explorer/gcc-8.3.0/include/c++/8.3.0/cwctype"
        .file 50 "/opt/compiler-explorer/gcc-8.3.0/include/c++/8.3.0/istream"
        .file 51 "/opt/compiler-explorer/gcc-8.3.0/include/c++/8.3.0/iosfwd"
        .file 52 "/opt/compiler-explorer/gcc-8.3.0/include/c++/8.3.0/cmath"
        .file 53 "/opt/compiler-explorer/gcc-8.3.0/include/c++/8.3.0/ostream"
        .file 54 "/opt/compiler-explorer/gcc-8.3.0/include/c++/8.3.0/bits/std_abs.h"
        .file 55 "/opt/compiler-explorer/gcc-8.3.0/include/c++/8.3.0/cstddef"
        .file 56 "/opt/compiler-explorer/gcc-8.3.0/include/c++/8.3.0/utility"
        .file 57 "/opt/compiler-explorer/gcc-8.3.0/include/c++/8.3.0/bits/uses_allocator.h"
        .file 58 "/opt/compiler-explorer/gcc-8.3.0/include/c++/8.3.0/tuple"
        .file 59 "/opt/compiler-explorer/gcc-8.3.0/include/c++/8.3.0/optional"
        .file 60 "/opt/compiler-explorer/gcc-8.3.0/include/c++/8.3.0/functional"
        .file 61 "/opt/compiler-explorer/gcc-8.3.0/include/c++/8.3.0/cstring"
        .file 62 "/opt/compiler-explorer/gcc-8.3.0/include/c++/8.3.0/bits/postypes.h"
        .file 63 "/opt/compiler-explorer/gcc-8.3.0/include/c++/8.3.0/bits/predefined_ops.h"
        .file 64 "/opt/compiler-explorer/gcc-8.3.0/include/c++/8.3.0/ext/numeric_traits.h"
        .file 65 "/opt/compiler-explorer/gcc-8.3.0/include/c++/8.3.0/bits/stl_iterator.h"
        .file 66 "/opt/compiler-explorer/gcc-8.3.0/lib/gcc/x86_64-linux-gnu/8.3.0/include/stddef.h"
        .file 67 "<built-in>"
        .file 68 "/usr/include/x86_64-linux-gnu/bits/types/wint_t.h"
        .file 69 "/usr/include/x86_64-linux-gnu/bits/types/__mbstate_t.h"
        .file 70 "/usr/include/x86_64-linux-gnu/bits/types/mbstate_t.h"
        .file 71 "/usr/include/x86_64-linux-gnu/bits/types/__FILE.h"
        .file 72 "/usr/include/x86_64-linux-gnu/bits/libio.h"
        .file 73 "/usr/include/x86_64-linux-gnu/bits/types/FILE.h"
        .file 74 "/usr/include/wchar.h"
        .file 75 "/usr/include/x86_64-linux-gnu/bits/types/struct_tm.h"
        .file 76 "/usr/include/x86_64-linux-gnu/bits/types.h"
        .file 77 "/usr/include/x86_64-linux-gnu/bits/stdint-intn.h"
        .file 78 "/usr/include/x86_64-linux-gnu/bits/stdint-uintn.h"
        .file 79 "/usr/include/stdint.h"
        .file 80 "/usr/include/locale.h"
        .file 81 "/usr/include/time.h"
        .file 82 "/opt/compiler-explorer/gcc-8.3.0/include/c++/8.3.0/x86_64-linux-gnu/bits/atomic_word.h"
        .file 83 "/usr/include/stdlib.h"
        .file 84 "/usr/include/x86_64-linux-gnu/bits/_G_config.h"
        .file 85 "/usr/include/stdio.h"
        .file 86 "/usr/include/x86_64-linux-gnu/bits/sys_errlist.h"
        .file 87 "/usr/include/errno.h"
        .file 88 "/usr/include/x86_64-linux-gnu/bits/wctype-wchar.h"
        .file 89 "/usr/include/wctype.h"
        .file 90 "/usr/include/math.h"
        .file 91 "/opt/compiler-explorer/gcc-8.3.0/include/c++/8.3.0/stdlib.h"
        .file 92 "/usr/include/string.h"
        .file 93 "/opt/compiler-explorer/libs/eigen/v3.3.4/Eigen/src/Core/util/Macros.h"
        .file 94 "/opt/compiler-explorer/libs/eigen/v3.3.4/Eigen/Core"
        .file 95 "/opt/compiler-explorer/libs/eigen/v3.3.4/Eigen/src/Core/util/Constants.h"
        .file 96 "/opt/compiler-explorer/libs/eigen/v3.3.4/Eigen/src/Core/arch/CUDA/Half.h"
        .file 97 "/opt/compiler-explorer/libs/eigen/v3.3.4/Eigen/src/Core/products/GeneralBlockPanelKernel.h"
        .file 98 "/opt/compiler-explorer/libs/eigen/v3.3.4/Eigen/src/Core/util/ForwardDeclarations.h"
        .file 99 "/opt/compiler-explorer/libs/eigen/v3.3.4/Eigen/src/Core/GeneralProduct.h"
        .file 100 "/opt/compiler-explorer/libs/eigen/v3.3.4/Eigen/src/plugins/CommonCwiseUnaryOps.h"
        .file 101 "/opt/compiler-explorer/libs/eigen/v3.3.4/Eigen/src/plugins/MatrixCwiseUnaryOps.h"
        .file 102 "/opt/compiler-explorer/libs/eigen/v3.3.4/Eigen/src/plugins/MatrixCwiseBinaryOps.h"
        .file 103 "/opt/compiler-explorer/libs/eigen/v3.3.4/Eigen/src/Core/Assign.h"
        .file 104 "/opt/compiler-explorer/libs/eigen/v3.3.4/Eigen/src/Core/Dot.h"
        .file 105 "/opt/compiler-explorer/libs/eigen/v3.3.4/Eigen/src/Core/StableNorm.h"
        .file 106 "/opt/compiler-explorer/libs/eigen/v3.3.4/Eigen/src/Core/Transpose.h"
        .file 107 "/opt/compiler-explorer/libs/eigen/v3.3.4/Eigen/src/Core/Diagonal.h"
        .file 108 "/opt/compiler-explorer/libs/eigen/v3.3.4/Eigen/src/Core/CwiseNullaryOp.h"
        .file 109 "/opt/compiler-explorer/libs/eigen/v3.3.4/Eigen/src/Core/DiagonalMatrix.h"
        .file 110 "/opt/compiler-explorer/libs/eigen/v3.3.4/Eigen/src/Core/PermutationMatrix.h"
        .file 111 "/opt/compiler-explorer/libs/eigen/v3.3.4/Eigen/src/Core/TriangularMatrix.h"
        .file 112 "/opt/compiler-explorer/libs/eigen/v3.3.4/Eigen/src/Core/NoAlias.h"
        .file 113 "/opt/compiler-explorer/libs/eigen/v3.3.4/Eigen/src/Core/Redux.h"
        .file 114 "/opt/compiler-explorer/libs/eigen/v3.3.4/Eigen/src/LU/FullPivLU.h"
        .file 115 "/opt/compiler-explorer/libs/eigen/v3.3.4/Eigen/src/LU/PartialPivLU.h"
        .file 116 "/opt/compiler-explorer/libs/eigen/v3.3.4/Eigen/src/LU/InverseImpl.h"
        .file 117 "/opt/compiler-explorer/libs/eigen/v3.3.4/Eigen/src/LU/Determinant.h"
        .file 118 "/opt/compiler-explorer/libs/eigen/v3.3.4/Eigen/src/Cholesky/LLT.h"
        .file 119 "/opt/compiler-explorer/libs/eigen/v3.3.4/Eigen/src/Cholesky/LDLT.h"
        .file 120 "/opt/compiler-explorer/libs/eigen/v3.3.4/Eigen/src/QR/HouseholderQR.h"
        .file 121 "/opt/compiler-explorer/libs/eigen/v3.3.4/Eigen/src/QR/ColPivHouseholderQR.h"
        .file 122 "/opt/compiler-explorer/libs/eigen/v3.3.4/Eigen/src/QR/FullPivHouseholderQR.h"
        .file 123 "/opt/compiler-explorer/libs/eigen/v3.3.4/Eigen/src/QR/CompleteOrthogonalDecomposition.h"
        .file 124 "/opt/compiler-explorer/libs/eigen/v3.3.4/Eigen/src/Eigenvalues/MatrixBaseEigenvalues.h"
        .file 125 "/opt/compiler-explorer/libs/eigen/v3.3.4/Eigen/src/SVD/JacobiSVD.h"
        .file 126 "/opt/compiler-explorer/libs/eigen/v3.3.4/Eigen/src/SVD/BDCSVD.h"
        .file 127 "/opt/compiler-explorer/libs/eigen/v3.3.4/Eigen/src/Geometry/OrthoMethods.h"
        .file 128 "/opt/compiler-explorer/libs/eigen/v3.3.4/Eigen/src/Geometry/EulerAngles.h"
        .file 129 "/opt/compiler-explorer/libs/eigen/v3.3.4/Eigen/src/Geometry/Homogeneous.h"
        .file 130 "/opt/compiler-explorer/libs/eigen/v3.3.4/Eigen/src/Householder/Householder.h"
        .file 131 "/opt/compiler-explorer/libs/eigen/v3.3.4/Eigen/src/Core/CommaInitializer.h"
        .file 132 "/opt/compiler-explorer/libs/eigen/v3.3.4/Eigen/src/Core/Random.h"
        .file 133 "/opt/compiler-explorer/libs/eigen/v3.3.4/Eigen/src/Core/Fuzzy.h"
        .file 134 "/opt/compiler-explorer/libs/eigen/v3.3.4/Eigen/src/Core/BooleanRedux.h"
        .file 135 "/opt/compiler-explorer/libs/eigen/v3.3.4/Eigen/src/Core/SelfCwiseBinaryOp.h"
        .file 136 "/opt/compiler-explorer/libs/eigen/v3.3.4/Eigen/src/Core/NestByValue.h"
        .file 137 "/opt/compiler-explorer/libs/eigen/v3.3.4/Eigen/src/Core/VectorwiseOp.h"
        .file 138 "/opt/compiler-explorer/libs/eigen/v3.3.4/Eigen/src/Core/Reverse.h"
        .file 139 "/opt/compiler-explorer/libs/eigen/v3.3.4/Eigen/src/plugins/BlockMethods.h"