
prog:     file format elf64-x86-64


Disassembly of section .text:

0000000000400140 <_dynamic_start>:
_dynamic_start():
  400140:	48 c7 c0 f8 d3 62 00                            	mov    $0x62d3f8,%rax
  400147:	48 89 10                                        	mov    %rdx,(%rax)
  40014a:	eb 00                                           	jmp    40014c <_start>

000000000040014c <_start>:
_start():
  40014c:	5e                                              	pop    %rsi
  40014d:	48 c7 c0 00 d4 62 00                            	mov    $0x62d400,%rax
  400154:	48 89 30                                        	mov    %rsi,(%rax)
  400157:	48 c7 c0 08 d4 62 00                            	mov    $0x62d408,%rax
  40015e:	48 89 20                                        	mov    %rsp,(%rax)
  400161:	48 8d 04 f5 08 00 00 00                         	lea    0x8(,%rsi,8),%rax
  400169:	48 01 e0                                        	add    %rsp,%rax
  40016c:	48 c7 c1 e8 d3 62 00                            	mov    $0x62d3e8,%rcx
  400173:	48 89 01                                        	mov    %rax,(%rcx)
  400176:	48 83 e4 f0                                     	and    $0xfffffffffffffff0,%rsp
  40017a:	48 c7 c0 f0 d3 62 00                            	mov    $0x62d3f0,%rax
  400181:	48 89 20                                        	mov    %rsp,(%rax)
  400184:	48 31 ed                                        	xor    %rbp,%rbp
  400187:	e8 34 00 00 00                                  	callq  4001c0 <main>
  40018c:	eb 00                                           	jmp    40018e <_haltproc>

000000000040018e <_haltproc>:
_haltproc():
  40018e:	48 c7 c0 f8 d3 62 00                            	mov    $0x62d3f8,%rax
  400195:	48 8b 00                                        	mov    (%rax),%rax
  400198:	48 85 c0                                        	test   %rax,%rax
  40019b:	74 02                                           	je     40019f <_haltproc+0x11>
  40019d:	ff d0                                           	callq  *%rax
  40019f:	48 c7 c0 f0 af 62 00                            	mov    $0x62aff0,%rax
  4001a6:	0f b7 38                                        	movzwl (%rax),%edi
  4001a9:	b8 e7 00 00 00                                  	mov    $0xe7,%eax
  4001ae:	0f 05                                           	syscall 
  4001b0:	eb dc                                           	jmp    40018e <_haltproc>
  4001b2:	90                                              	nop
  4001b3:	90                                              	nop
  4001b4:	90                                              	nop
  4001b5:	90                                              	nop
  4001b6:	90                                              	nop
  4001b7:	90                                              	nop
  4001b8:	90                                              	nop
  4001b9:	90                                              	nop
  4001ba:	90                                              	nop
  4001bb:	90                                              	nop
  4001bc:	90                                              	nop
  4001bd:	90                                              	nop
  4001be:	90                                              	nop
  4001bf:	90                                              	nop

00000000004001c0 <main>:
main():
/home/partouf/ce//../../../tmp/compiler-explorer-compiler118020-15958-ivh3sj.7n4td/prog.dpr:1
  4001c0:	48 8d 64 24 f8                                  	lea    -0x8(%rsp),%rsp
  4001c5:	e8 96 65 01 00                                  	callq  416760 <fpc_initializeunits>
  4001ca:	e8 31 6a 01 00                                  	callq  416c00 <SYSTEM_$$_DO_EXIT>
  4001cf:	48 8d 64 24 08                                  	lea    0x8(%rsp),%rsp
  4001d4:	c3                                              	retq   
	...

00000000004001e0 <SYSTEM_$$_GETERRNO$$LONGINT>:
SYSTEM_$$_GETERRNO$$LONGINT():
  4001e0:	48 8d 64 24 f8                                  	lea    -0x8(%rsp),%rsp
  4001e5:	48 8d 05 34 d0 22 00                            	lea    0x22d034(%rip),%rax        # 62d220 <FPC_THREADVAR_RELOCATE>
  4001ec:	48 8b 00                                        	mov    (%rax),%rax
  4001ef:	48 85 c0                                        	test   %rax,%rax
  4001f2:	74 0a                                           	je     4001fe <SYSTEM_$$_GETERRNO$$LONGINT+0x1e>
  4001f4:	8b 3d 56 c1 22 00                               	mov    0x22c156(%rip),%edi        # 62c350 <U_$SYSTEM_$$_ERRNO>
  4001fa:	ff d0                                           	callq  *%rax
  4001fc:	eb 07                                           	jmp    400205 <SYSTEM_$$_GETERRNO$$LONGINT+0x25>
  4001fe:	48 8d 05 53 c1 22 00                            	lea    0x22c153(%rip),%rax        # 62c358 <U_$SYSTEM_$$_ERRNO+0x8>
  400205:	8b 00                                           	mov    (%rax),%eax
  400207:	48 8d 64 24 08                                  	lea    0x8(%rsp),%rsp
  40020c:	c3                                              	retq   
  40020d:	00 00                                           	add    %al,(%rax)
	...

0000000000400210 <SYSTEM_$$_SETERRNO$LONGINT>:
SYSTEM_$$_SETERRNO$LONGINT():
  400210:	53                                              	push   %rbx
  400211:	89 fb                                           	mov    %edi,%ebx
  400213:	48 8d 05 06 d0 22 00                            	lea    0x22d006(%rip),%rax        # 62d220 <FPC_THREADVAR_RELOCATE>
  40021a:	48 8b 00                                        	mov    (%rax),%rax
  40021d:	48 85 c0                                        	test   %rax,%rax
  400220:	74 0a                                           	je     40022c <SYSTEM_$$_SETERRNO$LONGINT+0x1c>
  400222:	8b 3d 28 c1 22 00                               	mov    0x22c128(%rip),%edi        # 62c350 <U_$SYSTEM_$$_ERRNO>
  400228:	ff d0                                           	callq  *%rax
  40022a:	eb 07                                           	jmp    400233 <SYSTEM_$$_SETERRNO$LONGINT+0x23>
  40022c:	48 8d 05 25 c1 22 00                            	lea    0x22c125(%rip),%rax        # 62c358 <U_$SYSTEM_$$_ERRNO+0x8>
  400233:	89 da                                           	mov    %ebx,%edx
  400235:	89 10                                           	mov    %edx,(%rax)
  400237:	5b                                              	pop    %rbx
  400238:	c3                                              	retq   
  400239:	00 00                                           	add    %al,(%rax)
  40023b:	00 00                                           	add    %al,(%rax)
  40023d:	00 00                                           	add    %al,(%rax)
	...

0000000000400240 <SYSTEM_$$_FPSYSCALL$INT64$$INT64>:
SYSTEM_$$_FPSYSCALL$INT64$$INT64():
  400240:	55                                              	push   %rbp
  400241:	48 89 e5                                        	mov    %rsp,%rbp
  400244:	48 8d 64 24 f0                                  	lea    -0x10(%rsp),%rsp
  400249:	48 89 f8                                        	mov    %rdi,%rax
  40024c:	0f 05                                           	syscall 
  40024e:	48 3d 01 f0 ff ff                               	cmp    $0xfffffffffffff001,%rax
  400254:	72 15                                           	jb     40026b <SYSTEM_$$_FPSYSCALL$INT64$$INT64+0x2b>
  400256:	48 f7 d8                                        	neg    %rax
  400259:	48 89 c7                                        	mov    %rax,%rdi
  40025c:	e8 af ff ff ff                                  	callq  400210 <SYSTEM_$$_SETERRNO$LONGINT>
  400261:	48 b8 ff ff ff ff ff ff ff ff                   	movabs $0xffffffffffffffff,%rax
  40026b:	c9                                              	leaveq 
  40026c:	c3                                              	retq   
  40026d:	00 00                                           	add    %al,(%rax)
	...

0000000000400270 <SYSTEM_$$_FPSYSCALL$INT64$INT64$$INT64>:
SYSTEM_$$_FPSYSCALL$INT64$INT64$$INT64():
  400270:	55                                              	push   %rbp
  400271:	48 89 e5                                        	mov    %rsp,%rbp
  400274:	48 8d 64 24 f0                                  	lea    -0x10(%rsp),%rsp
  400279:	48 89 f8                                        	mov    %rdi,%rax
  40027c:	48 89 f7                                        	mov    %rsi,%rdi
  40027f:	0f 05                                           	syscall 
  400281:	48 3d 01 f0 ff ff                               	cmp    $0xfffffffffffff001,%rax
  400287:	72 15                                           	jb     40029e <SYSTEM_$$_FPSYSCALL$INT64$INT64$$INT64+0x2e>
  400289:	48 f7 d8                                        	neg    %rax
  40028c:	48 89 c7                                        	mov    %rax,%rdi
  40028f:	e8 7c ff ff ff                                  	callq  400210 <SYSTEM_$$_SETERRNO$LONGINT>
  400294:	48 b8 ff ff ff ff ff ff ff ff                   	movabs $0xffffffffffffffff,%rax
  40029e:	c9                                              	leaveq 
  40029f:	c3                                              	retq   

00000000004002a0 <SYSTEM_$$_FPSYSCALL$INT64$INT64$INT64$$INT64>:
SYSTEM_$$_FPSYSCALL$INT64$INT64$INT64$$INT64():
  4002a0:	55                                              	push   %rbp
  4002a1:	48 89 e5                                        	mov    %rsp,%rbp
  4002a4:	48 8d 64 24 f0                                  	lea    -0x10(%rsp),%rsp
  4002a9:	48 89 f8                                        	mov    %rdi,%rax
  4002ac:	48 89 f7                                        	mov    %rsi,%rdi
  4002af:	48 89 d6                                        	mov    %rdx,%rsi
  4002b2:	0f 05                                           	syscall 
  4002b4:	48 3d 01 f0 ff ff                               	cmp    $0xfffffffffffff001,%rax
  4002ba:	72 15                                           	jb     4002d1 <SYSTEM_$$_FPSYSCALL$INT64$INT64$INT64$$INT64+0x31>
  4002bc:	48 f7 d8                                        	neg    %rax
  4002bf:	48 89 c7                                        	mov    %rax,%rdi
  4002c2:	e8 49 ff ff ff                                  	callq  400210 <SYSTEM_$$_SETERRNO$LONGINT>
  4002c7:	48 b8 ff ff ff ff ff ff ff ff                   	movabs $0xffffffffffffffff,%rax
  4002d1:	c9                                              	leaveq 
  4002d2:	c3                                              	retq   
	...

00000000004002e0 <SYSTEM_$$_FPSYSCALL$INT64$INT64$INT64$INT64$$INT64>:
SYSTEM_$$_FPSYSCALL$INT64$INT64$INT64$INT64$$INT64():
  4002e0:	55                                              	push   %rbp
  4002e1:	48 89 e5                                        	mov    %rsp,%rbp
  4002e4:	48 8d 64 24 f0                                  	lea    -0x10(%rsp),%rsp
  4002e9:	48 89 f8                                        	mov    %rdi,%rax
  4002ec:	48 89 f7                                        	mov    %rsi,%rdi
  4002ef:	48 89 d6                                        	mov    %rdx,%rsi
  4002f2:	48 89 ca                                        	mov    %rcx,%rdx
  4002f5:	0f 05                                           	syscall 
  4002f7:	48 3d 01 f0 ff ff                               	cmp    $0xfffffffffffff001,%rax
  4002fd:	72 15                                           	jb     400314 <SYSTEM_$$_FPSYSCALL$INT64$INT64$INT64$INT64$$INT64+0x34>
  4002ff:	48 f7 d8                                        	neg    %rax
  400302:	48 89 c7                                        	mov    %rax,%rdi
  400305:	e8 06 ff ff ff                                  	callq  400210 <SYSTEM_$$_SETERRNO$LONGINT>
  40030a:	48 b8 ff ff ff ff ff ff ff ff                   	movabs $0xffffffffffffffff,%rax
  400314:	c9                                              	leaveq 
  400315:	c3                                              	retq   
	...

0000000000400320 <SYSTEM_$$_FPSYSCALL$INT64$INT64$INT64$INT64$INT64$$INT64>:
SYSTEM_$$_FPSYSCALL$INT64$INT64$INT64$INT64$INT64$$INT64():
  400320:	55                                              	push   %rbp
  400321:	48 89 e5                                        	mov    %rsp,%rbp
  400324:	48 8d 64 24 f0                                  	lea    -0x10(%rsp),%rsp
  400329:	48 89 f8                                        	mov    %rdi,%rax
  40032c:	48 89 f7                                        	mov    %rsi,%rdi
  40032f:	48 89 d6                                        	mov    %rdx,%rsi
  400332:	48 89 ca                                        	mov    %rcx,%rdx
  400335:	4d 89 c2                                        	mov    %r8,%r10
  400338:	0f 05                                           	syscall 
  40033a:	48 3d 01 f0 ff ff                               	cmp    $0xfffffffffffff001,%rax
  400340:	72 15                                           	jb     400357 <SYSTEM_$$_FPSYSCALL$INT64$INT64$INT64$INT64$INT64$$INT64+0x37>
  400342:	48 f7 d8                                        	neg    %rax
  400345:	48 89 c7                                        	mov    %rax,%rdi
  400348:	e8 c3 fe ff ff                                  	callq  400210 <SYSTEM_$$_SETERRNO$LONGINT>
  40034d:	48 b8 ff ff ff ff ff ff ff ff                   	movabs $0xffffffffffffffff,%rax
  400357:	c9                                              	leaveq 
  400358:	c3                                              	retq   
  400359:	00 00                                           	add    %al,(%rax)
  40035b:	00 00                                           	add    %al,(%rax)
  40035d:	00 00                                           	add    %al,(%rax)
	...

0000000000400360 <SYSTEM_$$_FPSYSCALL$INT64$INT64$INT64$INT64$INT64$INT64$$INT64>:
SYSTEM_$$_FPSYSCALL$INT64$INT64$INT64$INT64$INT64$INT64$$INT64():
  400360:	55                                              	push   %rbp
  400361:	48 89 e5                                        	mov    %rsp,%rbp
  400364:	48 8d 64 24 f0                                  	lea    -0x10(%rsp),%rsp
  400369:	48 89 f8                                        	mov    %rdi,%rax
  40036c:	48 89 f7                                        	mov    %rsi,%rdi
  40036f:	48 89 d6                                        	mov    %rdx,%rsi
  400372:	48 89 ca                                        	mov    %rcx,%rdx
  400375:	4d 89 c2                                        	mov    %r8,%r10
  400378:	4d 89 c8                                        	mov    %r9,%r8
  40037b:	0f 05                                           	syscall 
  40037d:	48 3d 01 f0 ff ff                               	cmp    $0xfffffffffffff001,%rax
  400383:	72 15                                           	jb     40039a <SYSTEM_$$_FPSYSCALL$INT64$INT64$INT64$INT64$INT64$INT64$$INT64+0x3a>
  400385:	48 f7 d8                                        	neg    %rax
  400388:	48 89 c7                                        	mov    %rax,%rdi
  40038b:	e8 80 fe ff ff                                  	callq  400210 <SYSTEM_$$_SETERRNO$LONGINT>
  400390:	48 b8 ff ff ff ff ff ff ff ff                   	movabs $0xffffffffffffffff,%rax
  40039a:	c9                                              	leaveq 
  40039b:	c3                                              	retq   
  40039c:	00 00                                           	add    %al,(%rax)
	...

00000000004003a0 <SYSTEM_$$_FPSYSCALL$INT64$INT64$INT64$INT64$INT64$INT64$INT64$$INT64>:
SYSTEM_$$_FPSYSCALL$INT64$INT64$INT64$INT64$INT64$INT64$INT64$$INT64():
  4003a0:	55                                              	push   %rbp
  4003a1:	48 89 e5                                        	mov    %rsp,%rbp
  4003a4:	48 8d 64 24 f0                                  	lea    -0x10(%rsp),%rsp
  4003a9:	48 89 f8                                        	mov    %rdi,%rax
  4003ac:	48 89 f7                                        	mov    %rsi,%rdi
  4003af:	48 89 d6                                        	mov    %rdx,%rsi
  4003b2:	48 89 ca                                        	mov    %rcx,%rdx
  4003b5:	4d 89 c2                                        	mov    %r8,%r10
  4003b8:	4d 89 c8                                        	mov    %r9,%r8
  4003bb:	4c 8b 4d 10                                     	mov    0x10(%rbp),%r9
  4003bf:	0f 05                                           	syscall 
  4003c1:	48 3d 01 f0 ff ff                               	cmp    $0xfffffffffffff001,%rax
  4003c7:	72 15                                           	jb     4003de <SYSTEM_$$_FPSYSCALL$INT64$INT64$INT64$INT64$INT64$INT64$INT64$$INT64+0x3e>
  4003c9:	48 f7 d8                                        	neg    %rax
  4003cc:	48 89 c7                                        	mov    %rax,%rdi
  4003cf:	e8 3c fe ff ff                                  	callq  400210 <SYSTEM_$$_SETERRNO$LONGINT>
  4003d4:	48 b8 ff ff ff ff ff ff ff ff                   	movabs $0xffffffffffffffff,%rax
  4003de:	c9                                              	leaveq 
  4003df:	c3                                              	retq   

00000000004003e0 <SYSTEM_$$_FPTIME$PTIME_T$$INT64>:
SYSTEM_$$_FPTIME$PTIME_T$$INT64():
  4003e0:	48 8d 64 24 f8                                  	lea    -0x8(%rsp),%rsp
  4003e5:	48 89 fe                                        	mov    %rdi,%rsi
  4003e8:	48 bf c9 00 00 00 00 00 00 00                   	movabs $0xc9,%rdi
  4003f2:	e8 79 fe ff ff                                  	callq  400270 <SYSTEM_$$_FPSYSCALL$INT64$INT64$$INT64>
  4003f7:	48 8d 64 24 08                                  	lea    0x8(%rsp),%rsp
  4003fc:	c3                                              	retq   
  4003fd:	00 00                                           	add    %al,(%rax)
	...

0000000000400400 <SYSTEM_$$_FPOPEN$PCHAR$LONGINT$LONGINT$$LONGINT>:
SYSTEM_$$_FPOPEN$PCHAR$LONGINT$LONGINT$$LONGINT():
  400400:	48 8d 64 24 f8                                  	lea    -0x8(%rsp),%rsp
  400405:	89 d1                                           	mov    %edx,%ecx
  400407:	48 63 d6                                        	movslq %esi,%rdx
  40040a:	48 81 ca 00 80 00 00                            	or     $0x8000,%rdx
  400411:	48 63 c9                                        	movslq %ecx,%rcx
  400414:	48 89 fe                                        	mov    %rdi,%rsi
  400417:	48 bf 02 00 00 00 00 00 00 00                   	movabs $0x2,%rdi
  400421:	e8 ba fe ff ff                                  	callq  4002e0 <SYSTEM_$$_FPSYSCALL$INT64$INT64$INT64$INT64$$INT64>
  400426:	48 8d 64 24 08                                  	lea    0x8(%rsp),%rsp
  40042b:	c3                                              	retq   
  40042c:	00 00                                           	add    %al,(%rax)
	...

0000000000400430 <SYSTEM_$$_FPCLOSE$LONGINT$$LONGINT>:
SYSTEM_$$_FPCLOSE$LONGINT$$LONGINT():
  400430:	48 8d 64 24 f8                                  	lea    -0x8(%rsp),%rsp
  400435:	89 fe                                           	mov    %edi,%esi
  400437:	48 63 f6                                        	movslq %esi,%rsi
  40043a:	48 bf 03 00 00 00 00 00 00 00                   	movabs $0x3,%rdi
  400444:	e8 27 fe ff ff                                  	callq  400270 <SYSTEM_$$_FPSYSCALL$INT64$INT64$$INT64>
  400449:	48 8d 64 24 08                                  	lea    0x8(%rsp),%rsp
  40044e:	c3                                              	retq   
	...

0000000000400450 <SYSTEM_$$_FPLSEEK$LONGINT$INT64$LONGINT$$INT64>:
SYSTEM_$$_FPLSEEK$LONGINT$INT64$LONGINT$$INT64():
  400450:	48 8d 64 24 f8                                  	lea    -0x8(%rsp),%rsp
  400455:	48 89 f0                                        	mov    %rsi,%rax
  400458:	89 d1                                           	mov    %edx,%ecx
  40045a:	48 63 c9                                        	movslq %ecx,%rcx
  40045d:	48 63 f7                                        	movslq %edi,%rsi
  400460:	48 89 c2                                        	mov    %rax,%rdx
  400463:	48 bf 08 00 00 00 00 00 00 00                   	movabs $0x8,%rdi
  40046d:	e8 6e fe ff ff                                  	callq  4002e0 <SYSTEM_$$_FPSYSCALL$INT64$INT64$INT64$INT64$$INT64>
  400472:	48 8d 64 24 08                                  	lea    0x8(%rsp),%rsp
  400477:	c3                                              	retq   
	...

0000000000400480 <SYSTEM_$$_FPREAD$LONGINT$PCHAR$QWORD$$INT64>:
SYSTEM_$$_FPREAD$LONGINT$PCHAR$QWORD$$INT64():
  400480:	48 8d 64 24 f8                                  	lea    -0x8(%rsp),%rsp
  400485:	48 89 f0                                        	mov    %rsi,%rax
  400488:	48 89 d1                                        	mov    %rdx,%rcx
  40048b:	48 63 f7                                        	movslq %edi,%rsi
  40048e:	48 89 c2                                        	mov    %rax,%rdx
  400491:	48 bf 00 00 00 00 00 00 00 00                   	movabs $0x0,%rdi
  40049b:	e8 40 fe ff ff                                  	callq  4002e0 <SYSTEM_$$_FPSYSCALL$INT64$INT64$INT64$INT64$$INT64>
  4004a0:	48 8d 64 24 08                                  	lea    0x8(%rsp),%rsp
  4004a5:	c3                                              	retq   
	...

00000000004004b0 <SYSTEM_$$_FPWRITE$LONGINT$PCHAR$QWORD$$INT64>:
SYSTEM_$$_FPWRITE$LONGINT$PCHAR$QWORD$$INT64():
  4004b0:	48 8d 64 24 f8                                  	lea    -0x8(%rsp),%rsp
  4004b5:	48 89 f0                                        	mov    %rsi,%rax
  4004b8:	48 89 d1                                        	mov    %rdx,%rcx
  4004bb:	48 63 f7                                        	movslq %edi,%rsi
  4004be:	48 89 c2                                        	mov    %rax,%rdx
  4004c1:	48 bf 01 00 00 00 00 00 00 00                   	movabs $0x1,%rdi
  4004cb:	e8 10 fe ff ff                                  	callq  4002e0 <SYSTEM_$$_FPSYSCALL$INT64$INT64$INT64$INT64$$INT64>
  4004d0:	48 8d 64 24 08                                  	lea    0x8(%rsp),%rsp
  4004d5:	c3                                              	retq   
	...

00000000004004e0 <SYSTEM_$$_FPUNLINK$PCHAR$$LONGINT>:
SYSTEM_$$_FPUNLINK$PCHAR$$LONGINT():
  4004e0:	48 8d 64 24 f8                                  	lea    -0x8(%rsp),%rsp
  4004e5:	48 89 fe                                        	mov    %rdi,%rsi
  4004e8:	48 bf 57 00 00 00 00 00 00 00                   	movabs $0x57,%rdi
  4004f2:	e8 79 fd ff ff                                  	callq  400270 <SYSTEM_$$_FPSYSCALL$INT64$INT64$$INT64>
  4004f7:	48 8d 64 24 08                                  	lea    0x8(%rsp),%rsp
  4004fc:	c3                                              	retq   
  4004fd:	00 00                                           	add    %al,(%rax)
	...

0000000000400500 <SYSTEM_$$_FPRENAME$PCHAR$PCHAR$$LONGINT>:
SYSTEM_$$_FPRENAME$PCHAR$PCHAR$$LONGINT():
  400500:	48 8d 64 24 f8                                  	lea    -0x8(%rsp),%rsp
  400505:	48 89 f2                                        	mov    %rsi,%rdx
  400508:	48 89 fe                                        	mov    %rdi,%rsi
  40050b:	48 bf 52 00 00 00 00 00 00 00                   	movabs $0x52,%rdi
  400515:	e8 86 fd ff ff                                  	callq  4002a0 <SYSTEM_$$_FPSYSCALL$INT64$INT64$INT64$$INT64>
  40051a:	48 8d 64 24 08                                  	lea    0x8(%rsp),%rsp
  40051f:	c3                                              	retq   

0000000000400520 <SYSTEM_$$_FPSTAT$PCHAR$STAT$$LONGINT>:
SYSTEM_$$_FPSTAT$PCHAR$STAT$$LONGINT():
  400520:	48 8d 64 24 f8                                  	lea    -0x8(%rsp),%rsp
  400525:	48 89 f2                                        	mov    %rsi,%rdx
  400528:	48 89 fe                                        	mov    %rdi,%rsi
  40052b:	48 bf 04 00 00 00 00 00 00 00                   	movabs $0x4,%rdi
  400535:	e8 66 fd ff ff                                  	callq  4002a0 <SYSTEM_$$_FPSYSCALL$INT64$INT64$INT64$$INT64>
  40053a:	48 8d 64 24 08                                  	lea    0x8(%rsp),%rsp
  40053f:	c3                                              	retq   

0000000000400540 <SYSTEM_$$_FPCHDIR$PCHAR$$LONGINT>:
SYSTEM_$$_FPCHDIR$PCHAR$$LONGINT():
  400540:	48 8d 64 24 f8                                  	lea    -0x8(%rsp),%rsp
  400545:	48 89 fe                                        	mov    %rdi,%rsi
  400548:	48 bf 50 00 00 00 00 00 00 00                   	movabs $0x50,%rdi
  400552:	e8 19 fd ff ff                                  	callq  400270 <SYSTEM_$$_FPSYSCALL$INT64$INT64$$INT64>
  400557:	48 8d 64 24 08                                  	lea    0x8(%rsp),%rsp
  40055c:	c3                                              	retq   
  40055d:	00 00                                           	add    %al,(%rax)
	...

0000000000400560 <SYSTEM_$$_FPMKDIR$PCHAR$LONGINT$$LONGINT>:
SYSTEM_$$_FPMKDIR$PCHAR$LONGINT$$LONGINT():
  400560:	48 8d 64 24 f8                                  	lea    -0x8(%rsp),%rsp
  400565:	89 f2                                           	mov    %esi,%edx
  400567:	48 63 d2                                        	movslq %edx,%rdx
  40056a:	48 89 fe                                        	mov    %rdi,%rsi
  40056d:	48 bf 53 00 00 00 00 00 00 00                   	movabs $0x53,%rdi
  400577:	e8 24 fd ff ff                                  	callq  4002a0 <SYSTEM_$$_FPSYSCALL$INT64$INT64$INT64$$INT64>
  40057c:	48 8d 64 24 08                                  	lea    0x8(%rsp),%rsp
  400581:	c3                                              	retq   
	...

0000000000400590 <SYSTEM_$$_FPRMDIR$PCHAR$$LONGINT>:
SYSTEM_$$_FPRMDIR$PCHAR$$LONGINT():
  400590:	48 8d 64 24 f8                                  	lea    -0x8(%rsp),%rsp
  400595:	48 89 fe                                        	mov    %rdi,%rsi
  400598:	48 bf 54 00 00 00 00 00 00 00                   	movabs $0x54,%rdi
  4005a2:	e8 c9 fc ff ff                                  	callq  400270 <SYSTEM_$$_FPSYSCALL$INT64$INT64$$INT64>
  4005a7:	48 8d 64 24 08                                  	lea    0x8(%rsp),%rsp
  4005ac:	c3                                              	retq   
  4005ad:	00 00                                           	add    %al,(%rax)
	...

00000000004005b0 <SYSTEM_$$_FPOPENDIR$PCHAR$$PDIR>:
SYSTEM_$$_FPOPENDIR$PCHAR$$PDIR():
  4005b0:	53                                              	push   %rbx
  4005b1:	41 54                                           	push   %r12
  4005b3:	41 55                                           	push   %r13
  4005b5:	48 8d a4 24 70 ff ff ff                         	lea    -0x90(%rsp),%rsp
  4005bd:	48 89 fb                                        	mov    %rdi,%rbx
  4005c0:	49 bc 00 00 00 00 00 00 00 00                   	movabs $0x0,%r12
  4005ca:	48 89 e6                                        	mov    %rsp,%rsi
  4005cd:	48 89 df                                        	mov    %rbx,%rdi
  4005d0:	e8 4b ff ff ff                                  	callq  400520 <SYSTEM_$$_FPSTAT$PCHAR$STAT$$LONGINT>
  4005d5:	83 f8 00                                        	cmp    $0x0,%eax
  4005d8:	0f 8c a8 00 00 00                               	jl     400686 <SYSTEM_$$_FPOPENDIR$PCHAR$$PDIR+0xd6>
  4005de:	8b 44 24 18                                     	mov    0x18(%rsp),%eax
  4005e2:	25 00 f0 00 00                                  	and    $0xf000,%eax
  4005e7:	3d 00 40 00 00                                  	cmp    $0x4000,%eax
  4005ec:	74 28                                           	je     400616 <SYSTEM_$$_FPOPENDIR$PCHAR$$PDIR+0x66>
  4005ee:	48 8d 05 2b cc 22 00                            	lea    0x22cc2b(%rip),%rax        # 62d220 <FPC_THREADVAR_RELOCATE>
  4005f5:	48 8b 00                                        	mov    (%rax),%rax
  4005f8:	48 85 c0                                        	test   %rax,%rax
  4005fb:	74 0a                                           	je     400607 <SYSTEM_$$_FPOPENDIR$PCHAR$$PDIR+0x57>
  4005fd:	8b 3d 4d bd 22 00                               	mov    0x22bd4d(%rip),%edi        # 62c350 <U_$SYSTEM_$$_ERRNO>
  400603:	ff d0                                           	callq  *%rax
  400605:	eb 07                                           	jmp    40060e <SYSTEM_$$_FPOPENDIR$PCHAR$$PDIR+0x5e>
  400607:	48 8d 05 4a bd 22 00                            	lea    0x22bd4a(%rip),%rax        # 62c358 <U_$SYSTEM_$$_ERRNO+0x8>
  40060e:	c7 00 14 00 00 00                               	movl   $0x14,(%rax)
  400614:	eb 70                                           	jmp    400686 <SYSTEM_$$_FPOPENDIR$PCHAR$$PDIR+0xd6>
  400616:	48 89 df                                        	mov    %rbx,%rdi
  400619:	ba b6 01 00 00                                  	mov    $0x1b6,%edx
  40061e:	be 00 00 00 00                                  	mov    $0x0,%esi
  400623:	e8 d8 fd ff ff                                  	callq  400400 <SYSTEM_$$_FPOPEN$PCHAR$LONGINT$LONGINT$$LONGINT>
  400628:	89 c3                                           	mov    %eax,%ebx
  40062a:	83 fb 00                                        	cmp    $0x0,%ebx
  40062d:	7c 57                                           	jl     400686 <SYSTEM_$$_FPOPENDIR$PCHAR$$PDIR+0xd6>
  40062f:	48 bf 28 00 00 00 00 00 00 00                   	movabs $0x28,%rdi
  400639:	e8 a2 75 01 00                                  	callq  417be0 <fpc_getmem>
  40063e:	49 89 c5                                        	mov    %rax,%r13
  400641:	4d 85 ed                                        	test   %r13,%r13
  400644:	74 40                                           	je     400686 <SYSTEM_$$_FPOPENDIR$PCHAR$$PDIR+0xd6>
  400646:	48 bf 00 10 00 00 00 00 00 00                   	movabs $0x1000,%rdi
  400650:	e8 8b 75 01 00                                  	callq  417be0 <fpc_getmem>
  400655:	49 89 45 10                                     	mov    %rax,0x10(%r13)
  400659:	49 83 7d 10 00                                  	cmpq   $0x0,0x10(%r13)
  40065e:	74 26                                           	je     400686 <SYSTEM_$$_FPOPENDIR$PCHAR$$PDIR+0xd6>
  400660:	41 89 5d 00                                     	mov    %ebx,0x0(%r13)
  400664:	41 c7 45 04 00 00 00 00                         	movl   $0x0,0x4(%r13)
  40066c:	41 c7 45 08 00 00 00 00                         	movl   $0x0,0x8(%r13)
  400674:	41 c7 45 18 00 00 00 00                         	movl   $0x0,0x18(%r13)
  40067c:	66 41 c7 45 1c 00 10                            	movw   $0x1000,0x1c(%r13)
  400683:	4d 89 ec                                        	mov    %r13,%r12
  400686:	4c 89 e0                                        	mov    %r12,%rax
  400689:	48 8d a4 24 90 00 00 00                         	lea    0x90(%rsp),%rsp
  400691:	41 5d                                           	pop    %r13
  400693:	41 5c                                           	pop    %r12
  400695:	5b                                              	pop    %rbx
  400696:	c3                                              	retq   
	...

00000000004006a0 <SYSTEM_$$_FPCLOSEDIR$PDIR$$LONGINT>:
SYSTEM_$$_FPCLOSEDIR$PDIR$$LONGINT():
  4006a0:	53                                              	push   %rbx
  4006a1:	41 54                                           	push   %r12
  4006a3:	48 8d 64 24 f8                                  	lea    -0x8(%rsp),%rsp
  4006a8:	48 89 fb                                        	mov    %rdi,%rbx
  4006ab:	66 66 66 90                                     	data16 data16 xchg %ax,%ax
  4006af:	90                                              	nop
  4006b0:	8b 3b                                           	mov    (%rbx),%edi
  4006b2:	e8 79 fd ff ff                                  	callq  400430 <SYSTEM_$$_FPCLOSE$LONGINT$$LONGINT>
  4006b7:	41 89 c4                                        	mov    %eax,%r12d
  4006ba:	45 85 e4                                        	test   %r12d,%r12d
  4006bd:	74 25                                           	je     4006e4 <SYSTEM_$$_FPCLOSEDIR$PDIR$$LONGINT+0x44>
  4006bf:	48 8d 05 5a cb 22 00                            	lea    0x22cb5a(%rip),%rax        # 62d220 <FPC_THREADVAR_RELOCATE>
  4006c6:	48 8b 00                                        	mov    (%rax),%rax
  4006c9:	48 85 c0                                        	test   %rax,%rax
  4006cc:	74 0a                                           	je     4006d8 <SYSTEM_$$_FPCLOSEDIR$PDIR$$LONGINT+0x38>
  4006ce:	8b 3d 7c bc 22 00                               	mov    0x22bc7c(%rip),%edi        # 62c350 <U_$SYSTEM_$$_ERRNO>
  4006d4:	ff d0                                           	callq  *%rax
  4006d6:	eb 07                                           	jmp    4006df <SYSTEM_$$_FPCLOSEDIR$PDIR$$LONGINT+0x3f>
  4006d8:	48 8d 05 79 bc 22 00                            	lea    0x22bc79(%rip),%rax        # 62c358 <U_$SYSTEM_$$_ERRNO+0x8>
  4006df:	83 38 04                                        	cmpl   $0x4,(%rax)
  4006e2:	74 cc                                           	je     4006b0 <SYSTEM_$$_FPCLOSEDIR$PDIR$$LONGINT+0x10>
  4006e4:	48 8b 7b 10                                     	mov    0x10(%rbx),%rdi
  4006e8:	e8 13 75 01 00                                  	callq  417c00 <fpc_freemem>
  4006ed:	48 89 df                                        	mov    %rbx,%rdi
  4006f0:	e8 0b 75 01 00                                  	callq  417c00 <fpc_freemem>
  4006f5:	44 89 e0                                        	mov    %r12d,%eax
  4006f8:	48 8d 64 24 08                                  	lea    0x8(%rsp),%rsp
  4006fd:	41 5c                                           	pop    %r12
  4006ff:	5b                                              	pop    %rbx
  400700:	c3                                              	retq   
	...

0000000000400710 <SYSTEM_$$_FPREADDIR$PDIR$$PDIRENT>:
SYSTEM_$$_FPREADDIR$PDIR$$PDIRENT():
  400710:	53                                              	push   %rbx
  400711:	41 54                                           	push   %r12
  400713:	41 55                                           	push   %r13
  400715:	41 56                                           	push   %r14
  400717:	48 8d 64 24 f8                                  	lea    -0x8(%rsp),%rsp
  40071c:	48 89 fb                                        	mov    %rdi,%rbx
  40071f:	90                                              	nop
  400720:	8b 53 18                                        	mov    0x18(%rbx),%edx
  400723:	48 63 43 08                                     	movslq 0x8(%rbx),%rax
  400727:	48 39 c2                                        	cmp    %rax,%rdx
  40072a:	7c 3b                                           	jl     400767 <SYSTEM_$$_FPREADDIR$PDIR$$PDIRENT+0x57>
  40072c:	48 0f bf 4b 1c                                  	movswq 0x1c(%rbx),%rcx
  400731:	48 63 33                                        	movslq (%rbx),%rsi
  400734:	48 8b 53 10                                     	mov    0x10(%rbx),%rdx
  400738:	48 bf d9 00 00 00 00 00 00 00                   	movabs $0xd9,%rdi
  400742:	e8 99 fb ff ff                                  	callq  4002e0 <SYSTEM_$$_FPSYSCALL$INT64$INT64$INT64$INT64$$INT64>
  400747:	41 89 c4                                        	mov    %eax,%r12d
  40074a:	41 83 fc 00                                     	cmp    $0x0,%r12d
  40074e:	7f 0c                                           	jg     40075c <SYSTEM_$$_FPREADDIR$PDIR$$PDIRENT+0x4c>
  400750:	49 bd 00 00 00 00 00 00 00 00                   	movabs $0x0,%r13
  40075a:	eb 32                                           	jmp    40078e <SYSTEM_$$_FPREADDIR$PDIR$$PDIRENT+0x7e>
  40075c:	44 89 63 08                                     	mov    %r12d,0x8(%rbx)
  400760:	c7 43 18 00 00 00 00                            	movl   $0x0,0x18(%rbx)
  400767:	8b 43 18                                        	mov    0x18(%rbx),%eax
  40076a:	48 8b 53 10                                     	mov    0x10(%rbx),%rdx
  40076e:	48 8d 04 10                                     	lea    (%rax,%rdx,1),%rax
  400772:	49 89 c6                                        	mov    %rax,%r14
  400775:	41 0f b7 46 10                                  	movzwl 0x10(%r14),%eax
  40077a:	01 43 18                                        	add    %eax,0x18(%rbx)
  40077d:	41 0f b7 46 10                                  	movzwl 0x10(%r14),%eax
  400782:	01 43 04                                        	add    %eax,0x4(%rbx)
  400785:	49 83 3e 00                                     	cmpq   $0x0,(%r14)
  400789:	74 95                                           	je     400720 <SYSTEM_$$_FPREADDIR$PDIR$$PDIRENT+0x10>
  40078b:	4d 89 f5                                        	mov    %r14,%r13
  40078e:	4c 89 e8                                        	mov    %r13,%rax
  400791:	48 8d 64 24 08                                  	lea    0x8(%rsp),%rsp
  400796:	41 5e                                           	pop    %r14
  400798:	41 5d                                           	pop    %r13
  40079a:	41 5c                                           	pop    %r12
  40079c:	5b                                              	pop    %rbx
  40079d:	c3                                              	retq   
	...

00000000004007a0 <SYSTEM_$$_FPEXIT$LONGINT>:
SYSTEM_$$_FPEXIT$LONGINT():
  4007a0:	48 8d 64 24 f8                                  	lea    -0x8(%rsp),%rsp
  4007a5:	89 f8                                           	mov    %edi,%eax
  4007a7:	48 63 f0                                        	movslq %eax,%rsi
  4007aa:	48 bf e7 00 00 00 00 00 00 00                   	movabs $0xe7,%rdi
  4007b4:	e8 b7 fa ff ff                                  	callq  400270 <SYSTEM_$$_FPSYSCALL$INT64$INT64$$INT64>
  4007b9:	48 8d 64 24 08                                  	lea    0x8(%rsp),%rsp
  4007be:	c3                                              	retq   
	...

00000000004007c0 <SYSTEM_$$_LINUX_RESTORE>:
SYSTEM_$$_LINUX_RESTORE():
  4007c0:	48 b8 0f 00 00 00 00 00 00 00                   	movabs $0xf,%rax
  4007ca:	0f 05                                           	syscall 
  4007cc:	c3                                              	retq   
  4007cd:	00 00                                           	add    %al,(%rax)
	...

00000000004007d0 <SYSTEM_$$_FPSIGACTION$LONGINT$PSIGACTIONREC$PSIGACTIONREC$$LONGINT>:
SYSTEM_$$_FPSIGACTION$LONGINT$PSIGACTIONREC$PSIGACTIONREC$$LONGINT():
  4007d0:	48 8d 64 24 f8                                  	lea    -0x8(%rsp),%rsp
  4007d5:	48 89 f0                                        	mov    %rsi,%rax
  4007d8:	48 89 d1                                        	mov    %rdx,%rcx
  4007db:	48 85 c0                                        	test   %rax,%rax
  4007de:	74 2a                                           	je     40080a <SYSTEM_$$_FPSIGACTION$LONGINT$PSIGACTIONREC$PSIGACTIONREC$$LONGINT+0x3a>
  4007e0:	48 8b 50 08                                     	mov    0x8(%rax),%rdx
  4007e4:	48 81 e2 00 00 00 0c                            	and    $0xc000000,%rdx
  4007eb:	48 85 d2                                        	test   %rdx,%rdx
  4007ee:	75 1a                                           	jne    40080a <SYSTEM_$$_FPSIGACTION$LONGINT$PSIGACTIONREC$PSIGACTIONREC$$LONGINT+0x3a>
  4007f0:	48 8b 50 08                                     	mov    0x8(%rax),%rdx
  4007f4:	48 81 ca 00 00 00 04                            	or     $0x4000000,%rdx
  4007fb:	48 89 50 08                                     	mov    %rdx,0x8(%rax)
  4007ff:	48 8d 15 ba ff ff ff                            	lea    -0x46(%rip),%rdx        # 4007c0 <SYSTEM_$$_LINUX_RESTORE>
  400806:	48 89 50 10                                     	mov    %rdx,0x10(%rax)
  40080a:	48 63 f7                                        	movslq %edi,%rsi
  40080d:	48 89 c2                                        	mov    %rax,%rdx
  400810:	49 b8 08 00 00 00 00 00 00 00                   	movabs $0x8,%r8
  40081a:	48 bf 0d 00 00 00 00 00 00 00                   	movabs $0xd,%rdi
  400824:	e8 f7 fa ff ff                                  	callq  400320 <SYSTEM_$$_FPSYSCALL$INT64$INT64$INT64$INT64$INT64$$INT64>
  400829:	48 8d 64 24 08                                  	lea    0x8(%rsp),%rsp
  40082e:	c3                                              	retq   
	...

0000000000400830 <SYSTEM_$$_FPFTRUNCATE$LONGINT$INT64$$LONGINT>:
SYSTEM_$$_FPFTRUNCATE$LONGINT$INT64$$LONGINT():
  400830:	48 8d 64 24 f8                                  	lea    -0x8(%rsp),%rsp
  400835:	48 89 f2                                        	mov    %rsi,%rdx
  400838:	48 63 f7                                        	movslq %edi,%rsi
  40083b:	48 bf 4d 00 00 00 00 00 00 00                   	movabs $0x4d,%rdi
  400845:	e8 56 fa ff ff                                  	callq  4002a0 <SYSTEM_$$_FPSYSCALL$INT64$INT64$INT64$$INT64>
  40084a:	48 8d 64 24 08                                  	lea    0x8(%rsp),%rsp
  40084f:	c3                                              	retq   

0000000000400850 <SYSTEM_$$_FPFSTAT$LONGINT$STAT$$LONGINT>:
SYSTEM_$$_FPFSTAT$LONGINT$STAT$$LONGINT():
  400850:	48 8d 64 24 f8                                  	lea    -0x8(%rsp),%rsp
  400855:	48 89 f2                                        	mov    %rsi,%rdx
  400858:	48 63 f7                                        	movslq %edi,%rsi
  40085b:	48 bf 05 00 00 00 00 00 00 00                   	movabs $0x5,%rdi
  400865:	e8 36 fa ff ff                                  	callq  4002a0 <SYSTEM_$$_FPSYSCALL$INT64$INT64$INT64$$INT64>
  40086a:	48 8d 64 24 08                                  	lea    0x8(%rsp),%rsp
  40086f:	c3                                              	retq   

0000000000400870 <SYSTEM_$$_FPFORK$$LONGINT>:
SYSTEM_$$_FPFORK$$LONGINT():
  400870:	48 8d 64 24 f8                                  	lea    -0x8(%rsp),%rsp
  400875:	48 bf 39 00 00 00 00 00 00 00                   	movabs $0x39,%rdi
  40087f:	e8 bc f9 ff ff                                  	callq  400240 <SYSTEM_$$_FPSYSCALL$INT64$$INT64>
  400884:	48 8d 64 24 08                                  	lea    0x8(%rsp),%rsp
  400889:	c3                                              	retq   
  40088a:	00 00                                           	add    %al,(%rax)
  40088c:	00 00                                           	add    %al,(%rax)
	...

0000000000400890 <SYSTEM_$$_FPWAITPID$LONGINT$PCINT$LONGINT$$LONGINT>:
SYSTEM_$$_FPWAITPID$LONGINT$PCINT$LONGINT$$LONGINT():
  400890:	48 8d 64 24 f8                                  	lea    -0x8(%rsp),%rsp
  400895:	48 89 f0                                        	mov    %rsi,%rax
  400898:	89 d1                                           	mov    %edx,%ecx
  40089a:	48 63 c9                                        	movslq %ecx,%rcx
  40089d:	48 63 f7                                        	movslq %edi,%rsi
  4008a0:	48 89 c2                                        	mov    %rax,%rdx
  4008a3:	49 b8 00 00 00 00 00 00 00 00                   	movabs $0x0,%r8
  4008ad:	48 bf 3d 00 00 00 00 00 00 00                   	movabs $0x3d,%rdi
  4008b7:	e8 64 fa ff ff                                  	callq  400320 <SYSTEM_$$_FPSYSCALL$INT64$INT64$INT64$INT64$INT64$$INT64>
  4008bc:	48 8d 64 24 08                                  	lea    0x8(%rsp),%rsp
  4008c1:	c3                                              	retq   
	...

00000000004008d0 <SYSTEM_$$_FPACCESS$PCHAR$LONGINT$$LONGINT>:
SYSTEM_$$_FPACCESS$PCHAR$LONGINT$$LONGINT():
  4008d0:	48 8d 64 24 f8                                  	lea    -0x8(%rsp),%rsp
  4008d5:	89 f2                                           	mov    %esi,%edx
  4008d7:	48 63 d2                                        	movslq %edx,%rdx
  4008da:	48 89 fe                                        	mov    %rdi,%rsi
  4008dd:	48 bf 15 00 00 00 00 00 00 00                   	movabs $0x15,%rdi
  4008e7:	e8 b4 f9 ff ff                                  	callq  4002a0 <SYSTEM_$$_FPSYSCALL$INT64$INT64$INT64$$INT64>
  4008ec:	48 8d 64 24 08                                  	lea    0x8(%rsp),%rsp
  4008f1:	c3                                              	retq   
	...

0000000000400900 <SYSTEM_$$_FPDUP$LONGINT$$LONGINT>:
SYSTEM_$$_FPDUP$LONGINT$$LONGINT():
  400900:	48 8d 64 24 f8                                  	lea    -0x8(%rsp),%rsp
  400905:	89 fe                                           	mov    %edi,%esi
  400907:	48 63 f6                                        	movslq %esi,%rsi
  40090a:	48 bf 20 00 00 00 00 00 00 00                   	movabs $0x20,%rdi
  400914:	e8 57 f9 ff ff                                  	callq  400270 <SYSTEM_$$_FPSYSCALL$INT64$INT64$$INT64>
  400919:	48 8d 64 24 08                                  	lea    0x8(%rsp),%rsp
  40091e:	c3                                              	retq   
	...

0000000000400920 <SYSTEM_$$_FPDUP2$LONGINT$LONGINT$$LONGINT>:
SYSTEM_$$_FPDUP2$LONGINT$LONGINT$$LONGINT():
  400920:	48 8d 64 24 f8                                  	lea    -0x8(%rsp),%rsp
  400925:	89 f2                                           	mov    %esi,%edx
  400927:	48 63 d2                                        	movslq %edx,%rdx
  40092a:	48 63 f7                                        	movslq %edi,%rsi
  40092d:	48 bf 21 00 00 00 00 00 00 00                   	movabs $0x21,%rdi
  400937:	e8 64 f9 ff ff                                  	callq  4002a0 <SYSTEM_$$_FPSYSCALL$INT64$INT64$INT64$$INT64>
  40093c:	48 8d 64 24 08                                  	lea    0x8(%rsp),%rsp
  400941:	c3                                              	retq   
	...

0000000000400950 <SYSTEM_$$_FPMMAP$POINTER$QWORD$LONGINT$LONGINT$LONGINT$INT64$$POINTER>:
SYSTEM_$$_FPMMAP$POINTER$QWORD$LONGINT$LONGINT$LONGINT$INT64$$POINTER():
  400950:	48 8d 64 24 f8                                  	lea    -0x8(%rsp),%rsp
  400955:	4c 89 0c 24                                     	mov    %r9,(%rsp)
  400959:	4d 63 c8                                        	movslq %r8d,%r9
  40095c:	4c 63 c1                                        	movslq %ecx,%r8
  40095f:	48 63 ca                                        	movslq %edx,%rcx
  400962:	48 89 f2                                        	mov    %rsi,%rdx
  400965:	48 89 fe                                        	mov    %rdi,%rsi
  400968:	48 bf 09 00 00 00 00 00 00 00                   	movabs $0x9,%rdi
  400972:	e8 29 fa ff ff                                  	callq  4003a0 <SYSTEM_$$_FPSYSCALL$INT64$INT64$INT64$INT64$INT64$INT64$INT64$$INT64>
  400977:	48 8d 64 24 08                                  	lea    0x8(%rsp),%rsp
  40097c:	c3                                              	retq   
  40097d:	00 00                                           	add    %al,(%rax)
	...

0000000000400980 <SYSTEM_$$_FPMUNMAP$POINTER$QWORD$$LONGINT>:
SYSTEM_$$_FPMUNMAP$POINTER$QWORD$$LONGINT():
  400980:	48 8d 64 24 f8                                  	lea    -0x8(%rsp),%rsp
  400985:	48 89 f2                                        	mov    %rsi,%rdx
  400988:	48 89 fe                                        	mov    %rdi,%rsi
  40098b:	48 bf 0b 00 00 00 00 00 00 00                   	movabs $0xb,%rdi
  400995:	e8 06 f9 ff ff                                  	callq  4002a0 <SYSTEM_$$_FPSYSCALL$INT64$INT64$INT64$$INT64>
  40099a:	48 8d 64 24 08                                  	lea    0x8(%rsp),%rsp
  40099f:	c3                                              	retq   

00000000004009a0 <SYSTEM_$$_FPIOCTL$LONGINT$LONGINT$POINTER$$LONGINT>:
SYSTEM_$$_FPIOCTL$LONGINT$LONGINT$POINTER$$LONGINT():
  4009a0:	48 8d 64 24 f8                                  	lea    -0x8(%rsp),%rsp
  4009a5:	48 89 d1                                        	mov    %rdx,%rcx
  4009a8:	48 63 d6                                        	movslq %esi,%rdx
  4009ab:	48 63 f7                                        	movslq %edi,%rsi
  4009ae:	48 bf 10 00 00 00 00 00 00 00                   	movabs $0x10,%rdi
  4009b8:	e8 23 f9 ff ff                                  	callq  4002e0 <SYSTEM_$$_FPSYSCALL$INT64$INT64$INT64$INT64$$INT64>
  4009bd:	48 8d 64 24 08                                  	lea    0x8(%rsp),%rsp
  4009c2:	c3                                              	retq   
	...

00000000004009d0 <SYSTEM_$$_FPGETPID$$LONGINT>:
SYSTEM_$$_FPGETPID$$LONGINT():
  4009d0:	48 8d 64 24 f8                                  	lea    -0x8(%rsp),%rsp
  4009d5:	48 bf 27 00 00 00 00 00 00 00                   	movabs $0x27,%rdi
  4009df:	e8 5c f8 ff ff                                  	callq  400240 <SYSTEM_$$_FPSYSCALL$INT64$$INT64>
  4009e4:	48 8d 64 24 08                                  	lea    0x8(%rsp),%rsp
  4009e9:	c3                                              	retq   
  4009ea:	00 00                                           	add    %al,(%rax)
  4009ec:	00 00                                           	add    %al,(%rax)
	...

00000000004009f0 <SYSTEM_$$_FPREADLINK$PCHAR$PCHAR$QWORD$$LONGINT>:
SYSTEM_$$_FPREADLINK$PCHAR$PCHAR$QWORD$$LONGINT():
  4009f0:	48 8d 64 24 f8                                  	lea    -0x8(%rsp),%rsp
  4009f5:	48 89 d1                                        	mov    %rdx,%rcx
  4009f8:	48 89 f2                                        	mov    %rsi,%rdx
  4009fb:	48 89 fe                                        	mov    %rdi,%rsi
  4009fe:	48 bf 59 00 00 00 00 00 00 00                   	movabs $0x59,%rdi
  400a08:	e8 d3 f8 ff ff                                  	callq  4002e0 <SYSTEM_$$_FPSYSCALL$INT64$INT64$INT64$INT64$$INT64>
  400a0d:	48 8d 64 24 08                                  	lea    0x8(%rsp),%rsp
  400a12:	c3                                              	retq   
	...

0000000000400a20 <SYSTEM_$$_FPSIGPROCMASK$LONGINT$PSIGSET$PSIGSET$$LONGINT>:
SYSTEM_$$_FPSIGPROCMASK$LONGINT$PSIGSET$PSIGSET$$LONGINT():
  400a20:	48 8d 64 24 f8                                  	lea    -0x8(%rsp),%rsp
  400a25:	48 89 f0                                        	mov    %rsi,%rax
  400a28:	48 89 d1                                        	mov    %rdx,%rcx
  400a2b:	48 63 f7                                        	movslq %edi,%rsi
  400a2e:	48 89 c2                                        	mov    %rax,%rdx
  400a31:	49 b8 08 00 00 00 00 00 00 00                   	movabs $0x8,%r8
  400a3b:	48 bf 0e 00 00 00 00 00 00 00                   	movabs $0xe,%rdi
  400a45:	e8 d6 f8 ff ff                                  	callq  400320 <SYSTEM_$$_FPSYSCALL$INT64$INT64$INT64$INT64$INT64$$INT64>
  400a4a:	48 8d 64 24 08                                  	lea    0x8(%rsp),%rsp
  400a4f:	c3                                              	retq   

0000000000400a50 <SYSTEM_$$_FPNANOSLEEP$PTIMESPEC$PTIMESPEC$$LONGINT>:
SYSTEM_$$_FPNANOSLEEP$PTIMESPEC$PTIMESPEC$$LONGINT():
  400a50:	48 8d 64 24 f8                                  	lea    -0x8(%rsp),%rsp
  400a55:	48 89 f2                                        	mov    %rsi,%rdx
  400a58:	48 89 fe                                        	mov    %rdi,%rsi
  400a5b:	48 bf 23 00 00 00 00 00 00 00                   	movabs $0x23,%rdi
  400a65:	e8 36 f8 ff ff                                  	callq  4002a0 <SYSTEM_$$_FPSYSCALL$INT64$INT64$INT64$$INT64>
  400a6a:	48 8d 64 24 08                                  	lea    0x8(%rsp),%rsp
  400a6f:	c3                                              	retq   

0000000000400a70 <SYSTEM_$$_FPGETCWD$PCHAR$QWORD$$PCHAR>:
SYSTEM_$$_FPGETCWD$PCHAR$QWORD$$PCHAR():
  400a70:	48 8d 64 24 f8                                  	lea    -0x8(%rsp),%rsp
  400a75:	48 89 f2                                        	mov    %rsi,%rdx
  400a78:	48 89 fe                                        	mov    %rdi,%rsi
  400a7b:	48 bf 4f 00 00 00 00 00 00 00                   	movabs $0x4f,%rdi
  400a85:	e8 16 f8 ff ff                                  	callq  4002a0 <SYSTEM_$$_FPSYSCALL$INT64$INT64$INT64$$INT64>
  400a8a:	48 8d 64 24 08                                  	lea    0x8(%rsp),%rsp
  400a8f:	c3                                              	retq   

0000000000400a90 <SYSTEM_$$_FPGETTIMEOFDAY$PTIMEVAL$PTIMEZONE$$LONGINT>:
SYSTEM_$$_FPGETTIMEOFDAY$PTIMEVAL$PTIMEZONE$$LONGINT():
  400a90:	48 8d 64 24 f8                                  	lea    -0x8(%rsp),%rsp
  400a95:	48 89 f2                                        	mov    %rsi,%rdx
  400a98:	48 89 fe                                        	mov    %rdi,%rsi
  400a9b:	48 bf 60 00 00 00 00 00 00 00                   	movabs $0x60,%rdi
  400aa5:	e8 f6 f7 ff ff                                  	callq  4002a0 <SYSTEM_$$_FPSYSCALL$INT64$INT64$INT64$$INT64>
  400aaa:	48 8d 64 24 08                                  	lea    0x8(%rsp),%rsp
  400aaf:	c3                                              	retq   

0000000000400ab0 <SYSTEM_$$_FPGETRLIMIT$LONGINT$PRLIMIT$$LONGINT>:
SYSTEM_$$_FPGETRLIMIT$LONGINT$PRLIMIT$$LONGINT():
  400ab0:	48 8d 64 24 f8                                  	lea    -0x8(%rsp),%rsp
  400ab5:	48 89 f2                                        	mov    %rsi,%rdx
  400ab8:	48 63 f7                                        	movslq %edi,%rsi
  400abb:	48 bf 61 00 00 00 00 00 00 00                   	movabs $0x61,%rdi
  400ac5:	e8 d6 f7 ff ff                                  	callq  4002a0 <SYSTEM_$$_FPSYSCALL$INT64$INT64$INT64$$INT64>
  400aca:	48 8d 64 24 08                                  	lea    0x8(%rsp),%rsp
  400acf:	c3                                              	retq   

0000000000400ad0 <SYSTEM_$$_FPSETRLIMIT$LONGINT$PRLIMIT$$LONGINT>:
SYSTEM_$$_FPSETRLIMIT$LONGINT$PRLIMIT$$LONGINT():
  400ad0:	48 8d 64 24 f8                                  	lea    -0x8(%rsp),%rsp
  400ad5:	48 89 f2                                        	mov    %rsi,%rdx
  400ad8:	48 63 f7                                        	movslq %edi,%rsi
  400adb:	48 bf a0 00 00 00 00 00 00 00                   	movabs $0xa0,%rdi
  400ae5:	e8 b6 f7 ff ff                                  	callq  4002a0 <SYSTEM_$$_FPSYSCALL$INT64$INT64$INT64$$INT64>
  400aea:	48 8d 64 24 08                                  	lea    0x8(%rsp),%rsp
  400aef:	c3                                              	retq   

0000000000400af0 <SYSTEM_$$_FPGETENV$PCHAR$$PCHAR>:
SYSTEM_$$_FPGETENV$PCHAR$$PCHAR():
  400af0:	48 85 ff                                        	test   %rdi,%rdi
  400af3:	74 0d                                           	je     400b02 <SYSTEM_$$_FPGETENV$PCHAR$$PCHAR+0x12>
  400af5:	48 8d 05 ec c8 22 00                            	lea    0x22c8ec(%rip),%rax        # 62d3e8 <operatingsystem_parameter_envp>
  400afc:	48 83 38 00                                     	cmpq   $0x0,(%rax)
  400b00:	75 0f                                           	jne    400b11 <SYSTEM_$$_FPGETENV$PCHAR$$PCHAR+0x21>
  400b02:	48 b8 00 00 00 00 00 00 00 00                   	movabs $0x0,%rax
  400b0c:	e9 8d 00 00 00                                  	jmpq   400b9e <SYSTEM_$$_FPGETENV$PCHAR$$PCHAR+0xae>
  400b11:	48 89 fa                                        	mov    %rdi,%rdx
  400b14:	eb 06                                           	jmp    400b1c <SYSTEM_$$_FPGETENV$PCHAR$$PCHAR+0x2c>
  400b16:	66 90                                           	xchg   %ax,%ax
  400b18:	48 83 c2 01                                     	add    $0x1,%rdx
  400b1c:	8a 0a                                           	mov    (%rdx),%cl
  400b1e:	84 c9                                           	test   %cl,%cl
  400b20:	74 05                                           	je     400b27 <SYSTEM_$$_FPGETENV$PCHAR$$PCHAR+0x37>
  400b22:	80 f9 3d                                        	cmp    $0x3d,%cl
  400b25:	75 f1                                           	jne    400b18 <SYSTEM_$$_FPGETENV$PCHAR$$PCHAR+0x28>
  400b27:	48 89 d1                                        	mov    %rdx,%rcx
  400b2a:	48 29 f9                                        	sub    %rdi,%rcx
  400b2d:	48 8d 35 b4 c8 22 00                            	lea    0x22c8b4(%rip),%rsi        # 62d3e8 <operatingsystem_parameter_envp>
  400b34:	4c 8b 16                                        	mov    (%rsi),%r10
  400b37:	eb 55                                           	jmp    400b8e <SYSTEM_$$_FPGETENV$PCHAR$$PCHAR+0x9e>
  400b39:	66 66 66 90                                     	data16 data16 xchg %ax,%ax
  400b3d:	66 66 90                                        	data16 xchg %ax,%ax
  400b40:	4d 8b 0a                                        	mov    (%r10),%r9
  400b43:	48 89 fa                                        	mov    %rdi,%rdx
  400b46:	89 ce                                           	mov    %ecx,%esi
  400b48:	eb 23                                           	jmp    400b6d <SYSTEM_$$_FPGETENV$PCHAR$$PCHAR+0x7d>
  400b4a:	66 66 66 90                                     	data16 data16 xchg %ax,%ax
  400b4e:	66 90                                           	xchg   %ax,%ax
  400b50:	45 8a 01                                        	mov    (%r9),%r8b
  400b53:	44 3a 02                                        	cmp    (%rdx),%r8b
  400b56:	74 0a                                           	je     400b62 <SYSTEM_$$_FPGETENV$PCHAR$$PCHAR+0x72>
  400b58:	49 83 c1 01                                     	add    $0x1,%r9
  400b5c:	48 83 c2 01                                     	add    $0x1,%rdx
  400b60:	eb 15                                           	jmp    400b77 <SYSTEM_$$_FPGETENV$PCHAR$$PCHAR+0x87>
  400b62:	49 83 c1 01                                     	add    $0x1,%r9
  400b66:	48 83 c2 01                                     	add    $0x1,%rdx
  400b6a:	83 ee 01                                        	sub    $0x1,%esi
  400b6d:	85 f6                                           	test   %esi,%esi
  400b6f:	74 06                                           	je     400b77 <SYSTEM_$$_FPGETENV$PCHAR$$PCHAR+0x87>
  400b71:	41 80 39 00                                     	cmpb   $0x0,(%r9)
  400b75:	75 d9                                           	jne    400b50 <SYSTEM_$$_FPGETENV$PCHAR$$PCHAR+0x60>
  400b77:	85 f6                                           	test   %esi,%esi
  400b79:	75 0f                                           	jne    400b8a <SYSTEM_$$_FPGETENV$PCHAR$$PCHAR+0x9a>
  400b7b:	41 80 39 3d                                     	cmpb   $0x3d,(%r9)
  400b7f:	75 09                                           	jne    400b8a <SYSTEM_$$_FPGETENV$PCHAR$$PCHAR+0x9a>
  400b81:	4d 8d 41 01                                     	lea    0x1(%r9),%r8
  400b85:	4c 89 c0                                        	mov    %r8,%rax
  400b88:	eb 14                                           	jmp    400b9e <SYSTEM_$$_FPGETENV$PCHAR$$PCHAR+0xae>
  400b8a:	49 83 c2 08                                     	add    $0x8,%r10
  400b8e:	49 83 3a 00                                     	cmpq   $0x0,(%r10)
  400b92:	75 ac                                           	jne    400b40 <SYSTEM_$$_FPGETENV$PCHAR$$PCHAR+0x50>
  400b94:	48 b8 00 00 00 00 00 00 00 00                   	movabs $0x0,%rax
  400b9e:	c3                                              	retq   
	...

0000000000400ba0 <SYSTEM_$$_FPS_ISDIR$LONGINT$$BOOLEAN>:
SYSTEM_$$_FPS_ISDIR$LONGINT$$BOOLEAN():
  400ba0:	81 e7 00 f0 00 00                               	and    $0xf000,%edi
  400ba6:	81 ff 00 40 00 00                               	cmp    $0x4000,%edi
  400bac:	0f 94 c0                                        	sete   %al
  400baf:	25 ff 00 00 00                                  	and    $0xff,%eax
  400bb4:	c3                                              	retq   
	...

0000000000400bc0 <SYSTEM_$$_FPS_ISCHR$LONGINT$$BOOLEAN>:
SYSTEM_$$_FPS_ISCHR$LONGINT$$BOOLEAN():
  400bc0:	81 e7 00 f0 00 00                               	and    $0xf000,%edi
  400bc6:	81 ff 00 20 00 00                               	cmp    $0x2000,%edi
  400bcc:	0f 94 c0                                        	sete   %al
  400bcf:	25 ff 00 00 00                                  	and    $0xff,%eax
  400bd4:	c3                                              	retq   
	...

0000000000400be0 <SYSTEM_$$_FPS_ISBLK$LONGINT$$BOOLEAN>:
SYSTEM_$$_FPS_ISBLK$LONGINT$$BOOLEAN():
  400be0:	81 e7 00 f0 00 00                               	and    $0xf000,%edi
  400be6:	81 ff 00 60 00 00                               	cmp    $0x6000,%edi
  400bec:	0f 94 c0                                        	sete   %al
  400bef:	25 ff 00 00 00                                  	and    $0xff,%eax
  400bf4:	c3                                              	retq   
	...

0000000000400c00 <SYSTEM_$$_FPS_ISREG$LONGINT$$BOOLEAN>:
SYSTEM_$$_FPS_ISREG$LONGINT$$BOOLEAN():
  400c00:	81 e7 00 f0 00 00                               	and    $0xf000,%edi
  400c06:	81 ff 00 80 00 00                               	cmp    $0x8000,%edi
  400c0c:	0f 94 c0                                        	sete   %al
  400c0f:	25 ff 00 00 00                                  	and    $0xff,%eax
  400c14:	c3                                              	retq   
	...

0000000000400c20 <SYSTEM_$$_FPS_ISFIFO$LONGINT$$BOOLEAN>:
SYSTEM_$$_FPS_ISFIFO$LONGINT$$BOOLEAN():
  400c20:	81 e7 00 f0 00 00                               	and    $0xf000,%edi
  400c26:	81 ff 00 10 00 00                               	cmp    $0x1000,%edi
  400c2c:	0f 94 c0                                        	sete   %al
  400c2f:	25 ff 00 00 00                                  	and    $0xff,%eax
  400c34:	c3                                              	retq   
	...

0000000000400c40 <SYSTEM_$$_FPS_ISLNK$LONGINT$$BOOLEAN>:
SYSTEM_$$_FPS_ISLNK$LONGINT$$BOOLEAN():
  400c40:	81 e7 00 f0 00 00                               	and    $0xf000,%edi
  400c46:	81 ff 00 a0 00 00                               	cmp    $0xa000,%edi
  400c4c:	0f 94 c0                                        	sete   %al
  400c4f:	25 ff 00 00 00                                  	and    $0xff,%eax
  400c54:	c3                                              	retq   
	...

0000000000400c60 <SYSTEM_$$_FPS_ISSOCK$LONGINT$$BOOLEAN>:
SYSTEM_$$_FPS_ISSOCK$LONGINT$$BOOLEAN():
  400c60:	81 e7 00 f0 00 00                               	and    $0xf000,%edi
  400c66:	81 ff 00 c0 00 00                               	cmp    $0xc000,%edi
  400c6c:	0f 94 c0                                        	sete   %al
  400c6f:	25 ff 00 00 00                                  	and    $0xff,%eax
  400c74:	c3                                              	retq   
	...

0000000000400c80 <SYSTEM_$$_WIFEXITED$LONGINT$$BOOLEAN>:
SYSTEM_$$_WIFEXITED$LONGINT$$BOOLEAN():
  400c80:	83 e7 7f                                        	and    $0x7f,%edi
  400c83:	85 ff                                           	test   %edi,%edi
  400c85:	0f 94 c0                                        	sete   %al
  400c88:	25 ff 00 00 00                                  	and    $0xff,%eax
  400c8d:	c3                                              	retq   
	...

0000000000400c90 <SYSTEM_$$_WEXITSTATUS$LONGINT$$LONGINT>:
SYSTEM_$$_WEXITSTATUS$LONGINT$$LONGINT():
  400c90:	89 f8                                           	mov    %edi,%eax
  400c92:	25 00 ff 00 00                                  	and    $0xff00,%eax
  400c97:	c1 e8 08                                        	shr    $0x8,%eax
  400c9a:	c3                                              	retq   
  400c9b:	00 00                                           	add    %al,(%rax)
  400c9d:	00 00                                           	add    %al,(%rax)
	...

0000000000400ca0 <SYSTEM_$$_WSTOPSIG$LONGINT$$LONGINT>:
SYSTEM_$$_WSTOPSIG$LONGINT$$LONGINT():
  400ca0:	89 f8                                           	mov    %edi,%eax
  400ca2:	25 00 ff 00 00                                  	and    $0xff00,%eax
  400ca7:	c1 e8 08                                        	shr    $0x8,%eax
  400caa:	c3                                              	retq   
  400cab:	00 00                                           	add    %al,(%rax)
  400cad:	00 00                                           	add    %al,(%rax)
	...

0000000000400cb0 <SYSTEM_$$_WIFSIGNALED$LONGINT$$BOOLEAN>:
SYSTEM_$$_WIFSIGNALED$LONGINT$$BOOLEAN():
  400cb0:	89 f8                                           	mov    %edi,%eax
  400cb2:	25 ff 00 00 00                                  	and    $0xff,%eax
  400cb7:	83 f8 7f                                        	cmp    $0x7f,%eax
  400cba:	74 0b                                           	je     400cc7 <SYSTEM_$$_WIFSIGNALED$LONGINT$$BOOLEAN+0x17>
  400cbc:	83 e7 7f                                        	and    $0x7f,%edi
  400cbf:	85 ff                                           	test   %edi,%edi
  400cc1:	74 04                                           	je     400cc7 <SYSTEM_$$_WIFSIGNALED$LONGINT$$BOOLEAN+0x17>
  400cc3:	b0 01                                           	mov    $0x1,%al
  400cc5:	eb 02                                           	jmp    400cc9 <SYSTEM_$$_WIFSIGNALED$LONGINT$$BOOLEAN+0x19>
  400cc7:	b0 00                                           	mov    $0x0,%al
  400cc9:	25 ff 00 00 00                                  	and    $0xff,%eax
  400cce:	c3                                              	retq   
	...

0000000000400cd0 <SYSTEM_$$_WTERMSIG$LONGINT$$LONGINT>:
SYSTEM_$$_WTERMSIG$LONGINT$$LONGINT():
  400cd0:	89 f8                                           	mov    %edi,%eax
  400cd2:	83 e0 7f                                        	and    $0x7f,%eax
  400cd5:	c3                                              	retq   
	...

0000000000400ce0 <SYSTEM_$$_POSIXTORUNERROR$LONGINT$$WORD>:
SYSTEM_$$_POSIXTORUNERROR$LONGINT$$WORD():
  400ce0:	53                                              	push   %rbx
  400ce1:	89 f8                                           	mov    %edi,%eax
  400ce3:	83 e8 02                                        	sub    $0x2,%eax
  400ce6:	83 f8 25                                        	cmp    $0x25,%eax
  400ce9:	77 4a                                           	ja     400d35 <SYSTEM_$$_POSIXTORUNERROR$LONGINT$$WORD+0x55>
  400ceb:	48 63 c0                                        	movslq %eax,%rax
  400cee:	48 8d 15 fb 24 22 00                            	lea    0x2224fb(%rip),%rdx        # 6231f0 <.Ld1>
  400cf5:	48 63 04 82                                     	movslq (%rdx,%rax,4),%rax
  400cf9:	48 8d 04 02                                     	lea    (%rdx,%rax,1),%rax
  400cfd:	ff e0                                           	jmpq   *%rax
  400cff:	66 bb 04 00                                     	mov    $0x4,%bx
  400d03:	eb 33                                           	jmp    400d38 <SYSTEM_$$_POSIXTORUNERROR$LONGINT$$WORD+0x58>
  400d05:	66 bb 02 00                                     	mov    $0x2,%bx
  400d09:	eb 2d                                           	jmp    400d38 <SYSTEM_$$_POSIXTORUNERROR$LONGINT$$WORD+0x58>
  400d0b:	66 bb 06 00                                     	mov    $0x6,%bx
  400d0f:	eb 27                                           	jmp    400d38 <SYSTEM_$$_POSIXTORUNERROR$LONGINT$$WORD+0x58>
  400d11:	66 bb d9 00                                     	mov    $0xd9,%bx
  400d15:	eb 21                                           	jmp    400d38 <SYSTEM_$$_POSIXTORUNERROR$LONGINT$$WORD+0x58>
  400d17:	66 bb da 00                                     	mov    $0xda,%bx
  400d1b:	eb 1b                                           	jmp    400d38 <SYSTEM_$$_POSIXTORUNERROR$LONGINT$$WORD+0x58>
  400d1d:	66 bb 65 00                                     	mov    $0x65,%bx
  400d21:	eb 15                                           	jmp    400d38 <SYSTEM_$$_POSIXTORUNERROR$LONGINT$$WORD+0x58>
  400d23:	66 bb 03 00                                     	mov    $0x3,%bx
  400d27:	eb 0f                                           	jmp    400d38 <SYSTEM_$$_POSIXTORUNERROR$LONGINT$$WORD+0x58>
  400d29:	66 bb 05 00                                     	mov    $0x5,%bx
  400d2d:	eb 09                                           	jmp    400d38 <SYSTEM_$$_POSIXTORUNERROR$LONGINT$$WORD+0x58>
  400d2f:	66 bb 05 00                                     	mov    $0x5,%bx
  400d33:	eb 03                                           	jmp    400d38 <SYSTEM_$$_POSIXTORUNERROR$LONGINT$$WORD+0x58>
  400d35:	66 89 fb                                        	mov    %di,%bx
  400d38:	48 8d 05 e1 c4 22 00                            	lea    0x22c4e1(%rip),%rax        # 62d220 <FPC_THREADVAR_RELOCATE>
  400d3f:	48 8b 00                                        	mov    (%rax),%rax
  400d42:	48 85 c0                                        	test   %rax,%rax
  400d45:	74 10                                           	je     400d57 <SYSTEM_$$_POSIXTORUNERROR$LONGINT$$WORD+0x77>
  400d47:	48 8d 15 a2 b4 22 00                            	lea    0x22b4a2(%rip),%rdx        # 62c1f0 <U_$SYSTEM_$$_INOUTRES>
  400d4e:	8b 3a                                           	mov    (%rdx),%edi
  400d50:	ff d0                                           	callq  *%rax
  400d52:	48 89 c2                                        	mov    %rax,%rdx
  400d55:	eb 0b                                           	jmp    400d62 <SYSTEM_$$_POSIXTORUNERROR$LONGINT$$WORD+0x82>
  400d57:	48 8d 15 92 b4 22 00                            	lea    0x22b492(%rip),%rdx        # 62c1f0 <U_$SYSTEM_$$_INOUTRES>
  400d5e:	48 83 c2 08                                     	add    $0x8,%rdx
  400d62:	66 89 d8                                        	mov    %bx,%ax
  400d65:	66 89 02                                        	mov    %ax,(%rdx)
  400d68:	25 ff ff 00 00                                  	and    $0xffff,%eax
  400d6d:	5b                                              	pop    %rbx
  400d6e:	c3                                              	retq   
	...

0000000000400d70 <SYSTEM_$$_ERRNO2INOUTRES$$WORD>:
SYSTEM_$$_ERRNO2INOUTRES$$WORD():
  400d70:	53                                              	push   %rbx
  400d71:	e8 6a f4 ff ff                                  	callq  4001e0 <SYSTEM_$$_GETERRNO$$LONGINT>
  400d76:	89 c7                                           	mov    %eax,%edi
  400d78:	e8 63 ff ff ff                                  	callq  400ce0 <SYSTEM_$$_POSIXTORUNERROR$LONGINT$$WORD>
  400d7d:	66 89 c3                                        	mov    %ax,%bx
  400d80:	48 8d 05 99 c4 22 00                            	lea    0x22c499(%rip),%rax        # 62d220 <FPC_THREADVAR_RELOCATE>
  400d87:	48 8b 00                                        	mov    (%rax),%rax
  400d8a:	48 85 c0                                        	test   %rax,%rax
  400d8d:	74 10                                           	je     400d9f <SYSTEM_$$_ERRNO2INOUTRES$$WORD+0x2f>
  400d8f:	48 8d 15 5a b4 22 00                            	lea    0x22b45a(%rip),%rdx        # 62c1f0 <U_$SYSTEM_$$_INOUTRES>
  400d96:	8b 3a                                           	mov    (%rdx),%edi
  400d98:	ff d0                                           	callq  *%rax
  400d9a:	48 89 c2                                        	mov    %rax,%rdx
  400d9d:	eb 0b                                           	jmp    400daa <SYSTEM_$$_ERRNO2INOUTRES$$WORD+0x3a>
  400d9f:	48 8d 15 4a b4 22 00                            	lea    0x22b44a(%rip),%rdx        # 62c1f0 <U_$SYSTEM_$$_INOUTRES>
  400da6:	48 83 c2 08                                     	add    $0x8,%rdx
  400daa:	66 89 d8                                        	mov    %bx,%ax
  400dad:	66 89 02                                        	mov    %ax,(%rdx)
  400db0:	25 ff ff 00 00                                  	and    $0xffff,%eax
  400db5:	5b                                              	pop    %rbx
  400db6:	c3                                              	retq   
	...

0000000000400dc0 <SYSTEM_$$_DO_ISDEVICE$LONGINT$$BOOLEAN>:
SYSTEM_$$_DO_ISDEVICE$LONGINT$$BOOLEAN():
  400dc0:	48 8d a4 24 f8 fe ff ff                         	lea    -0x108(%rsp),%rsp
  400dc8:	48 89 e2                                        	mov    %rsp,%rdx
  400dcb:	be 01 54 00 00                                  	mov    $0x5401,%esi
  400dd0:	e8 cb fb ff ff                                  	callq  4009a0 <SYSTEM_$$_FPIOCTL$LONGINT$LONGINT$POINTER$$LONGINT>
  400dd5:	83 f8 ff                                        	cmp    $0xffffffff,%eax
  400dd8:	0f 95 c0                                        	setne  %al
  400ddb:	25 ff 00 00 00                                  	and    $0xff,%eax
  400de0:	48 8d a4 24 08 01 00 00                         	lea    0x108(%rsp),%rsp
  400de8:	c3                                              	retq   
  400de9:	00 00                                           	add    %al,(%rax)
  400deb:	00 00                                           	add    %al,(%rax)
  400ded:	00 00                                           	add    %al,(%rax)
	...

0000000000400df0 <SYSTEM_$$_SPTR$$POINTER>:
SYSTEM_$$_SPTR$$POINTER():
  400df0:	48 89 e0                                        	mov    %rsp,%rax
  400df3:	c3                                              	retq   
	...

0000000000400e00 <SYSTEM_$$_GET_PC_ADDR$$POINTER>:
SYSTEM_$$_GET_PC_ADDR$$POINTER():
  400e00:	48 8b 04 24                                     	mov    (%rsp),%rax
  400e04:	c3                                              	retq   
	...

0000000000400e10 <SYSTEM_$$_GET_CALLER_ADDR$POINTER$POINTER$$POINTER>:
SYSTEM_$$_GET_CALLER_ADDR$POINTER$POINTER$$POINTER():
  400e10:	48 89 f8                                        	mov    %rdi,%rax
  400e13:	48 85 ff                                        	test   %rdi,%rdi
  400e16:	74 04                                           	je     400e1c <SYSTEM_$$_GET_CALLER_ADDR$POINTER$POINTER$$POINTER+0xc>
  400e18:	48 8b 47 08                                     	mov    0x8(%rdi),%rax
  400e1c:	c3                                              	retq   
  400e1d:	00 00                                           	add    %al,(%rax)
	...

0000000000400e20 <SYSTEM_$$_GET_CALLER_FRAME$POINTER$POINTER$$POINTER>:
SYSTEM_$$_GET_CALLER_FRAME$POINTER$POINTER$$POINTER():
  400e20:	48 89 f8                                        	mov    %rdi,%rax
  400e23:	48 85 ff                                        	test   %rdi,%rdi
  400e26:	74 03                                           	je     400e2b <SYSTEM_$$_GET_CALLER_FRAME$POINTER$POINTER$$POINTER+0xb>
  400e28:	48 8b 07                                        	mov    (%rdi),%rax
  400e2b:	c3                                              	retq   
  400e2c:	00 00                                           	add    %al,(%rax)
	...

0000000000400e30 <SYSTEM_$$_MOVE$formal$formal$INT64>:
SYSTEM_$$_MOVE$formal$formal$INT64():
  400e30:	49 89 d0                                        	mov    %rdx,%r8
  400e33:	48 89 f2                                        	mov    %rsi,%rdx
  400e36:	48 89 f9                                        	mov    %rdi,%rcx
  400e39:	4c 89 c0                                        	mov    %r8,%rax
  400e3c:	48 29 d1                                        	sub    %rdx,%rcx
  400e3f:	0f 84 98 00 00 00                               	je     400edd <SYSTEM_$$_MOVE$formal$formal$INT64+0xad>
  400e45:	73 09                                           	jae    400e50 <SYSTEM_$$_MOVE$formal$formal$INT64+0x20>
  400e47:	48 01 c8                                        	add    %rcx,%rax
  400e4a:	0f 82 74 01 00 00                               	jb     400fc4 <SYSTEM_$$_MOVE$formal$formal$INT64+0x194>
  400e50:	49 83 f8 08                                     	cmp    $0x8,%r8
  400e54:	0f 8c 6a 00 00 00                               	jl     400ec4 <SYSTEM_$$_MOVE$formal$formal$INT64+0x94>
  400e5a:	f6 c2 07                                        	test   $0x7,%dl
  400e5d:	74 37                                           	je     400e96 <SYSTEM_$$_MOVE$formal$formal$INT64+0x66>
  400e5f:	f6 c2 01                                        	test   $0x1,%dl
  400e62:	74 0c                                           	je     400e70 <SYSTEM_$$_MOVE$formal$formal$INT64+0x40>
  400e64:	8a 04 11                                        	mov    (%rcx,%rdx,1),%al
  400e67:	49 ff c8                                        	dec    %r8
  400e6a:	88 02                                           	mov    %al,(%rdx)
  400e6c:	48 83 c2 01                                     	add    $0x1,%rdx
  400e70:	f6 c2 02                                        	test   $0x2,%dl
  400e73:	74 0f                                           	je     400e84 <SYSTEM_$$_MOVE$formal$formal$INT64+0x54>
  400e75:	66 8b 04 11                                     	mov    (%rcx,%rdx,1),%ax
  400e79:	49 83 e8 02                                     	sub    $0x2,%r8
  400e7d:	66 89 02                                        	mov    %ax,(%rdx)
  400e80:	48 83 c2 02                                     	add    $0x2,%rdx
  400e84:	f6 c2 04                                        	test   $0x4,%dl
  400e87:	74 0d                                           	je     400e96 <SYSTEM_$$_MOVE$formal$formal$INT64+0x66>
  400e89:	8b 04 11                                        	mov    (%rcx,%rdx,1),%eax
  400e8c:	49 83 e8 04                                     	sub    $0x4,%r8
  400e90:	89 02                                           	mov    %eax,(%rdx)
  400e92:	48 83 c2 04                                     	add    $0x4,%rdx
  400e96:	4d 89 c1                                        	mov    %r8,%r9
  400e99:	49 c1 e9 05                                     	shr    $0x5,%r9
  400e9d:	75 3f                                           	jne    400ede <SYSTEM_$$_MOVE$formal$formal$INT64+0xae>
  400e9f:	4d 89 c1                                        	mov    %r8,%r9
  400ea2:	49 c1 e9 03                                     	shr    $0x3,%r9
  400ea6:	74 1c                                           	je     400ec4 <SYSTEM_$$_MOVE$formal$formal$INT64+0x94>
  400ea8:	66 66 66 90                                     	data16 data16 xchg %ax,%ax
  400eac:	66 66 66 90                                     	data16 data16 xchg %ax,%ax
  400eb0:	48 8b 04 11                                     	mov    (%rcx,%rdx,1),%rax
  400eb4:	48 89 02                                        	mov    %rax,(%rdx)
  400eb7:	48 83 c2 08                                     	add    $0x8,%rdx
  400ebb:	49 ff c9                                        	dec    %r9
  400ebe:	75 f0                                           	jne    400eb0 <SYSTEM_$$_MOVE$formal$formal$INT64+0x80>
  400ec0:	49 83 e0 07                                     	and    $0x7,%r8
  400ec4:	4d 85 c0                                        	test   %r8,%r8
  400ec7:	7e 14                                           	jle    400edd <SYSTEM_$$_MOVE$formal$formal$INT64+0xad>
  400ec9:	66 66 66 90                                     	data16 data16 xchg %ax,%ax
  400ecd:	66 66 90                                        	data16 xchg %ax,%ax
  400ed0:	8a 04 11                                        	mov    (%rcx,%rdx,1),%al
  400ed3:	88 02                                           	mov    %al,(%rdx)
  400ed5:	48 ff c2                                        	inc    %rdx
  400ed8:	49 ff c8                                        	dec    %r8
  400edb:	75 f3                                           	jne    400ed0 <SYSTEM_$$_MOVE$formal$formal$INT64+0xa0>
  400edd:	c3                                              	retq   
  400ede:	49 81 f9 00 20 00 00                            	cmp    $0x2000,%r9
  400ee5:	72 09                                           	jb     400ef0 <SYSTEM_$$_MOVE$formal$formal$INT64+0xc0>
  400ee7:	48 81 f9 00 10 00 00                            	cmp    $0x1000,%rcx
  400eee:	73 36                                           	jae    400f26 <SYSTEM_$$_MOVE$formal$formal$INT64+0xf6>
  400ef0:	48 83 c2 20                                     	add    $0x20,%rdx
  400ef4:	48 8b 44 11 e0                                  	mov    -0x20(%rcx,%rdx,1),%rax
  400ef9:	4c 8b 54 11 e8                                  	mov    -0x18(%rcx,%rdx,1),%r10
  400efe:	48 89 42 e0                                     	mov    %rax,-0x20(%rdx)
  400f02:	4c 89 52 e8                                     	mov    %r10,-0x18(%rdx)
  400f06:	49 ff c9                                        	dec    %r9
  400f09:	48 8b 44 11 f0                                  	mov    -0x10(%rcx,%rdx,1),%rax
  400f0e:	4c 8b 54 11 f8                                  	mov    -0x8(%rcx,%rdx,1),%r10
  400f13:	48 89 42 f0                                     	mov    %rax,-0x10(%rdx)
  400f17:	4c 89 52 f8                                     	mov    %r10,-0x8(%rdx)
  400f1b:	75 d3                                           	jne    400ef0 <SYSTEM_$$_MOVE$formal$formal$INT64+0xc0>
  400f1d:	49 83 e0 1f                                     	and    $0x1f,%r8
  400f21:	e9 79 ff ff ff                                  	jmpq   400e9f <SYSTEM_$$_MOVE$formal$formal$INT64+0x6f>
  400f26:	b8 20 00 00 00                                  	mov    $0x20,%eax
  400f2b:	66 66 66 90                                     	data16 data16 xchg %ax,%ax
  400f2f:	90                                              	nop
  400f30:	0f 18 04 11                                     	prefetchnta (%rcx,%rdx,1)
  400f34:	0f 18 44 11 40                                  	prefetchnta 0x40(%rcx,%rdx,1)
  400f39:	48 81 c2 80 00 00 00                            	add    $0x80,%rdx
  400f40:	ff c8                                           	dec    %eax
  400f42:	75 ec                                           	jne    400f30 <SYSTEM_$$_MOVE$formal$formal$INT64+0x100>
  400f44:	48 81 ea 00 10 00 00                            	sub    $0x1000,%rdx
  400f4b:	b8 40 00 00 00                                  	mov    $0x40,%eax
  400f50:	48 83 c2 40                                     	add    $0x40,%rdx
  400f54:	4c 8b 4c 11 c0                                  	mov    -0x40(%rcx,%rdx,1),%r9
  400f59:	4c 8b 54 11 c8                                  	mov    -0x38(%rcx,%rdx,1),%r10
  400f5e:	4c 0f c3 4a c0                                  	movnti %r9,-0x40(%rdx)
  400f63:	4c 0f c3 52 c8                                  	movnti %r10,-0x38(%rdx)
  400f68:	4c 8b 4c 11 d0                                  	mov    -0x30(%rcx,%rdx,1),%r9
  400f6d:	4c 8b 54 11 d8                                  	mov    -0x28(%rcx,%rdx,1),%r10
  400f72:	4c 0f c3 4a d0                                  	movnti %r9,-0x30(%rdx)
  400f77:	4c 0f c3 52 d8                                  	movnti %r10,-0x28(%rdx)
  400f7c:	ff c8                                           	dec    %eax
  400f7e:	4c 8b 4c 11 e0                                  	mov    -0x20(%rcx,%rdx,1),%r9
  400f83:	4c 8b 54 11 e8                                  	mov    -0x18(%rcx,%rdx,1),%r10
  400f88:	4c 0f c3 4a e0                                  	movnti %r9,-0x20(%rdx)
  400f8d:	4c 0f c3 52 e8                                  	movnti %r10,-0x18(%rdx)
  400f92:	4c 8b 4c 11 f0                                  	mov    -0x10(%rcx,%rdx,1),%r9
  400f97:	4c 8b 54 11 f8                                  	mov    -0x8(%rcx,%rdx,1),%r10
  400f9c:	4c 0f c3 4a f0                                  	movnti %r9,-0x10(%rdx)
  400fa1:	4c 0f c3 52 f8                                  	movnti %r10,-0x8(%rdx)
  400fa6:	75 a8                                           	jne    400f50 <SYSTEM_$$_MOVE$formal$formal$INT64+0x120>
  400fa8:	49 81 e8 00 10 00 00                            	sub    $0x1000,%r8
  400faf:	49 81 f8 00 10 00 00                            	cmp    $0x1000,%r8
  400fb6:	0f 83 6a ff ff ff                               	jae    400f26 <SYSTEM_$$_MOVE$formal$formal$INT64+0xf6>
  400fbc:	0f ae f0                                        	mfence 
  400fbf:	e9 d2 fe ff ff                                  	jmpq   400e96 <SYSTEM_$$_MOVE$formal$formal$INT64+0x66>
  400fc4:	4c 01 c2                                        	add    %r8,%rdx
  400fc7:	49 83 f8 08                                     	cmp    $0x8,%r8
  400fcb:	7c 61                                           	jl     40102e <SYSTEM_$$_MOVE$formal$formal$INT64+0x1fe>
  400fcd:	f6 c2 07                                        	test   $0x7,%dl
  400fd0:	74 36                                           	je     401008 <SYSTEM_$$_MOVE$formal$formal$INT64+0x1d8>
  400fd2:	f6 c2 01                                        	test   $0x1,%dl
  400fd5:	74 0b                                           	je     400fe2 <SYSTEM_$$_MOVE$formal$formal$INT64+0x1b2>
  400fd7:	48 ff ca                                        	dec    %rdx
  400fda:	8a 04 11                                        	mov    (%rcx,%rdx,1),%al
  400fdd:	49 ff c8                                        	dec    %r8
  400fe0:	88 02                                           	mov    %al,(%rdx)
  400fe2:	f6 c2 02                                        	test   $0x2,%dl
  400fe5:	74 0f                                           	je     400ff6 <SYSTEM_$$_MOVE$formal$formal$INT64+0x1c6>
  400fe7:	48 83 ea 02                                     	sub    $0x2,%rdx
  400feb:	66 8b 04 11                                     	mov    (%rcx,%rdx,1),%ax
  400fef:	49 83 e8 02                                     	sub    $0x2,%r8
  400ff3:	66 89 02                                        	mov    %ax,(%rdx)
  400ff6:	f6 c2 04                                        	test   $0x4,%dl
  400ff9:	74 0d                                           	je     401008 <SYSTEM_$$_MOVE$formal$formal$INT64+0x1d8>
  400ffb:	48 83 ea 04                                     	sub    $0x4,%rdx
  400fff:	8b 04 11                                        	mov    (%rcx,%rdx,1),%eax
  401002:	49 83 e8 04                                     	sub    $0x4,%r8
  401006:	89 02                                           	mov    %eax,(%rdx)
  401008:	4d 89 c1                                        	mov    %r8,%r9
  40100b:	49 c1 e9 05                                     	shr    $0x5,%r9
  40100f:	75 3d                                           	jne    40104e <SYSTEM_$$_MOVE$formal$formal$INT64+0x21e>
  401011:	4d 89 c1                                        	mov    %r8,%r9
  401014:	49 c1 e9 03                                     	shr    $0x3,%r9
  401018:	74 14                                           	je     40102e <SYSTEM_$$_MOVE$formal$formal$INT64+0x1fe>
  40101a:	48 83 ea 08                                     	sub    $0x8,%rdx
  40101e:	48 8b 04 11                                     	mov    (%rcx,%rdx,1),%rax
  401022:	49 ff c9                                        	dec    %r9
  401025:	48 89 02                                        	mov    %rax,(%rdx)
  401028:	75 f0                                           	jne    40101a <SYSTEM_$$_MOVE$formal$formal$INT64+0x1ea>
  40102a:	49 83 e0 07                                     	and    $0x7,%r8
  40102e:	4d 85 c0                                        	test   %r8,%r8
  401031:	7e 1a                                           	jle    40104d <SYSTEM_$$_MOVE$formal$formal$INT64+0x21d>
  401033:	66 66 66 90                                     	data16 data16 xchg %ax,%ax
  401037:	66 66 66 90                                     	data16 data16 xchg %ax,%ax
  40103b:	66 66 66 90                                     	data16 data16 xchg %ax,%ax
  40103f:	90                                              	nop
  401040:	48 ff ca                                        	dec    %rdx
  401043:	8a 04 11                                        	mov    (%rcx,%rdx,1),%al
  401046:	49 ff c8                                        	dec    %r8
  401049:	88 02                                           	mov    %al,(%rdx)
  40104b:	75 f3                                           	jne    401040 <SYSTEM_$$_MOVE$formal$formal$INT64+0x210>
  40104d:	c3                                              	retq   
  40104e:	49 81 f9 00 20 00 00                            	cmp    $0x2000,%r9
  401055:	72 09                                           	jb     401060 <SYSTEM_$$_MOVE$formal$formal$INT64+0x230>
  401057:	48 81 f9 00 f0 ff ff                            	cmp    $0xfffffffffffff000,%rcx
  40105e:	72 34                                           	jb     401094 <SYSTEM_$$_MOVE$formal$formal$INT64+0x264>
  401060:	48 83 ea 20                                     	sub    $0x20,%rdx
  401064:	48 8b 44 11 18                                  	mov    0x18(%rcx,%rdx,1),%rax
  401069:	4c 8b 54 11 10                                  	mov    0x10(%rcx,%rdx,1),%r10
  40106e:	48 89 42 18                                     	mov    %rax,0x18(%rdx)
  401072:	4c 89 52 10                                     	mov    %r10,0x10(%rdx)
  401076:	49 ff c9                                        	dec    %r9
  401079:	48 8b 44 11 08                                  	mov    0x8(%rcx,%rdx,1),%rax
  40107e:	4c 8b 14 11                                     	mov    (%rcx,%rdx,1),%r10
  401082:	48 89 42 08                                     	mov    %rax,0x8(%rdx)
  401086:	4c 89 12                                        	mov    %r10,(%rdx)
  401089:	75 d5                                           	jne    401060 <SYSTEM_$$_MOVE$formal$formal$INT64+0x230>
  40108b:	49 83 e0 1f                                     	and    $0x1f,%r8
  40108f:	e9 7d ff ff ff                                  	jmpq   401011 <SYSTEM_$$_MOVE$formal$formal$INT64+0x1e1>
  401094:	b8 20 00 00 00                                  	mov    $0x20,%eax
  401099:	66 66 66 90                                     	data16 data16 xchg %ax,%ax
  40109d:	66 66 90                                        	data16 xchg %ax,%ax
  4010a0:	48 81 ea 80 00 00 00                            	sub    $0x80,%rdx
  4010a7:	0f 18 04 11                                     	prefetchnta (%rcx,%rdx,1)
  4010ab:	0f 18 44 11 40                                  	prefetchnta 0x40(%rcx,%rdx,1)
  4010b0:	ff c8                                           	dec    %eax
  4010b2:	75 ec                                           	jne    4010a0 <SYSTEM_$$_MOVE$formal$formal$INT64+0x270>
  4010b4:	48 81 c2 00 10 00 00                            	add    $0x1000,%rdx
  4010bb:	b8 40 00 00 00                                  	mov    $0x40,%eax
  4010c0:	48 83 ea 40                                     	sub    $0x40,%rdx
  4010c4:	4c 8b 4c 11 38                                  	mov    0x38(%rcx,%rdx,1),%r9
  4010c9:	4c 8b 54 11 30                                  	mov    0x30(%rcx,%rdx,1),%r10
  4010ce:	4c 0f c3 4a 38                                  	movnti %r9,0x38(%rdx)
  4010d3:	4c 0f c3 52 30                                  	movnti %r10,0x30(%rdx)
  4010d8:	4c 8b 4c 11 28                                  	mov    0x28(%rcx,%rdx,1),%r9
  4010dd:	4c 8b 54 11 20                                  	mov    0x20(%rcx,%rdx,1),%r10
  4010e2:	4c 0f c3 4a 28                                  	movnti %r9,0x28(%rdx)
  4010e7:	4c 0f c3 52 20                                  	movnti %r10,0x20(%rdx)
  4010ec:	ff c8                                           	dec    %eax
  4010ee:	4c 8b 4c 11 18                                  	mov    0x18(%rcx,%rdx,1),%r9
  4010f3:	4c 8b 54 11 10                                  	mov    0x10(%rcx,%rdx,1),%r10
  4010f8:	4c 0f c3 4a 18                                  	movnti %r9,0x18(%rdx)
  4010fd:	4c 0f c3 52 10                                  	movnti %r10,0x10(%rdx)
  401102:	4c 8b 4c 11 08                                  	mov    0x8(%rcx,%rdx,1),%r9
  401107:	4c 8b 14 11                                     	mov    (%rcx,%rdx,1),%r10
  40110b:	4c 0f c3 4a 08                                  	movnti %r9,0x8(%rdx)
  401110:	4c 0f c3 12                                     	movnti %r10,(%rdx)
  401114:	75 aa                                           	jne    4010c0 <SYSTEM_$$_MOVE$formal$formal$INT64+0x290>
  401116:	49 81 e8 00 10 00 00                            	sub    $0x1000,%r8
  40111d:	49 81 f8 00 10 00 00                            	cmp    $0x1000,%r8
  401124:	0f 83 6a ff ff ff                               	jae    401094 <SYSTEM_$$_MOVE$formal$formal$INT64+0x264>
  40112a:	0f ae f0                                        	mfence 
  40112d:	e9 d6 fe ff ff                                  	jmpq   401008 <SYSTEM_$$_MOVE$formal$formal$INT64+0x1d8>
  401132:	c3                                              	retq   
	...

0000000000401140 <SYSTEM_$$_FILLCHAR$formal$INT64$BYTE>:
SYSTEM_$$_FILLCHAR$formal$INT64$BYTE():
  401140:	49 89 d0                                        	mov    %rdx,%r8
  401143:	48 89 f2                                        	mov    %rsi,%rdx
  401146:	48 89 f9                                        	mov    %rdi,%rcx
  401149:	48 83 fa 08                                     	cmp    $0x8,%rdx
  40114d:	0f 8c 79 00 00 00                               	jl     4011cc <SYSTEM_$$_FILLCHAR$formal$INT64$BYTE+0x8c>
  401153:	49 81 e0 ff 00 00 00                            	and    $0xff,%r8
  40115a:	49 b9 01 01 01 01 01 01 01 01                   	movabs $0x101010101010101,%r9
  401164:	4d 0f af c1                                     	imul   %r9,%r8
  401168:	f6 c1 07                                        	test   $0x7,%cl
  40116b:	74 31                                           	je     40119e <SYSTEM_$$_FILLCHAR$formal$INT64$BYTE+0x5e>
  40116d:	f6 c1 01                                        	test   $0x1,%cl
  401170:	74 0b                                           	je     40117d <SYSTEM_$$_FILLCHAR$formal$INT64$BYTE+0x3d>
  401172:	44 88 01                                        	mov    %r8b,(%rcx)
  401175:	48 83 c1 01                                     	add    $0x1,%rcx
  401179:	48 83 ea 01                                     	sub    $0x1,%rdx
  40117d:	f6 c1 02                                        	test   $0x2,%cl
  401180:	74 0c                                           	je     40118e <SYSTEM_$$_FILLCHAR$formal$INT64$BYTE+0x4e>
  401182:	66 44 89 01                                     	mov    %r8w,(%rcx)
  401186:	48 83 c1 02                                     	add    $0x2,%rcx
  40118a:	48 83 ea 02                                     	sub    $0x2,%rdx
  40118e:	f6 c1 04                                        	test   $0x4,%cl
  401191:	74 0b                                           	je     40119e <SYSTEM_$$_FILLCHAR$formal$INT64$BYTE+0x5e>
  401193:	44 89 01                                        	mov    %r8d,(%rcx)
  401196:	48 83 c1 04                                     	add    $0x4,%rcx
  40119a:	48 83 ea 04                                     	sub    $0x4,%rdx
  40119e:	48 89 d0                                        	mov    %rdx,%rax
  4011a1:	48 83 e2 3f                                     	and    $0x3f,%rdx
  4011a5:	48 c1 e8 06                                     	shr    $0x6,%rax
  4011a9:	75 32                                           	jne    4011dd <SYSTEM_$$_FILLCHAR$formal$INT64$BYTE+0x9d>
  4011ab:	48 89 d0                                        	mov    %rdx,%rax
  4011ae:	48 83 e2 07                                     	and    $0x7,%rdx
  4011b2:	48 c1 e8 03                                     	shr    $0x3,%rax
  4011b6:	74 14                                           	je     4011cc <SYSTEM_$$_FILLCHAR$formal$INT64$BYTE+0x8c>
  4011b8:	66 66 66 90                                     	data16 data16 xchg %ax,%ax
  4011bc:	66 66 66 90                                     	data16 data16 xchg %ax,%ax
  4011c0:	4c 89 01                                        	mov    %r8,(%rcx)
  4011c3:	48 83 c1 08                                     	add    $0x8,%rcx
  4011c7:	48 ff c8                                        	dec    %rax
  4011ca:	75 f4                                           	jne    4011c0 <SYSTEM_$$_FILLCHAR$formal$INT64$BYTE+0x80>
  4011cc:	48 85 d2                                        	test   %rdx,%rdx
  4011cf:	7e 0b                                           	jle    4011dc <SYSTEM_$$_FILLCHAR$formal$INT64$BYTE+0x9c>
  4011d1:	44 88 01                                        	mov    %r8b,(%rcx)
  4011d4:	48 ff c1                                        	inc    %rcx
  4011d7:	48 ff ca                                        	dec    %rdx
  4011da:	75 f5                                           	jne    4011d1 <SYSTEM_$$_FILLCHAR$formal$INT64$BYTE+0x91>
  4011dc:	c3                                              	retq   
  4011dd:	48 3d 00 20 00 00                               	cmp    $0x2000,%rax
  4011e3:	73 3b                                           	jae    401220 <SYSTEM_$$_FILLCHAR$formal$INT64$BYTE+0xe0>
  4011e5:	66 66 66 90                                     	data16 data16 xchg %ax,%ax
  4011e9:	66 66 66 90                                     	data16 data16 xchg %ax,%ax
  4011ed:	66 66 90                                        	data16 xchg %ax,%ax
  4011f0:	48 83 c1 40                                     	add    $0x40,%rcx
  4011f4:	4c 89 41 c0                                     	mov    %r8,-0x40(%rcx)
  4011f8:	4c 89 41 c8                                     	mov    %r8,-0x38(%rcx)
  4011fc:	4c 89 41 d0                                     	mov    %r8,-0x30(%rcx)
  401200:	4c 89 41 d8                                     	mov    %r8,-0x28(%rcx)
  401204:	48 ff c8                                        	dec    %rax
  401207:	4c 89 41 e0                                     	mov    %r8,-0x20(%rcx)
  40120b:	4c 89 41 e8                                     	mov    %r8,-0x18(%rcx)
  40120f:	4c 89 41 f0                                     	mov    %r8,-0x10(%rcx)
  401213:	4c 89 41 f8                                     	mov    %r8,-0x8(%rcx)
  401217:	75 d7                                           	jne    4011f0 <SYSTEM_$$_FILLCHAR$formal$INT64$BYTE+0xb0>
  401219:	eb 90                                           	jmp    4011ab <SYSTEM_$$_FILLCHAR$formal$INT64$BYTE+0x6b>
  40121b:	66 66 66 90                                     	data16 data16 xchg %ax,%ax
  40121f:	90                                              	nop
  401220:	48 83 c1 40                                     	add    $0x40,%rcx
  401224:	4c 0f c3 41 c0                                  	movnti %r8,-0x40(%rcx)
  401229:	4c 0f c3 41 c8                                  	movnti %r8,-0x38(%rcx)
  40122e:	4c 0f c3 41 d0                                  	movnti %r8,-0x30(%rcx)
  401233:	4c 0f c3 41 d8                                  	movnti %r8,-0x28(%rcx)
  401238:	48 ff c8                                        	dec    %rax
  40123b:	4c 0f c3 41 e0                                  	movnti %r8,-0x20(%rcx)
  401240:	4c 0f c3 41 e8                                  	movnti %r8,-0x18(%rcx)
  401245:	4c 0f c3 41 f0                                  	movnti %r8,-0x10(%rcx)
  40124a:	4c 0f c3 41 f8                                  	movnti %r8,-0x8(%rcx)
  40124f:	75 cf                                           	jne    401220 <SYSTEM_$$_FILLCHAR$formal$INT64$BYTE+0xe0>
  401251:	0f ae f0                                        	mfence 
  401254:	e9 52 ff ff ff                                  	jmpq   4011ab <SYSTEM_$$_FILLCHAR$formal$INT64$BYTE+0x6b>
  401259:	c3                                              	retq   
  40125a:	00 00                                           	add    %al,(%rax)
  40125c:	00 00                                           	add    %al,(%rax)
	...

0000000000401260 <SYSTEM_$$_INDEXBYTE$formal$INT64$BYTE$$INT64>:
SYSTEM_$$_INDEXBYTE$formal$INT64$BYTE$$INT64():
  401260:	66 0f 6e ca                                     	movd   %edx,%xmm1
  401264:	48 89 f9                                        	mov    %rdi,%rcx
  401267:	48 89 f2                                        	mov    %rsi,%rdx
  40126a:	49 89 c8                                        	mov    %rcx,%r8
  40126d:	66 0f 60 c9                                     	punpcklbw %xmm1,%xmm1
  401271:	48 83 e1 f0                                     	and    $0xfffffffffffffff0,%rcx
  401275:	48 85 d2                                        	test   %rdx,%rdx
  401278:	66 0f 60 c9                                     	punpcklbw %xmm1,%xmm1
  40127c:	74 4d                                           	je     4012cb <SYSTEM_$$_INDEXBYTE$formal$INT64$BYTE$$INT64+0x6b>
  40127e:	48 83 c1 10                                     	add    $0x10,%rcx
  401282:	66 0f 70 c9 00                                  	pshufd $0x0,%xmm1,%xmm1
  401287:	66 0f 6f 41 f0                                  	movdqa -0x10(%rcx),%xmm0
  40128c:	4c 29 c1                                        	sub    %r8,%rcx
  40128f:	66 0f 74 c1                                     	pcmpeqb %xmm1,%xmm0
  401293:	66 0f d7 c0                                     	pmovmskb %xmm0,%eax
  401297:	d3 e0                                           	shl    %cl,%eax
  401299:	25 00 00 ff ff                                  	and    $0xffff0000,%eax
  40129e:	d3 e8                                           	shr    %cl,%eax
  4012a0:	eb 20                                           	jmp    4012c2 <SYSTEM_$$_INDEXBYTE$formal$INT64$BYTE$$INT64+0x62>
  4012a2:	66 66 66 90                                     	data16 data16 xchg %ax,%ax
  4012a6:	66 66 66 90                                     	data16 data16 xchg %ax,%ax
  4012aa:	66 66 66 90                                     	data16 data16 xchg %ax,%ax
  4012ae:	66 90                                           	xchg   %ax,%ax
  4012b0:	66 41 0f 6f 04 08                               	movdqa (%r8,%rcx,1),%xmm0
  4012b6:	48 83 c1 10                                     	add    $0x10,%rcx
  4012ba:	66 0f 74 c1                                     	pcmpeqb %xmm1,%xmm0
  4012be:	66 0f d7 c0                                     	pmovmskb %xmm0,%eax
  4012c2:	85 c0                                           	test   %eax,%eax
  4012c4:	75 0a                                           	jne    4012d0 <SYSTEM_$$_INDEXBYTE$formal$INT64$BYTE$$INT64+0x70>
  4012c6:	48 39 ca                                        	cmp    %rcx,%rdx
  4012c9:	77 e5                                           	ja     4012b0 <SYSTEM_$$_INDEXBYTE$formal$INT64$BYTE$$INT64+0x50>
  4012cb:	48 83 c8 ff                                     	or     $0xffffffffffffffff,%rax
  4012cf:	c3                                              	retq   
  4012d0:	0f bc c0                                        	bsf    %eax,%eax
  4012d3:	48 8d 44 01 f0                                  	lea    -0x10(%rcx,%rax,1),%rax
  4012d8:	48 39 c2                                        	cmp    %rax,%rdx
  4012db:	76 ee                                           	jbe    4012cb <SYSTEM_$$_INDEXBYTE$formal$INT64$BYTE$$INT64+0x6b>
  4012dd:	c3                                              	retq   
	...

00000000004012e0 <SYSTEM_$$_INDEXWORD$formal$INT64$WORD$$INT64>:
SYSTEM_$$_INDEXWORD$formal$INT64$WORD$$INT64():
  4012e0:	66 0f 6e ca                                     	movd   %edx,%xmm1
  4012e4:	48 89 f9                                        	mov    %rdi,%rcx
  4012e7:	48 89 f2                                        	mov    %rsi,%rdx
  4012ea:	49 89 c8                                        	mov    %rcx,%r8
  4012ed:	66 0f 61 c9                                     	punpcklwd %xmm1,%xmm1
  4012f1:	48 83 e1 f0                                     	and    $0xfffffffffffffff0,%rcx
  4012f5:	48 85 d2                                        	test   %rdx,%rdx
  4012f8:	66 0f 70 c9 00                                  	pshufd $0x0,%xmm1,%xmm1
  4012fd:	74 4c                                           	je     40134b <SYSTEM_$$_INDEXWORD$formal$INT64$WORD$$INT64+0x6b>
  4012ff:	48 83 c1 10                                     	add    $0x10,%rcx
  401303:	66 0f 6f 41 f0                                  	movdqa -0x10(%rcx),%xmm0
  401308:	4c 29 c1                                        	sub    %r8,%rcx
  40130b:	41 f6 c0 01                                     	test   $0x1,%r8b
  40130f:	75 4f                                           	jne    401360 <SYSTEM_$$_INDEXWORD$formal$INT64$WORD$$INT64+0x80>
  401311:	66 0f 75 c1                                     	pcmpeqw %xmm1,%xmm0
  401315:	66 0f d7 c0                                     	pmovmskb %xmm0,%eax
  401319:	d3 e0                                           	shl    %cl,%eax
  40131b:	25 00 00 ff ff                                  	and    $0xffff0000,%eax
  401320:	d3 e8                                           	shr    %cl,%eax
  401322:	d1 e9                                           	shr    %ecx
  401324:	eb 1c                                           	jmp    401342 <SYSTEM_$$_INDEXWORD$formal$INT64$WORD$$INT64+0x62>
  401326:	66 66 66 90                                     	data16 data16 xchg %ax,%ax
  40132a:	66 66 66 90                                     	data16 data16 xchg %ax,%ax
  40132e:	66 90                                           	xchg   %ax,%ax
  401330:	66 41 0f 6f 04 48                               	movdqa (%r8,%rcx,2),%xmm0
  401336:	48 83 c1 08                                     	add    $0x8,%rcx
  40133a:	66 0f 75 c1                                     	pcmpeqw %xmm1,%xmm0
  40133e:	66 0f d7 c0                                     	pmovmskb %xmm0,%eax
  401342:	85 c0                                           	test   %eax,%eax
  401344:	75 0a                                           	jne    401350 <SYSTEM_$$_INDEXWORD$formal$INT64$WORD$$INT64+0x70>
  401346:	48 39 ca                                        	cmp    %rcx,%rdx
  401349:	77 e5                                           	ja     401330 <SYSTEM_$$_INDEXWORD$formal$INT64$WORD$$INT64+0x50>
  40134b:	48 83 c8 ff                                     	or     $0xffffffffffffffff,%rax
  40134f:	c3                                              	retq   
  401350:	0f bc c0                                        	bsf    %eax,%eax
  401353:	d1 e8                                           	shr    %eax
  401355:	48 8d 44 01 f8                                  	lea    -0x8(%rcx,%rax,1),%rax
  40135a:	48 39 c2                                        	cmp    %rax,%rdx
  40135d:	76 ec                                           	jbe    40134b <SYSTEM_$$_INDEXWORD$formal$INT64$WORD$$INT64+0x6b>
  40135f:	c3                                              	retq   
  401360:	66 0f 7f ca                                     	movdqa %xmm1,%xmm2
  401364:	66 0f 71 f1 08                                  	psllw  $0x8,%xmm1
  401369:	66 0f 71 d2 08                                  	psrlw  $0x8,%xmm2
  40136e:	66 0f eb ca                                     	por    %xmm2,%xmm1
  401372:	66 0f 74 c1                                     	pcmpeqb %xmm1,%xmm0
  401376:	66 0f d7 c0                                     	pmovmskb %xmm0,%eax
  40137a:	d3 e0                                           	shl    %cl,%eax
  40137c:	25 00 00 ff ff                                  	and    $0xffff0000,%eax
  401381:	d3 e8                                           	shr    %cl,%eax
  401383:	48 01 d2                                        	add    %rdx,%rdx
  401386:	45 31 d2                                        	xor    %r10d,%r10d
  401389:	eb 1b                                           	jmp    4013a6 <SYSTEM_$$_INDEXWORD$formal$INT64$WORD$$INT64+0xc6>
  40138b:	66 66 66 90                                     	data16 data16 xchg %ax,%ax
  40138f:	90                                              	nop
  401390:	66 41 0f 6f 04 08                               	movdqa (%r8,%rcx,1),%xmm0
  401396:	48 83 c1 10                                     	add    $0x10,%rcx
  40139a:	66 0f 74 c1                                     	pcmpeqb %xmm1,%xmm0
  40139e:	41 c1 ea 10                                     	shr    $0x10,%r10d
  4013a2:	66 0f d7 c0                                     	pmovmskb %xmm0,%eax
  4013a6:	d1 e0                                           	shl    %eax
  4013a8:	44 09 d0                                        	or     %r10d,%eax
  4013ab:	41 89 c2                                        	mov    %eax,%r10d
  4013ae:	d1 e8                                           	shr    %eax
  4013b0:	44 21 d0                                        	and    %r10d,%eax
  4013b3:	25 55 55 00 00                                  	and    $0x5555,%eax
  4013b8:	75 0a                                           	jne    4013c4 <SYSTEM_$$_INDEXWORD$formal$INT64$WORD$$INT64+0xe4>
  4013ba:	48 39 ca                                        	cmp    %rcx,%rdx
  4013bd:	77 d1                                           	ja     401390 <SYSTEM_$$_INDEXWORD$formal$INT64$WORD$$INT64+0xb0>
  4013bf:	48 83 c8 ff                                     	or     $0xffffffffffffffff,%rax
  4013c3:	c3                                              	retq   
  4013c4:	0f bc c0                                        	bsf    %eax,%eax
  4013c7:	48 8d 44 01 f0                                  	lea    -0x10(%rcx,%rax,1),%rax
  4013cc:	48 39 c2                                        	cmp    %rax,%rdx
  4013cf:	76 ee                                           	jbe    4013bf <SYSTEM_$$_INDEXWORD$formal$INT64$WORD$$INT64+0xdf>
  4013d1:	48 d1 f8                                        	sar    %rax
  4013d4:	c3                                              	retq   
	...

00000000004013e0 <SYSTEM_$$_COMPAREBYTE$formal$formal$INT64$$INT64>:
SYSTEM_$$_COMPAREBYTE$formal$formal$INT64$$INT64():
  4013e0:	49 89 d0                                        	mov    %rdx,%r8
  4013e3:	48 89 f2                                        	mov    %rsi,%rdx
  4013e6:	48 89 f9                                        	mov    %rdi,%rcx
  4013e9:	4d 85 c0                                        	test   %r8,%r8
  4013ec:	74 24                                           	je     401412 <SYSTEM_$$_COMPAREBYTE$formal$formal$INT64$$INT64+0x32>
  4013ee:	66 90                                           	xchg   %ax,%ax
  4013f0:	44 8a 09                                        	mov    (%rcx),%r9b
  4013f3:	44 3a 0a                                        	cmp    (%rdx),%r9b
  4013f6:	48 8d 49 01                                     	lea    0x1(%rcx),%rcx
  4013fa:	48 8d 52 01                                     	lea    0x1(%rdx),%rdx
  4013fe:	75 05                                           	jne    401405 <SYSTEM_$$_COMPAREBYTE$formal$formal$INT64$$INT64+0x25>
  401400:	49 ff c8                                        	dec    %r8
  401403:	75 eb                                           	jne    4013f0 <SYSTEM_$$_COMPAREBYTE$formal$formal$INT64$$INT64+0x10>
  401405:	4c 0f b6 42 ff                                  	movzbq -0x1(%rdx),%r8
  40140a:	49 0f b6 c1                                     	movzbq %r9b,%rax
  40140e:	4c 29 c0                                        	sub    %r8,%rax
  401411:	c3                                              	retq   
  401412:	48 b8 00 00 00 00 00 00 00 00                   	movabs $0x0,%rax
  40141c:	c3                                              	retq   
  40141d:	c3                                              	retq   
	...

0000000000401420 <SYSTEM_$$_DECLOCKED$LONGINT$$BOOLEAN>:
SYSTEM_$$_DECLOCKED$LONGINT$$BOOLEAN():
  401420:	48 8d 05 f9 23 22 00                            	lea    0x2223f9(%rip),%rax        # 623820 <TC_$SYSTEM_$$_ISMULTITHREAD>
  401427:	83 38 00                                        	cmpl   $0x0,(%rax)
  40142a:	48 89 f9                                        	mov    %rdi,%rcx
  40142d:	74 05                                           	je     401434 <SYSTEM_$$_DECLOCKED$LONGINT$$BOOLEAN+0x14>
  40142f:	f0 ff 09                                        	lock decl (%rcx)
  401432:	eb 02                                           	jmp    401436 <SYSTEM_$$_DECLOCKED$LONGINT$$BOOLEAN+0x16>
  401434:	ff 09                                           	decl   (%rcx)
  401436:	0f 94 c0                                        	sete   %al
  401439:	c3                                              	retq   
  40143a:	00 00                                           	add    %al,(%rax)
  40143c:	00 00                                           	add    %al,(%rax)
	...

0000000000401440 <SYSTEM_$$_DECLOCKED$INT64$$BOOLEAN>:
SYSTEM_$$_DECLOCKED$INT64$$BOOLEAN():
  401440:	48 8d 05 d9 23 22 00                            	lea    0x2223d9(%rip),%rax        # 623820 <TC_$SYSTEM_$$_ISMULTITHREAD>
  401447:	83 38 00                                        	cmpl   $0x0,(%rax)
  40144a:	48 89 f9                                        	mov    %rdi,%rcx
  40144d:	74 06                                           	je     401455 <SYSTEM_$$_DECLOCKED$INT64$$BOOLEAN+0x15>
  40144f:	f0 48 ff 09                                     	lock decq (%rcx)
  401453:	eb 03                                           	jmp    401458 <SYSTEM_$$_DECLOCKED$INT64$$BOOLEAN+0x18>
  401455:	48 ff 09                                        	decq   (%rcx)
  401458:	0f 94 c0                                        	sete   %al
  40145b:	c3                                              	retq   
  40145c:	00 00                                           	add    %al,(%rax)
	...

0000000000401460 <SYSTEM_$$_INCLOCKED$LONGINT>:
SYSTEM_$$_INCLOCKED$LONGINT():
  401460:	48 8d 05 b9 23 22 00                            	lea    0x2223b9(%rip),%rax        # 623820 <TC_$SYSTEM_$$_ISMULTITHREAD>
  401467:	83 38 00                                        	cmpl   $0x0,(%rax)
  40146a:	48 89 f9                                        	mov    %rdi,%rcx
  40146d:	74 05                                           	je     401474 <SYSTEM_$$_INCLOCKED$LONGINT+0x14>
  40146f:	f0 ff 01                                        	lock incl (%rcx)
  401472:	eb 02                                           	jmp    401476 <SYSTEM_$$_INCLOCKED$LONGINT+0x16>
  401474:	ff 01                                           	incl   (%rcx)
  401476:	c3                                              	retq   
	...

0000000000401480 <SYSTEM_$$_INCLOCKED$INT64>:
SYSTEM_$$_INCLOCKED$INT64():
  401480:	48 8d 05 99 23 22 00                            	lea    0x222399(%rip),%rax        # 623820 <TC_$SYSTEM_$$_ISMULTITHREAD>
  401487:	83 38 00                                        	cmpl   $0x0,(%rax)
  40148a:	48 89 f9                                        	mov    %rdi,%rcx
  40148d:	74 06                                           	je     401495 <SYSTEM_$$_INCLOCKED$INT64+0x15>
  40148f:	f0 48 ff 01                                     	lock incq (%rcx)
  401493:	eb 03                                           	jmp    401498 <SYSTEM_$$_INCLOCKED$INT64+0x18>
  401495:	48 ff 01                                        	incq   (%rcx)
  401498:	c3                                              	retq   
  401499:	00 00                                           	add    %al,(%rax)
  40149b:	00 00                                           	add    %al,(%rax)
  40149d:	00 00                                           	add    %al,(%rax)
	...

00000000004014a0 <SYSTEM_$$_INTERLOCKEDDECREMENT$LONGINT$$LONGINT>:
SYSTEM_$$_INTERLOCKEDDECREMENT$LONGINT$$LONGINT():
  4014a0:	48 89 f8                                        	mov    %rdi,%rax
  4014a3:	ba ff ff ff ff                                  	mov    $0xffffffff,%edx
  4014a8:	48 92                                           	xchg   %rax,%rdx
  4014aa:	f0 0f c1 02                                     	lock xadd %eax,(%rdx)
  4014ae:	ff c8                                           	dec    %eax
  4014b0:	c3                                              	retq   
	...

00000000004014c0 <SYSTEM_$$_INTERLOCKEDINCREMENT$LONGINT$$LONGINT>:
SYSTEM_$$_INTERLOCKEDINCREMENT$LONGINT$$LONGINT():
  4014c0:	48 89 f8                                        	mov    %rdi,%rax
  4014c3:	ba 01 00 00 00                                  	mov    $0x1,%edx
  4014c8:	48 92                                           	xchg   %rax,%rdx
  4014ca:	f0 0f c1 02                                     	lock xadd %eax,(%rdx)
  4014ce:	ff c0                                           	inc    %eax
  4014d0:	c3                                              	retq   
	...

00000000004014e0 <SYSTEM_$$_INTERLOCKEDEXCHANGE$LONGINT$LONGINT$$LONGINT>:
SYSTEM_$$_INTERLOCKEDEXCHANGE$LONGINT$LONGINT$$LONGINT():
  4014e0:	87 37                                           	xchg   %esi,(%rdi)
  4014e2:	89 f0                                           	mov    %esi,%eax
  4014e4:	c3                                              	retq   
	...

00000000004014f0 <SYSTEM_$$_INTERLOCKEDEXCHANGEADD$LONGINT$LONGINT$$LONGINT>:
SYSTEM_$$_INTERLOCKEDEXCHANGEADD$LONGINT$LONGINT$$LONGINT():
  4014f0:	48 87 f7                                        	xchg   %rsi,%rdi
  4014f3:	f0 0f c1 3e                                     	lock xadd %edi,(%rsi)
  4014f7:	89 f8                                           	mov    %edi,%eax
  4014f9:	c3                                              	retq   
  4014fa:	00 00                                           	add    %al,(%rax)
  4014fc:	00 00                                           	add    %al,(%rax)
	...

0000000000401500 <SYSTEM_$$_INTERLOCKEDCOMPAREEXCHANGE$LONGINT$LONGINT$LONGINT$$LONGINT>:
SYSTEM_$$_INTERLOCKEDCOMPAREEXCHANGE$LONGINT$LONGINT$LONGINT$$LONGINT():
  401500:	89 d0                                           	mov    %edx,%eax
  401502:	f0 0f b1 37                                     	lock cmpxchg %esi,(%rdi)
  401506:	c3                                              	retq   
	...

0000000000401510 <SYSTEM_$$_INTERLOCKEDDECREMENT64$INT64$$INT64>:
SYSTEM_$$_INTERLOCKEDDECREMENT64$INT64$$INT64():
  401510:	48 89 f8                                        	mov    %rdi,%rax
  401513:	48 ba ff ff ff ff ff ff ff ff                   	movabs $0xffffffffffffffff,%rdx
  40151d:	48 92                                           	xchg   %rax,%rdx
  40151f:	f0 48 0f c1 02                                  	lock xadd %rax,(%rdx)
  401524:	48 ff c8                                        	dec    %rax
  401527:	c3                                              	retq   
	...

0000000000401530 <SYSTEM_$$_INTERLOCKEDINCREMENT64$INT64$$INT64>:
SYSTEM_$$_INTERLOCKEDINCREMENT64$INT64$$INT64():
  401530:	48 89 f8                                        	mov    %rdi,%rax
  401533:	48 ba 01 00 00 00 00 00 00 00                   	movabs $0x1,%rdx
  40153d:	48 92                                           	xchg   %rax,%rdx
  40153f:	f0 48 0f c1 02                                  	lock xadd %rax,(%rdx)
  401544:	48 ff c0                                        	inc    %rax
  401547:	c3                                              	retq   
	...

0000000000401550 <SYSTEM_$$_INTERLOCKEDEXCHANGE64$INT64$INT64$$INT64>:
SYSTEM_$$_INTERLOCKEDEXCHANGE64$INT64$INT64$$INT64():
  401550:	48 87 37                                        	xchg   %rsi,(%rdi)
  401553:	48 89 f0                                        	mov    %rsi,%rax
  401556:	c3                                              	retq   
	...

0000000000401560 <SYSTEM_$$_INTERLOCKEDEXCHANGEADD64$INT64$INT64$$INT64>:
SYSTEM_$$_INTERLOCKEDEXCHANGEADD64$INT64$INT64$$INT64():
  401560:	48 87 f7                                        	xchg   %rsi,%rdi
  401563:	f0 48 0f c1 3e                                  	lock xadd %rdi,(%rsi)
  401568:	48 89 f8                                        	mov    %rdi,%rax
  40156b:	c3                                              	retq   
  40156c:	00 00                                           	add    %al,(%rax)
	...

0000000000401570 <SYSTEM_$$_INTERLOCKEDCOMPAREEXCHANGE64$INT64$INT64$INT64$$INT64>:
SYSTEM_$$_INTERLOCKEDCOMPAREEXCHANGE64$INT64$INT64$INT64$$INT64():
  401570:	48 89 d0                                        	mov    %rdx,%rax
  401573:	f0 48 0f b1 37                                  	lock cmpxchg %rsi,(%rdi)
  401578:	c3                                              	retq   
  401579:	00 00                                           	add    %al,(%rax)
  40157b:	00 00                                           	add    %al,(%rax)
  40157d:	00 00                                           	add    %al,(%rax)
	...

0000000000401580 <SYSTEM_$$_FPC_CPUINIT>:
SYSTEM_$$_FPC_CPUINIT():
  401580:	48 8d 64 24 f8                                  	lea    -0x8(%rsp),%rsp
  401585:	48 8d 05 04 23 22 00                            	lea    0x222304(%rip),%rax        # 623890 <operatingsystem_islibrary>
  40158c:	80 38 00                                        	cmpb   $0x0,(%rax)
  40158f:	74 1d                                           	je     4015ae <SYSTEM_$$_FPC_CPUINIT+0x2e>
  401591:	e8 4a 1e 00 00                                  	callq  4033e0 <SYSTEM_$$_GET8087CW$$WORD>
  401596:	48 8d 15 43 23 22 00                            	lea    0x222343(%rip),%rdx        # 6238e0 <TC_$SYSTEM_$$_DEFAULT8087CW>
  40159d:	66 89 02                                        	mov    %ax,(%rdx)
  4015a0:	e8 7b 1e 00 00                                  	callq  403420 <SYSTEM_$$_GETMXCSR$$LONGWORD>
  4015a5:	48 8d 15 44 23 22 00                            	lea    0x222344(%rip),%rdx        # 6238f0 <TC_$SYSTEM_$$_DEFAULTMXCSR>
  4015ac:	89 02                                           	mov    %eax,(%rdx)
  4015ae:	e8 1d 00 00 00                                  	callq  4015d0 <SYSTEM_$$_SYSRESETFPU>
  4015b3:	48 8d 64 24 08                                  	lea    0x8(%rsp),%rsp
  4015b8:	c3                                              	retq   
  4015b9:	00 00                                           	add    %al,(%rax)
  4015bb:	00 00                                           	add    %al,(%rax)
  4015bd:	00 00                                           	add    %al,(%rax)
	...

00000000004015c0 <SYSTEM_$$_SYSINITFPU>:
SYSTEM_$$_SYSINITFPU():
  4015c0:	c3                                              	retq   
	...

00000000004015d0 <SYSTEM_$$_SYSRESETFPU>:
SYSTEM_$$_SYSRESETFPU():
  4015d0:	55                                              	push   %rbp
  4015d1:	48 89 e5                                        	mov    %rsp,%rbp
  4015d4:	48 8d 64 24 f0                                  	lea    -0x10(%rsp),%rsp
  4015d9:	48 8d 05 00 23 22 00                            	lea    0x222300(%rip),%rax        # 6238e0 <TC_$SYSTEM_$$_DEFAULT8087CW>
  4015e0:	66 8b 00                                        	mov    (%rax),%ax
  4015e3:	66 89 45 f8                                     	mov    %ax,-0x8(%rbp)
  4015e7:	48 8d 05 02 23 22 00                            	lea    0x222302(%rip),%rax        # 6238f0 <TC_$SYSTEM_$$_DEFAULTMXCSR>
  4015ee:	8b 00                                           	mov    (%rax),%eax
  4015f0:	89 45 fc                                        	mov    %eax,-0x4(%rbp)
  4015f3:	db e3                                           	fninit 
  4015f5:	9b d9 6d f8                                     	fldcw  -0x8(%rbp)
  4015f9:	0f ae 55 fc                                     	ldmxcsr -0x4(%rbp)
  4015fd:	c9                                              	leaveq 
  4015fe:	c3                                              	retq   
	...

0000000000401600 <SYSTEM_$$_READBARRIER>:
SYSTEM_$$_READBARRIER():
  401600:	0f ae e8                                        	lfence 
  401603:	c3                                              	retq   
	...

0000000000401610 <SYSTEM_$$_READDEPENDENCYBARRIER>:
SYSTEM_$$_READDEPENDENCYBARRIER():
  401610:	c3                                              	retq   
	...

0000000000401620 <SYSTEM_$$_READWRITEBARRIER>:
SYSTEM_$$_READWRITEBARRIER():
  401620:	0f ae f0                                        	mfence 
  401623:	c3                                              	retq   
	...

0000000000401630 <SYSTEM_$$_WRITEBARRIER>:
SYSTEM_$$_WRITEBARRIER():
  401630:	0f ae f8                                        	sfence 
  401633:	c3                                              	retq   
	...

0000000000401640 <SYSTEM_$$_SWAPENDIAN$SMALLINT$$SMALLINT>:
SYSTEM_$$_SWAPENDIAN$SMALLINT$$SMALLINT():
  401640:	66 89 f8                                        	mov    %di,%ax
  401643:	25 ff ff 00 00                                  	and    $0xffff,%eax
  401648:	89 c2                                           	mov    %eax,%edx
  40164a:	c1 ea 08                                        	shr    $0x8,%edx
  40164d:	c1 e0 08                                        	shl    $0x8,%eax
  401650:	09 d0                                           	or     %edx,%eax
  401652:	0f bf c0                                        	movswl %ax,%eax
  401655:	c3                                              	retq   
	...

0000000000401660 <SYSTEM_$$_SWAPENDIAN$WORD$$WORD>:
SYSTEM_$$_SWAPENDIAN$WORD$$WORD():
  401660:	66 89 f8                                        	mov    %di,%ax
  401663:	25 ff ff 00 00                                  	and    $0xffff,%eax
  401668:	89 c2                                           	mov    %eax,%edx
  40166a:	c1 ea 08                                        	shr    $0x8,%edx
  40166d:	c1 e0 08                                        	shl    $0x8,%eax
  401670:	09 d0                                           	or     %edx,%eax
  401672:	25 ff ff 00 00                                  	and    $0xffff,%eax
  401677:	c3                                              	retq   
	...

0000000000401680 <SYSTEM_$$_SWAPENDIAN$LONGINT$$LONGINT>:
SYSTEM_$$_SWAPENDIAN$LONGINT$$LONGINT():
  401680:	89 f8                                           	mov    %edi,%eax
  401682:	0f c8                                           	bswap  %eax
  401684:	c3                                              	retq   
	...

0000000000401690 <SYSTEM_$$_SWAPENDIAN$LONGWORD$$LONGWORD>:
SYSTEM_$$_SWAPENDIAN$LONGWORD$$LONGWORD():
  401690:	89 f8                                           	mov    %edi,%eax
  401692:	0f c8                                           	bswap  %eax
  401694:	c3                                              	retq   
	...

00000000004016a0 <SYSTEM_$$_SWAPENDIAN$INT64$$INT64>:
SYSTEM_$$_SWAPENDIAN$INT64$$INT64():
  4016a0:	48 89 f8                                        	mov    %rdi,%rax
  4016a3:	48 0f c8                                        	bswap  %rax
  4016a6:	c3                                              	retq   
	...

00000000004016b0 <SYSTEM_$$_SWAPENDIAN$QWORD$$QWORD>:
SYSTEM_$$_SWAPENDIAN$QWORD$$QWORD():
  4016b0:	48 89 f8                                        	mov    %rdi,%rax
  4016b3:	48 0f c8                                        	bswap  %rax
  4016b6:	c3                                              	retq   
	...

00000000004016c0 <SYSTEM_$$_FILLCHAR$formal$INT64$BOOLEAN>:
SYSTEM_$$_FILLCHAR$formal$INT64$BOOLEAN():
  4016c0:	48 8d 64 24 f8                                  	lea    -0x8(%rsp),%rsp
  4016c5:	48 89 f8                                        	mov    %rdi,%rax
  4016c8:	48 89 c7                                        	mov    %rax,%rdi
  4016cb:	81 e2 ff 00 00 00                               	and    $0xff,%edx
  4016d1:	e8 6a fa ff ff                                  	callq  401140 <SYSTEM_$$_FILLCHAR$formal$INT64$BYTE>
  4016d6:	48 8d 64 24 08                                  	lea    0x8(%rsp),%rsp
  4016db:	c3                                              	retq   
  4016dc:	00 00                                           	add    %al,(%rax)
	...

00000000004016e0 <SYSTEM_$$_FILLCHAR$formal$INT64$CHAR>:
SYSTEM_$$_FILLCHAR$formal$INT64$CHAR():
  4016e0:	48 8d 64 24 f8                                  	lea    -0x8(%rsp),%rsp
  4016e5:	48 89 f8                                        	mov    %rdi,%rax
  4016e8:	48 89 c7                                        	mov    %rax,%rdi
  4016eb:	81 e2 ff 00 00 00                               	and    $0xff,%edx
  4016f1:	e8 4a fa ff ff                                  	callq  401140 <SYSTEM_$$_FILLCHAR$formal$INT64$BYTE>
  4016f6:	48 8d 64 24 08                                  	lea    0x8(%rsp),%rsp
  4016fb:	c3                                              	retq   
  4016fc:	00 00                                           	add    %al,(%rax)
	...

0000000000401700 <SYSTEM_$$_FILLBYTE$formal$INT64$BYTE>:
SYSTEM_$$_FILLBYTE$formal$INT64$BYTE():
  401700:	48 8d 64 24 f8                                  	lea    -0x8(%rsp),%rsp
  401705:	48 89 f8                                        	mov    %rdi,%rax
  401708:	48 89 c7                                        	mov    %rax,%rdi
  40170b:	81 e2 ff 00 00 00                               	and    $0xff,%edx
  401711:	e8 2a fa ff ff                                  	callq  401140 <SYSTEM_$$_FILLCHAR$formal$INT64$BYTE>
  401716:	48 8d 64 24 08                                  	lea    0x8(%rsp),%rsp
  40171b:	c3                                              	retq   
  40171c:	00 00                                           	add    %al,(%rax)
	...

0000000000401720 <SYSTEM_$$_INDEXCHAR$formal$INT64$CHAR$$INT64>:
SYSTEM_$$_INDEXCHAR$formal$INT64$CHAR$$INT64():
  401720:	48 8d 64 24 f8                                  	lea    -0x8(%rsp),%rsp
  401725:	81 e2 ff 00 00 00                               	and    $0xff,%edx
  40172b:	e8 30 fb ff ff                                  	callq  401260 <SYSTEM_$$_INDEXBYTE$formal$INT64$BYTE$$INT64>
  401730:	48 8d 64 24 08                                  	lea    0x8(%rsp),%rsp
  401735:	c3                                              	retq   
	...

0000000000401740 <SYSTEM_$$_COMPARECHAR$formal$formal$INT64$$INT64>:
SYSTEM_$$_COMPARECHAR$formal$formal$INT64$$INT64():
  401740:	48 8d 64 24 f8                                  	lea    -0x8(%rsp),%rsp
  401745:	e8 96 fc ff ff                                  	callq  4013e0 <SYSTEM_$$_COMPAREBYTE$formal$formal$INT64$$INT64>
  40174a:	48 8d 64 24 08                                  	lea    0x8(%rsp),%rsp
  40174f:	c3                                              	retq   

0000000000401750 <fpc_zeromem>:
fpc_zeromem():
  401750:	48 8d 64 24 f8                                  	lea    -0x8(%rsp),%rsp
  401755:	48 89 f8                                        	mov    %rdi,%rax
  401758:	48 89 c7                                        	mov    %rax,%rdi
  40175b:	ba 00 00 00 00                                  	mov    $0x0,%edx
  401760:	e8 db f9 ff ff                                  	callq  401140 <SYSTEM_$$_FILLCHAR$formal$INT64$BYTE>
  401765:	48 8d 64 24 08                                  	lea    0x8(%rsp),%rsp
  40176a:	c3                                              	retq   
  40176b:	00 00                                           	add    %al,(%rax)
  40176d:	00 00                                           	add    %al,(%rax)
	...

0000000000401770 <fpc_fillmem>:
fpc_fillmem():
  401770:	48 8d 64 24 f8                                  	lea    -0x8(%rsp),%rsp
  401775:	48 89 f8                                        	mov    %rdi,%rax
  401778:	48 89 c7                                        	mov    %rax,%rdi
  40177b:	81 e2 ff 00 00 00                               	and    $0xff,%edx
  401781:	e8 7a ff ff ff                                  	callq  401700 <SYSTEM_$$_FILLBYTE$formal$INT64$BYTE>
  401786:	48 8d 64 24 08                                  	lea    0x8(%rsp),%rsp
  40178b:	c3                                              	retq   
  40178c:	00 00                                           	add    %al,(%rax)
	...

0000000000401790 <SYSTEM_$$_FPC_SHORTSTR_SHORTSTR_INTERN_CHARMOVE$SHORTSTRING$BYTE$OPENSTRING$BYTE$BYTE>:
SYSTEM_$$_FPC_SHORTSTR_SHORTSTR_INTERN_CHARMOVE$SHORTSTRING$BYTE$OPENSTRING$BYTE$BYTE():
  401790:	48 8d 64 24 f8                                  	lea    -0x8(%rsp),%rsp
  401795:	48 89 f8                                        	mov    %rdi,%rax
  401798:	40 88 f7                                        	mov    %sil,%dil
  40179b:	48 89 d6                                        	mov    %rdx,%rsi
  40179e:	44 88 ca                                        	mov    %r9b,%dl
  4017a1:	41 81 e0 ff 00 00 00                            	and    $0xff,%r8d
  4017a8:	4a 8d 34 06                                     	lea    (%rsi,%r8,1),%rsi
  4017ac:	81 e7 ff 00 00 00                               	and    $0xff,%edi
  4017b2:	48 8d 3c 38                                     	lea    (%rax,%rdi,1),%rdi
  4017b6:	81 e2 ff 00 00 00                               	and    $0xff,%edx
  4017bc:	e8 6f f6 ff ff                                  	callq  400e30 <SYSTEM_$$_MOVE$formal$formal$INT64>
  4017c1:	48 8d 64 24 08                                  	lea    0x8(%rsp),%rsp
  4017c6:	c3                                              	retq   
	...

00000000004017d0 <SYSTEM_$$_FPC_SHORTSTR_CHARARRAY_INTERN_CHARMOVE$SHORTSTRING$array_of_CHAR$INT64>:
SYSTEM_$$_FPC_SHORTSTR_CHARARRAY_INTERN_CHARMOVE$SHORTSTRING$array_of_CHAR$INT64():
  4017d0:	55                                              	push   %rbp
  4017d1:	48 89 e5                                        	mov    %rsp,%rbp
  4017d4:	48 89 f8                                        	mov    %rdi,%rax
  4017d7:	48 89 ca                                        	mov    %rcx,%rdx
  4017da:	48 8d 78 01                                     	lea    0x1(%rax),%rdi
  4017de:	e8 4d f6 ff ff                                  	callq  400e30 <SYSTEM_$$_MOVE$formal$formal$INT64>
  4017e3:	c9                                              	leaveq 
  4017e4:	c3                                              	retq   
	...

00000000004017f0 <SYSTEM_$$_FILLWORD$formal$INT64$WORD>:
SYSTEM_$$_FILLWORD$formal$INT64$WORD():
  4017f0:	48 83 fe 00                                     	cmp    $0x0,%rsi
  4017f4:	0f 8e a2 00 00 00                               	jle    40189c <SYSTEM_$$_FILLWORD$formal$INT64$WORD+0xac>
  4017fa:	48 83 fe 1f                                     	cmp    $0x1f,%rsi
  4017fe:	0f 8e 80 00 00 00                               	jle    401884 <SYSTEM_$$_FILLWORD$formal$INT64$WORD+0x94>
  401804:	0f b7 ca                                        	movzwl %dx,%ecx
  401807:	89 c8                                           	mov    %ecx,%eax
  401809:	c1 e0 10                                        	shl    $0x10,%eax
  40180c:	09 c1                                           	or     %eax,%ecx
  40180e:	81 e1 ff ff ff ff                               	and    $0xffffffff,%ecx
  401814:	48 89 c8                                        	mov    %rcx,%rax
  401817:	48 c1 e0 20                                     	shl    $0x20,%rax
  40181b:	49 89 c8                                        	mov    %rcx,%r8
  40181e:	49 09 c0                                        	or     %rax,%r8
  401821:	4c 89 c1                                        	mov    %r8,%rcx
  401824:	48 89 f8                                        	mov    %rdi,%rax
  401827:	48 83 e0 07                                     	and    $0x7,%rax
  40182b:	48 d1 e8                                        	shr    %rax
  40182e:	48 29 c6                                        	sub    %rax,%rsi
  401831:	48 d1 e0                                        	shl    %rax
  401834:	48 8d 04 38                                     	lea    (%rax,%rdi,1),%rax
  401838:	eb 0d                                           	jmp    401847 <SYSTEM_$$_FILLWORD$formal$INT64$WORD+0x57>
  40183a:	66 66 66 90                                     	data16 data16 xchg %ax,%ax
  40183e:	66 90                                           	xchg   %ax,%ax
  401840:	66 89 17                                        	mov    %dx,(%rdi)
  401843:	48 83 c7 02                                     	add    $0x2,%rdi
  401847:	48 39 c7                                        	cmp    %rax,%rdi
  40184a:	72 f4                                           	jb     401840 <SYSTEM_$$_FILLWORD$formal$INT64$WORD+0x50>
  40184c:	49 89 f0                                        	mov    %rsi,%r8
  40184f:	49 d1 e0                                        	shl    %r8
  401852:	49 c1 e8 03                                     	shr    $0x3,%r8
  401856:	49 c1 e0 03                                     	shl    $0x3,%r8
  40185a:	4d 8d 04 38                                     	lea    (%r8,%rdi,1),%r8
  40185e:	4c 89 c0                                        	mov    %r8,%rax
  401861:	eb 0c                                           	jmp    40186f <SYSTEM_$$_FILLWORD$formal$INT64$WORD+0x7f>
  401863:	66 66 66 90                                     	data16 data16 xchg %ax,%ax
  401867:	90                                              	nop
  401868:	48 89 0f                                        	mov    %rcx,(%rdi)
  40186b:	48 83 c7 08                                     	add    $0x8,%rdi
  40186f:	48 39 c7                                        	cmp    %rax,%rdi
  401872:	72 f4                                           	jb     401868 <SYSTEM_$$_FILLWORD$formal$INT64$WORD+0x78>
  401874:	48 89 f0                                        	mov    %rsi,%rax
  401877:	48 d1 e0                                        	shl    %rax
  40187a:	48 83 e0 07                                     	and    $0x7,%rax
  40187e:	48 d1 e8                                        	shr    %rax
  401881:	48 89 c6                                        	mov    %rax,%rsi
  401884:	48 d1 e6                                        	shl    %rsi
  401887:	48 8d 04 3e                                     	lea    (%rsi,%rdi,1),%rax
  40188b:	eb 0a                                           	jmp    401897 <SYSTEM_$$_FILLWORD$formal$INT64$WORD+0xa7>
  40188d:	66 66 90                                        	data16 xchg %ax,%ax
  401890:	66 89 17                                        	mov    %dx,(%rdi)
  401893:	48 83 c7 02                                     	add    $0x2,%rdi
  401897:	48 39 c7                                        	cmp    %rax,%rdi
  40189a:	72 f4                                           	jb     401890 <SYSTEM_$$_FILLWORD$formal$INT64$WORD+0xa0>
  40189c:	c3                                              	retq   
  40189d:	00 00                                           	add    %al,(%rax)
	...

00000000004018a0 <SYSTEM_$$_FILLDWORD$formal$INT64$LONGWORD>:
SYSTEM_$$_FILLDWORD$formal$INT64$LONGWORD():
  4018a0:	48 83 fe 00                                     	cmp    $0x0,%rsi
  4018a4:	0f 8e 99 00 00 00                               	jle    401943 <SYSTEM_$$_FILLDWORD$formal$INT64$LONGWORD+0xa3>
  4018aa:	48 83 fe 1f                                     	cmp    $0x1f,%rsi
  4018ae:	0f 8e 7a 00 00 00                               	jle    40192e <SYSTEM_$$_FILLDWORD$formal$INT64$LONGWORD+0x8e>
  4018b4:	89 d1                                           	mov    %edx,%ecx
  4018b6:	81 e1 ff ff ff ff                               	and    $0xffffffff,%ecx
  4018bc:	48 89 c8                                        	mov    %rcx,%rax
  4018bf:	48 c1 e0 20                                     	shl    $0x20,%rax
  4018c3:	49 89 c8                                        	mov    %rcx,%r8
  4018c6:	49 09 c0                                        	or     %rax,%r8
  4018c9:	4c 89 c1                                        	mov    %r8,%rcx
  4018cc:	48 89 f8                                        	mov    %rdi,%rax
  4018cf:	48 83 e0 07                                     	and    $0x7,%rax
  4018d3:	48 c1 e8 02                                     	shr    $0x2,%rax
  4018d7:	48 29 c6                                        	sub    %rax,%rsi
  4018da:	48 c1 e0 02                                     	shl    $0x2,%rax
  4018de:	48 8d 04 38                                     	lea    (%rax,%rdi,1),%rax
  4018e2:	eb 0a                                           	jmp    4018ee <SYSTEM_$$_FILLDWORD$formal$INT64$LONGWORD+0x4e>
  4018e4:	66 66 66 90                                     	data16 data16 xchg %ax,%ax
  4018e8:	89 17                                           	mov    %edx,(%rdi)
  4018ea:	48 83 c7 04                                     	add    $0x4,%rdi
  4018ee:	48 39 c7                                        	cmp    %rax,%rdi
  4018f1:	72 f5                                           	jb     4018e8 <SYSTEM_$$_FILLDWORD$formal$INT64$LONGWORD+0x48>
  4018f3:	49 89 f0                                        	mov    %rsi,%r8
  4018f6:	49 c1 e0 02                                     	shl    $0x2,%r8
  4018fa:	49 c1 e8 03                                     	shr    $0x3,%r8
  4018fe:	49 c1 e0 03                                     	shl    $0x3,%r8
  401902:	4d 8d 04 38                                     	lea    (%r8,%rdi,1),%r8
  401906:	4c 89 c0                                        	mov    %r8,%rax
  401909:	eb 0c                                           	jmp    401917 <SYSTEM_$$_FILLDWORD$formal$INT64$LONGWORD+0x77>
  40190b:	66 66 66 90                                     	data16 data16 xchg %ax,%ax
  40190f:	90                                              	nop
  401910:	48 89 0f                                        	mov    %rcx,(%rdi)
  401913:	48 83 c7 08                                     	add    $0x8,%rdi
  401917:	48 39 c7                                        	cmp    %rax,%rdi
  40191a:	72 f4                                           	jb     401910 <SYSTEM_$$_FILLDWORD$formal$INT64$LONGWORD+0x70>
  40191c:	48 89 f0                                        	mov    %rsi,%rax
  40191f:	48 c1 e0 02                                     	shl    $0x2,%rax
  401923:	48 83 e0 07                                     	and    $0x7,%rax
  401927:	48 c1 e8 02                                     	shr    $0x2,%rax
  40192b:	48 89 c6                                        	mov    %rax,%rsi
  40192e:	48 c1 e6 02                                     	shl    $0x2,%rsi
  401932:	48 8d 04 3e                                     	lea    (%rsi,%rdi,1),%rax
  401936:	eb 06                                           	jmp    40193e <SYSTEM_$$_FILLDWORD$formal$INT64$LONGWORD+0x9e>
  401938:	89 17                                           	mov    %edx,(%rdi)
  40193a:	48 83 c7 04                                     	add    $0x4,%rdi
  40193e:	48 39 c7                                        	cmp    %rax,%rdi
  401941:	72 f5                                           	jb     401938 <SYSTEM_$$_FILLDWORD$formal$INT64$LONGWORD+0x98>
  401943:	c3                                              	retq   
	...

0000000000401950 <SYSTEM_$$_FILLQWORD$formal$INT64$QWORD>:
SYSTEM_$$_FILLQWORD$formal$INT64$QWORD():
  401950:	48 83 fe 00                                     	cmp    $0x0,%rsi
  401954:	7e 16                                           	jle    40196c <SYSTEM_$$_FILLQWORD$formal$INT64$QWORD+0x1c>
  401956:	48 c1 e6 03                                     	shl    $0x3,%rsi
  40195a:	48 8d 04 3e                                     	lea    (%rsi,%rdi,1),%rax
  40195e:	eb 07                                           	jmp    401967 <SYSTEM_$$_FILLQWORD$formal$INT64$QWORD+0x17>
  401960:	48 89 17                                        	mov    %rdx,(%rdi)
  401963:	48 83 c7 08                                     	add    $0x8,%rdi
  401967:	48 39 c7                                        	cmp    %rax,%rdi
  40196a:	72 f4                                           	jb     401960 <SYSTEM_$$_FILLQWORD$formal$INT64$QWORD+0x10>
  40196c:	c3                                              	retq   
  40196d:	00 00                                           	add    %al,(%rax)
	...

0000000000401970 <SYSTEM_$$_INDEXDWORD$formal$INT64$LONGWORD$$INT64>:
SYSTEM_$$_INDEXDWORD$formal$INT64$LONGWORD$$INT64():
  401970:	48 89 f9                                        	mov    %rdi,%rcx
  401973:	48 83 fe 00                                     	cmp    $0x0,%rsi
  401977:	7c 1f                                           	jl     401998 <SYSTEM_$$_INDEXDWORD$formal$INT64$LONGWORD$$INT64+0x28>
  401979:	48 b8 ff ff ff ff ff ff ff 3f                   	movabs $0x3fffffffffffffff,%rax
  401983:	48 39 c6                                        	cmp    %rax,%rsi
  401986:	7f 10                                           	jg     401998 <SYSTEM_$$_INDEXDWORD$formal$INT64$LONGWORD$$INT64+0x28>
  401988:	48 89 f0                                        	mov    %rsi,%rax
  40198b:	48 c1 e0 02                                     	shl    $0x2,%rax
  40198f:	48 8d 04 08                                     	lea    (%rax,%rcx,1),%rax
  401993:	48 39 c8                                        	cmp    %rcx,%rax
  401996:	73 0c                                           	jae    4019a4 <SYSTEM_$$_INDEXDWORD$formal$INT64$LONGWORD$$INT64+0x34>
  401998:	49 b8 fb ff ff ff ff ff ff ff                   	movabs $0xfffffffffffffffb,%r8
  4019a2:	eb 3e                                           	jmp    4019e2 <SYSTEM_$$_INDEXDWORD$formal$INT64$LONGWORD$$INT64+0x72>
  4019a4:	48 c1 e6 02                                     	shl    $0x2,%rsi
  4019a8:	48 8d 04 0e                                     	lea    (%rsi,%rcx,1),%rax
  4019ac:	49 89 c0                                        	mov    %rax,%r8
  4019af:	eb 31                                           	jmp    4019e2 <SYSTEM_$$_INDEXDWORD$formal$INT64$LONGWORD$$INT64+0x72>
  4019b1:	66 66 66 90                                     	data16 data16 xchg %ax,%ax
  4019b5:	66 66 90                                        	data16 xchg %ax,%ax
  4019b8:	8b 31                                           	mov    (%rcx),%esi
  4019ba:	39 d6                                           	cmp    %edx,%esi
  4019bc:	75 20                                           	jne    4019de <SYSTEM_$$_INDEXDWORD$formal$INT64$LONGWORD$$INT64+0x6e>
  4019be:	48 89 fe                                        	mov    %rdi,%rsi
  4019c1:	49 89 c9                                        	mov    %rcx,%r9
  4019c4:	49 29 f1                                        	sub    %rsi,%r9
  4019c7:	4c 89 ce                                        	mov    %r9,%rsi
  4019ca:	48 c1 fe 3f                                     	sar    $0x3f,%rsi
  4019ce:	48 83 e6 03                                     	and    $0x3,%rsi
  4019d2:	49 01 f1                                        	add    %rsi,%r9
  4019d5:	49 c1 f9 02                                     	sar    $0x2,%r9
  4019d9:	4c 89 c8                                        	mov    %r9,%rax
  4019dc:	eb 13                                           	jmp    4019f1 <SYSTEM_$$_INDEXDWORD$formal$INT64$LONGWORD$$INT64+0x81>
  4019de:	48 83 c1 04                                     	add    $0x4,%rcx
  4019e2:	4c 39 c1                                        	cmp    %r8,%rcx
  4019e5:	72 d1                                           	jb     4019b8 <SYSTEM_$$_INDEXDWORD$formal$INT64$LONGWORD$$INT64+0x48>
  4019e7:	48 b8 ff ff ff ff ff ff ff ff                   	movabs $0xffffffffffffffff,%rax
  4019f1:	c3                                              	retq   
	...

0000000000401a00 <SYSTEM_$$_INDEXQWORD$formal$INT64$QWORD$$INT64>:
SYSTEM_$$_INDEXQWORD$formal$INT64$QWORD$$INT64():
  401a00:	48 89 f9                                        	mov    %rdi,%rcx
  401a03:	48 83 fe 00                                     	cmp    $0x0,%rsi
  401a07:	7c 1f                                           	jl     401a28 <SYSTEM_$$_INDEXQWORD$formal$INT64$QWORD$$INT64+0x28>
  401a09:	48 b8 ff ff ff ff ff ff ff 1f                   	movabs $0x1fffffffffffffff,%rax
  401a13:	48 39 c6                                        	cmp    %rax,%rsi
  401a16:	7f 10                                           	jg     401a28 <SYSTEM_$$_INDEXQWORD$formal$INT64$QWORD$$INT64+0x28>
  401a18:	48 89 f0                                        	mov    %rsi,%rax
  401a1b:	48 c1 e0 03                                     	shl    $0x3,%rax
  401a1f:	48 8d 04 08                                     	lea    (%rax,%rcx,1),%rax
  401a23:	48 39 c8                                        	cmp    %rcx,%rax
  401a26:	73 0c                                           	jae    401a34 <SYSTEM_$$_INDEXQWORD$formal$INT64$QWORD$$INT64+0x34>
  401a28:	49 b8 f7 ff ff ff ff ff ff ff                   	movabs $0xfffffffffffffff7,%r8
  401a32:	eb 40                                           	jmp    401a74 <SYSTEM_$$_INDEXQWORD$formal$INT64$QWORD$$INT64+0x74>
  401a34:	48 c1 e6 03                                     	shl    $0x3,%rsi
  401a38:	48 8d 04 0e                                     	lea    (%rsi,%rcx,1),%rax
  401a3c:	49 89 c0                                        	mov    %rax,%r8
  401a3f:	eb 33                                           	jmp    401a74 <SYSTEM_$$_INDEXQWORD$formal$INT64$QWORD$$INT64+0x74>
  401a41:	66 66 66 90                                     	data16 data16 xchg %ax,%ax
  401a45:	66 66 90                                        	data16 xchg %ax,%ax
  401a48:	48 8b 31                                        	mov    (%rcx),%rsi
  401a4b:	48 39 d6                                        	cmp    %rdx,%rsi
  401a4e:	75 20                                           	jne    401a70 <SYSTEM_$$_INDEXQWORD$formal$INT64$QWORD$$INT64+0x70>
  401a50:	48 89 fe                                        	mov    %rdi,%rsi
  401a53:	49 89 c9                                        	mov    %rcx,%r9
  401a56:	49 29 f1                                        	sub    %rsi,%r9
  401a59:	4c 89 ce                                        	mov    %r9,%rsi
  401a5c:	48 c1 fe 3f                                     	sar    $0x3f,%rsi
  401a60:	48 83 e6 07                                     	and    $0x7,%rsi
  401a64:	49 01 f1                                        	add    %rsi,%r9
  401a67:	49 c1 f9 03                                     	sar    $0x3,%r9
  401a6b:	4c 89 c8                                        	mov    %r9,%rax
  401a6e:	eb 13                                           	jmp    401a83 <SYSTEM_$$_INDEXQWORD$formal$INT64$QWORD$$INT64+0x83>
  401a70:	48 83 c1 08                                     	add    $0x8,%rcx
  401a74:	4c 39 c1                                        	cmp    %r8,%rcx
  401a77:	72 cf                                           	jb     401a48 <SYSTEM_$$_INDEXQWORD$formal$INT64$QWORD$$INT64+0x48>
  401a79:	48 b8 ff ff ff ff ff ff ff ff                   	movabs $0xffffffffffffffff,%rax
  401a83:	c3                                              	retq   
	...

0000000000401a90 <SYSTEM_$$_COMPAREWORD$formal$formal$INT64$$INT64>:
SYSTEM_$$_COMPAREWORD$formal$formal$INT64$$INT64():
  401a90:	49 b8 00 00 00 00 00 00 00 00                   	movabs $0x0,%r8
  401a9a:	48 83 fa 1f                                     	cmp    $0x1f,%rdx
  401a9e:	0f 8e c6 00 00 00                               	jle    401b6a <SYSTEM_$$_COMPAREWORD$formal$formal$INT64$$INT64+0xda>
  401aa4:	48 89 f0                                        	mov    %rsi,%rax
  401aa7:	48 83 e0 07                                     	and    $0x7,%rax
  401aab:	48 b9 08 00 00 00 00 00 00 00                   	movabs $0x8,%rcx
  401ab5:	48 29 c1                                        	sub    %rax,%rcx
  401ab8:	48 83 e1 07                                     	and    $0x7,%rcx
  401abc:	48 d1 e9                                        	shr    %rcx
  401abf:	48 29 ca                                        	sub    %rcx,%rdx
  401ac2:	48 d1 e1                                        	shl    %rcx
  401ac5:	48 8d 0c 39                                     	lea    (%rcx,%rdi,1),%rcx
  401ac9:	eb 44                                           	jmp    401b0f <SYSTEM_$$_COMPAREWORD$formal$formal$INT64$$INT64+0x7f>
  401acb:	66 66 66 90                                     	data16 data16 xchg %ax,%ax
  401acf:	90                                              	nop
  401ad0:	44 0f b7 0f                                     	movzwl (%rdi),%r9d
  401ad4:	44 0f b7 16                                     	movzwl (%rsi),%r10d
  401ad8:	4d 29 d1                                        	sub    %r10,%r9
  401adb:	4d 89 c8                                        	mov    %r9,%r8
  401ade:	4d 85 c0                                        	test   %r8,%r8
  401ae1:	74 24                                           	je     401b07 <SYSTEM_$$_COMPAREWORD$formal$formal$INT64$$INT64+0x77>
  401ae3:	49 83 f8 00                                     	cmp    $0x0,%r8
  401ae7:	7d 0f                                           	jge    401af8 <SYSTEM_$$_COMPAREWORD$formal$formal$INT64$$INT64+0x68>
  401ae9:	48 b8 ff ff ff ff ff ff ff ff                   	movabs $0xffffffffffffffff,%rax
  401af3:	e9 e7 00 00 00                                  	jmpq   401bdf <SYSTEM_$$_COMPAREWORD$formal$formal$INT64$$INT64+0x14f>
  401af8:	48 b8 01 00 00 00 00 00 00 00                   	movabs $0x1,%rax
  401b02:	e9 d8 00 00 00                                  	jmpq   401bdf <SYSTEM_$$_COMPAREWORD$formal$formal$INT64$$INT64+0x14f>
  401b07:	48 83 c6 02                                     	add    $0x2,%rsi
  401b0b:	48 83 c7 02                                     	add    $0x2,%rdi
  401b0f:	48 39 cf                                        	cmp    %rcx,%rdi
  401b12:	72 bc                                           	jb     401ad0 <SYSTEM_$$_COMPAREWORD$formal$formal$INT64$$INT64+0x40>
  401b14:	49 89 d1                                        	mov    %rdx,%r9
  401b17:	49 d1 e1                                        	shl    %r9
  401b1a:	49 c1 e9 03                                     	shr    $0x3,%r9
  401b1e:	49 c1 e1 03                                     	shl    $0x3,%r9
  401b22:	4d 8d 0c 39                                     	lea    (%r9,%rdi,1),%r9
  401b26:	4c 89 c9                                        	mov    %r9,%rcx
  401b29:	49 89 d1                                        	mov    %rdx,%r9
  401b2c:	49 d1 e1                                        	shl    %r9
  401b2f:	49 83 e1 07                                     	and    $0x7,%r9
  401b33:	49 d1 e9                                        	shr    %r9
  401b36:	4c 89 ca                                        	mov    %r9,%rdx
  401b39:	eb 2a                                           	jmp    401b65 <SYSTEM_$$_COMPAREWORD$formal$formal$INT64$$INT64+0xd5>
  401b3b:	66 66 66 90                                     	data16 data16 xchg %ax,%ax
  401b3f:	90                                              	nop
  401b40:	4c 8b 0f                                        	mov    (%rdi),%r9
  401b43:	4c 8b 16                                        	mov    (%rsi),%r10
  401b46:	4d 29 d1                                        	sub    %r10,%r9
  401b49:	4d 89 c8                                        	mov    %r9,%r8
  401b4c:	4d 85 c0                                        	test   %r8,%r8
  401b4f:	74 0c                                           	je     401b5d <SYSTEM_$$_COMPAREWORD$formal$formal$INT64$$INT64+0xcd>
  401b51:	48 ba 04 00 00 00 00 00 00 00                   	movabs $0x4,%rdx
  401b5b:	eb 0d                                           	jmp    401b6a <SYSTEM_$$_COMPAREWORD$formal$formal$INT64$$INT64+0xda>
  401b5d:	48 83 c6 08                                     	add    $0x8,%rsi
  401b61:	48 83 c7 08                                     	add    $0x8,%rdi
  401b65:	48 39 cf                                        	cmp    %rcx,%rdi
  401b68:	72 d6                                           	jb     401b40 <SYSTEM_$$_COMPAREWORD$formal$formal$INT64$$INT64+0xb0>
  401b6a:	49 89 d1                                        	mov    %rdx,%r9
  401b6d:	49 d1 e1                                        	shl    %r9
  401b70:	4d 8d 0c 39                                     	lea    (%r9,%rdi,1),%r9
  401b74:	49 39 f9                                        	cmp    %rdi,%r9
  401b77:	72 0c                                           	jb     401b85 <SYSTEM_$$_COMPAREWORD$formal$formal$INT64$$INT64+0xf5>
  401b79:	48 d1 e2                                        	shl    %rdx
  401b7c:	48 8d 14 3a                                     	lea    (%rdx,%rdi,1),%rdx
  401b80:	48 89 d1                                        	mov    %rdx,%rcx
  401b83:	eb 4b                                           	jmp    401bd0 <SYSTEM_$$_COMPAREWORD$formal$formal$INT64$$INT64+0x140>
  401b85:	48 b9 fd ff ff ff ff ff ff ff                   	movabs $0xfffffffffffffffd,%rcx
  401b8f:	eb 3f                                           	jmp    401bd0 <SYSTEM_$$_COMPAREWORD$formal$formal$INT64$$INT64+0x140>
  401b91:	66 66 66 90                                     	data16 data16 xchg %ax,%ax
  401b95:	66 66 90                                        	data16 xchg %ax,%ax
  401b98:	0f b7 17                                        	movzwl (%rdi),%edx
  401b9b:	44 0f b7 0e                                     	movzwl (%rsi),%r9d
  401b9f:	4c 29 ca                                        	sub    %r9,%rdx
  401ba2:	49 89 d0                                        	mov    %rdx,%r8
  401ba5:	4d 85 c0                                        	test   %r8,%r8
  401ba8:	74 1e                                           	je     401bc8 <SYSTEM_$$_COMPAREWORD$formal$formal$INT64$$INT64+0x138>
  401baa:	49 83 f8 00                                     	cmp    $0x0,%r8
  401bae:	7d 0c                                           	jge    401bbc <SYSTEM_$$_COMPAREWORD$formal$formal$INT64$$INT64+0x12c>
  401bb0:	48 b8 ff ff ff ff ff ff ff ff                   	movabs $0xffffffffffffffff,%rax
  401bba:	eb 23                                           	jmp    401bdf <SYSTEM_$$_COMPAREWORD$formal$formal$INT64$$INT64+0x14f>
  401bbc:	48 b8 01 00 00 00 00 00 00 00                   	movabs $0x1,%rax
  401bc6:	eb 17                                           	jmp    401bdf <SYSTEM_$$_COMPAREWORD$formal$formal$INT64$$INT64+0x14f>
  401bc8:	48 83 c6 02                                     	add    $0x2,%rsi
  401bcc:	48 83 c7 02                                     	add    $0x2,%rdi
  401bd0:	48 39 cf                                        	cmp    %rcx,%rdi
  401bd3:	72 c3                                           	jb     401b98 <SYSTEM_$$_COMPAREWORD$formal$formal$INT64$$INT64+0x108>
  401bd5:	48 b8 00 00 00 00 00 00 00 00                   	movabs $0x0,%rax
  401bdf:	c3                                              	retq   

0000000000401be0 <SYSTEM_$$_COMPAREDWORD$formal$formal$INT64$$INT64>:
SYSTEM_$$_COMPAREDWORD$formal$formal$INT64$$INT64():
  401be0:	48 83 fa 15                                     	cmp    $0x15,%rdx
  401be4:	0f 8e b7 00 00 00                               	jle    401ca1 <SYSTEM_$$_COMPAREDWORD$formal$formal$INT64$$INT64+0xc1>
  401bea:	48 89 f0                                        	mov    %rsi,%rax
  401bed:	48 83 e0 07                                     	and    $0x7,%rax
  401bf1:	48 b9 08 00 00 00 00 00 00 00                   	movabs $0x8,%rcx
  401bfb:	48 29 c1                                        	sub    %rax,%rcx
  401bfe:	48 83 e1 07                                     	and    $0x7,%rcx
  401c02:	48 c1 e9 02                                     	shr    $0x2,%rcx
  401c06:	48 29 ca                                        	sub    %rcx,%rdx
  401c09:	48 c1 e1 02                                     	shl    $0x2,%rcx
  401c0d:	48 8d 0c 39                                     	lea    (%rcx,%rdi,1),%rcx
  401c11:	eb 3b                                           	jmp    401c4e <SYSTEM_$$_COMPAREDWORD$formal$formal$INT64$$INT64+0x6e>
  401c13:	66 66 66 90                                     	data16 data16 xchg %ax,%ax
  401c17:	90                                              	nop
  401c18:	44 8b 07                                        	mov    (%rdi),%r8d
  401c1b:	44 3b 06                                        	cmp    (%rsi),%r8d
  401c1e:	74 26                                           	je     401c46 <SYSTEM_$$_COMPAREDWORD$formal$formal$INT64$$INT64+0x66>
  401c20:	44 8b 07                                        	mov    (%rdi),%r8d
  401c23:	44 3b 06                                        	cmp    (%rsi),%r8d
  401c26:	76 0f                                           	jbe    401c37 <SYSTEM_$$_COMPAREDWORD$formal$formal$INT64$$INT64+0x57>
  401c28:	48 b8 01 00 00 00 00 00 00 00                   	movabs $0x1,%rax
  401c32:	e9 e4 00 00 00                                  	jmpq   401d1b <SYSTEM_$$_COMPAREDWORD$formal$formal$INT64$$INT64+0x13b>
  401c37:	48 b8 ff ff ff ff ff ff ff ff                   	movabs $0xffffffffffffffff,%rax
  401c41:	e9 d5 00 00 00                                  	jmpq   401d1b <SYSTEM_$$_COMPAREDWORD$formal$formal$INT64$$INT64+0x13b>
  401c46:	48 83 c6 04                                     	add    $0x4,%rsi
  401c4a:	48 83 c7 04                                     	add    $0x4,%rdi
  401c4e:	48 39 cf                                        	cmp    %rcx,%rdi
  401c51:	72 c5                                           	jb     401c18 <SYSTEM_$$_COMPAREDWORD$formal$formal$INT64$$INT64+0x38>
  401c53:	49 89 d0                                        	mov    %rdx,%r8
  401c56:	49 c1 e0 02                                     	shl    $0x2,%r8
  401c5a:	49 c1 e8 03                                     	shr    $0x3,%r8
  401c5e:	49 c1 e0 03                                     	shl    $0x3,%r8
  401c62:	4d 8d 04 38                                     	lea    (%r8,%rdi,1),%r8
  401c66:	4c 89 c1                                        	mov    %r8,%rcx
  401c69:	49 89 d0                                        	mov    %rdx,%r8
  401c6c:	49 c1 e0 02                                     	shl    $0x2,%r8
  401c70:	49 83 e0 07                                     	and    $0x7,%r8
  401c74:	49 c1 e8 02                                     	shr    $0x2,%r8
  401c78:	4c 89 c2                                        	mov    %r8,%rdx
  401c7b:	eb 1f                                           	jmp    401c9c <SYSTEM_$$_COMPAREDWORD$formal$formal$INT64$$INT64+0xbc>
  401c7d:	66 66 90                                        	data16 xchg %ax,%ax
  401c80:	4c 8b 07                                        	mov    (%rdi),%r8
  401c83:	4c 3b 06                                        	cmp    (%rsi),%r8
  401c86:	74 0c                                           	je     401c94 <SYSTEM_$$_COMPAREDWORD$formal$formal$INT64$$INT64+0xb4>
  401c88:	48 ba 02 00 00 00 00 00 00 00                   	movabs $0x2,%rdx
  401c92:	eb 0d                                           	jmp    401ca1 <SYSTEM_$$_COMPAREDWORD$formal$formal$INT64$$INT64+0xc1>
  401c94:	48 83 c6 08                                     	add    $0x8,%rsi
  401c98:	48 83 c7 08                                     	add    $0x8,%rdi
  401c9c:	48 39 cf                                        	cmp    %rcx,%rdi
  401c9f:	72 df                                           	jb     401c80 <SYSTEM_$$_COMPAREDWORD$formal$formal$INT64$$INT64+0xa0>
  401ca1:	49 b8 ff ff ff ff ff ff ff 3f                   	movabs $0x3fffffffffffffff,%r8
  401cab:	4c 39 c2                                        	cmp    %r8,%rdx
  401cae:	7f 1d                                           	jg     401ccd <SYSTEM_$$_COMPAREDWORD$formal$formal$INT64$$INT64+0xed>
  401cb0:	49 89 d0                                        	mov    %rdx,%r8
  401cb3:	49 c1 e0 02                                     	shl    $0x2,%r8
  401cb7:	4d 8d 04 38                                     	lea    (%r8,%rdi,1),%r8
  401cbb:	49 39 f8                                        	cmp    %rdi,%r8
  401cbe:	72 0d                                           	jb     401ccd <SYSTEM_$$_COMPAREDWORD$formal$formal$INT64$$INT64+0xed>
  401cc0:	48 c1 e2 02                                     	shl    $0x2,%rdx
  401cc4:	48 8d 14 3a                                     	lea    (%rdx,%rdi,1),%rdx
  401cc8:	48 89 d1                                        	mov    %rdx,%rcx
  401ccb:	eb 3f                                           	jmp    401d0c <SYSTEM_$$_COMPAREDWORD$formal$formal$INT64$$INT64+0x12c>
  401ccd:	48 b9 fb ff ff ff ff ff ff ff                   	movabs $0xfffffffffffffffb,%rcx
  401cd7:	eb 33                                           	jmp    401d0c <SYSTEM_$$_COMPAREDWORD$formal$formal$INT64$$INT64+0x12c>
  401cd9:	66 66 66 90                                     	data16 data16 xchg %ax,%ax
  401cdd:	66 66 90                                        	data16 xchg %ax,%ax
  401ce0:	8b 17                                           	mov    (%rdi),%edx
  401ce2:	3b 16                                           	cmp    (%rsi),%edx
  401ce4:	74 1e                                           	je     401d04 <SYSTEM_$$_COMPAREDWORD$formal$formal$INT64$$INT64+0x124>
  401ce6:	8b 17                                           	mov    (%rdi),%edx
  401ce8:	3b 16                                           	cmp    (%rsi),%edx
  401cea:	76 0c                                           	jbe    401cf8 <SYSTEM_$$_COMPAREDWORD$formal$formal$INT64$$INT64+0x118>
  401cec:	48 b8 01 00 00 00 00 00 00 00                   	movabs $0x1,%rax
  401cf6:	eb 23                                           	jmp    401d1b <SYSTEM_$$_COMPAREDWORD$formal$formal$INT64$$INT64+0x13b>
  401cf8:	48 b8 ff ff ff ff ff ff ff ff                   	movabs $0xffffffffffffffff,%rax
  401d02:	eb 17                                           	jmp    401d1b <SYSTEM_$$_COMPAREDWORD$formal$formal$INT64$$INT64+0x13b>
  401d04:	48 83 c6 04                                     	add    $0x4,%rsi
  401d08:	48 83 c7 04                                     	add    $0x4,%rdi
  401d0c:	48 39 cf                                        	cmp    %rcx,%rdi
  401d0f:	72 cf                                           	jb     401ce0 <SYSTEM_$$_COMPAREDWORD$formal$formal$INT64$$INT64+0x100>
  401d11:	48 b8 00 00 00 00 00 00 00 00                   	movabs $0x0,%rax
  401d1b:	c3                                              	retq   
  401d1c:	00 00                                           	add    %al,(%rax)
	...

0000000000401d20 <SYSTEM_$$_MOVECHAR0$formal$formal$INT64>:
SYSTEM_$$_MOVECHAR0$formal$formal$INT64():
  401d20:	53                                              	push   %rbx
  401d21:	41 54                                           	push   %r12
  401d23:	41 55                                           	push   %r13
  401d25:	48 89 fb                                        	mov    %rdi,%rbx
  401d28:	49 89 f4                                        	mov    %rsi,%r12
  401d2b:	49 89 d5                                        	mov    %rdx,%r13
  401d2e:	4d 85 ed                                        	test   %r13,%r13
  401d31:	74 34                                           	je     401d67 <SYSTEM_$$_MOVECHAR0$formal$formal$INT64+0x47>
  401d33:	48 89 df                                        	mov    %rbx,%rdi
  401d36:	4c 89 ee                                        	mov    %r13,%rsi
  401d39:	ba 00 00 00 00                                  	mov    $0x0,%edx
  401d3e:	e8 1d f5 ff ff                                  	callq  401260 <SYSTEM_$$_INDEXBYTE$formal$INT64$BYTE$$INT64>
  401d43:	48 89 c2                                        	mov    %rax,%rdx
  401d46:	48 83 fa ff                                     	cmp    $0xffffffffffffffff,%rdx
  401d4a:	74 0d                                           	je     401d59 <SYSTEM_$$_MOVECHAR0$formal$formal$INT64+0x39>
  401d4c:	4c 89 e6                                        	mov    %r12,%rsi
  401d4f:	48 89 df                                        	mov    %rbx,%rdi
  401d52:	e8 d9 f0 ff ff                                  	callq  400e30 <SYSTEM_$$_MOVE$formal$formal$INT64>
  401d57:	eb 0e                                           	jmp    401d67 <SYSTEM_$$_MOVECHAR0$formal$formal$INT64+0x47>
  401d59:	4c 89 e6                                        	mov    %r12,%rsi
  401d5c:	48 89 df                                        	mov    %rbx,%rdi
  401d5f:	4c 89 ea                                        	mov    %r13,%rdx
  401d62:	e8 c9 f0 ff ff                                  	callq  400e30 <SYSTEM_$$_MOVE$formal$formal$INT64>
  401d67:	41 5d                                           	pop    %r13
  401d69:	41 5c                                           	pop    %r12
  401d6b:	5b                                              	pop    %rbx
  401d6c:	c3                                              	retq   
  401d6d:	00 00                                           	add    %al,(%rax)
	...

0000000000401d70 <SYSTEM_$$_INDEXCHAR0$formal$INT64$CHAR$$INT64>:
SYSTEM_$$_INDEXCHAR0$formal$INT64$CHAR$$INT64():
  401d70:	48 89 f9                                        	mov    %rdi,%rcx
  401d73:	48 83 fe 00                                     	cmp    $0x0,%rsi
  401d77:	7d 0c                                           	jge    401d85 <SYSTEM_$$_INDEXCHAR0$formal$INT64$CHAR$$INT64+0x15>
  401d79:	49 b8 fe ff ff ff ff ff ff ff                   	movabs $0xfffffffffffffffe,%r8
  401d83:	eb 25                                           	jmp    401daa <SYSTEM_$$_INDEXCHAR0$formal$INT64$CHAR$$INT64+0x3a>
  401d85:	48 8d 04 31                                     	lea    (%rcx,%rsi,1),%rax
  401d89:	49 89 c0                                        	mov    %rax,%r8
  401d8c:	eb 1c                                           	jmp    401daa <SYSTEM_$$_INDEXCHAR0$formal$INT64$CHAR$$INT64+0x3a>
  401d8e:	66 90                                           	xchg   %ax,%ax
  401d90:	40 8a 31                                        	mov    (%rcx),%sil
  401d93:	40 38 d6                                        	cmp    %dl,%sil
  401d96:	75 0e                                           	jne    401da6 <SYSTEM_$$_INDEXCHAR0$formal$INT64$CHAR$$INT64+0x36>
  401d98:	48 89 fe                                        	mov    %rdi,%rsi
  401d9b:	49 89 c9                                        	mov    %rcx,%r9
  401d9e:	49 29 f1                                        	sub    %rsi,%r9
  401da1:	4c 89 c8                                        	mov    %r9,%rax
  401da4:	eb 18                                           	jmp    401dbe <SYSTEM_$$_INDEXCHAR0$formal$INT64$CHAR$$INT64+0x4e>
  401da6:	48 83 c1 01                                     	add    $0x1,%rcx
  401daa:	4c 39 c1                                        	cmp    %r8,%rcx
  401dad:	73 05                                           	jae    401db4 <SYSTEM_$$_INDEXCHAR0$formal$INT64$CHAR$$INT64+0x44>
  401daf:	80 39 00                                        	cmpb   $0x0,(%rcx)
  401db2:	75 dc                                           	jne    401d90 <SYSTEM_$$_INDEXCHAR0$formal$INT64$CHAR$$INT64+0x20>
  401db4:	48 b8 ff ff ff ff ff ff ff ff                   	movabs $0xffffffffffffffff,%rax
  401dbe:	c3                                              	retq   
	...

0000000000401dc0 <SYSTEM_$$_COMPARECHAR0$formal$formal$INT64$$INT64>:
SYSTEM_$$_COMPARECHAR0$formal$formal$INT64$$INT64():
  401dc0:	49 b8 00 00 00 00 00 00 00 00                   	movabs $0x0,%r8
  401dca:	48 8d 14 17                                     	lea    (%rdi,%rdx,1),%rdx
  401dce:	eb 4f                                           	jmp    401e1f <SYSTEM_$$_COMPARECHAR0$formal$formal$INT64$$INT64+0x5f>
  401dd0:	0f b6 0f                                        	movzbl (%rdi),%ecx
  401dd3:	44 0f b6 0e                                     	movzbl (%rsi),%r9d
  401dd7:	4c 29 c9                                        	sub    %r9,%rcx
  401dda:	49 89 c8                                        	mov    %rcx,%r8
  401ddd:	49 83 f8 00                                     	cmp    $0x0,%r8
  401de1:	7d 0c                                           	jge    401def <SYSTEM_$$_COMPARECHAR0$formal$formal$INT64$$INT64+0x2f>
  401de3:	48 b8 ff ff ff ff ff ff ff ff                   	movabs $0xffffffffffffffff,%rax
  401ded:	eb 3f                                           	jmp    401e2e <SYSTEM_$$_COMPARECHAR0$formal$formal$INT64$$INT64+0x6e>
  401def:	49 83 f8 00                                     	cmp    $0x0,%r8
  401df3:	7e 0c                                           	jle    401e01 <SYSTEM_$$_COMPARECHAR0$formal$formal$INT64$$INT64+0x41>
  401df5:	48 b8 01 00 00 00 00 00 00 00                   	movabs $0x1,%rax
  401dff:	eb 2d                                           	jmp    401e2e <SYSTEM_$$_COMPARECHAR0$formal$formal$INT64$$INT64+0x6e>
  401e01:	80 3f 00                                        	cmpb   $0x0,(%rdi)
  401e04:	74 05                                           	je     401e0b <SYSTEM_$$_COMPARECHAR0$formal$formal$INT64$$INT64+0x4b>
  401e06:	80 3e 00                                        	cmpb   $0x0,(%rsi)
  401e09:	75 0c                                           	jne    401e17 <SYSTEM_$$_COMPARECHAR0$formal$formal$INT64$$INT64+0x57>
  401e0b:	48 b8 00 00 00 00 00 00 00 00                   	movabs $0x0,%rax
  401e15:	eb 17                                           	jmp    401e2e <SYSTEM_$$_COMPARECHAR0$formal$formal$INT64$$INT64+0x6e>
  401e17:	48 83 c6 01                                     	add    $0x1,%rsi
  401e1b:	48 83 c7 01                                     	add    $0x1,%rdi
  401e1f:	48 39 d7                                        	cmp    %rdx,%rdi
  401e22:	72 ac                                           	jb     401dd0 <SYSTEM_$$_COMPARECHAR0$formal$formal$INT64$$INT64+0x10>
  401e24:	48 b8 00 00 00 00 00 00 00 00                   	movabs $0x0,%rax
  401e2e:	c3                                              	retq   
	...

0000000000401e30 <fpc_help_constructor>:
fpc_help_constructor():
  401e30:	53                                              	push   %rbx
  401e31:	41 54                                           	push   %r12
  401e33:	41 55                                           	push   %r13
  401e35:	41 56                                           	push   %r14
  401e37:	48 8d 64 24 f8                                  	lea    -0x8(%rsp),%rsp
  401e3c:	48 89 3c 24                                     	mov    %rdi,(%rsp)
  401e40:	48 89 f3                                        	mov    %rsi,%rbx
  401e43:	41 89 d4                                        	mov    %edx,%r12d
  401e46:	4c 8b 33                                        	mov    (%rbx),%r14
  401e49:	4d 85 f6                                        	test   %r14,%r14
  401e4c:	75 06                                           	jne    401e54 <fpc_help_constructor+0x24>
  401e4e:	4c 8b 2c 24                                     	mov    (%rsp),%r13
  401e52:	eb 4d                                           	jmp    401ea1 <fpc_help_constructor+0x71>
  401e54:	48 83 3c 24 00                                  	cmpq   $0x0,(%rsp)
  401e59:	75 18                                           	jne    401e73 <fpc_help_constructor+0x43>
  401e5b:	49 83 3e 00                                     	cmpq   $0x0,(%r14)
  401e5f:	76 12                                           	jbe    401e73 <fpc_help_constructor+0x43>
  401e61:	49 8b 36                                        	mov    (%r14),%rsi
  401e64:	48 89 e7                                        	mov    %rsp,%rdi
  401e67:	e8 d4 5b 01 00                                  	callq  417a40 <SYSTEM_$$_GETMEM$POINTER$QWORD>
  401e6c:	48 c7 03 ff ff ff ff                            	movq   $0xffffffffffffffff,(%rbx)
  401e73:	48 83 3c 24 00                                  	cmpq   $0x0,(%rsp)
  401e78:	74 23                                           	je     401e9d <fpc_help_constructor+0x6d>
  401e7a:	49 8b 36                                        	mov    (%r14),%rsi
  401e7d:	48 8b 3c 24                                     	mov    (%rsp),%rdi
  401e81:	ba 00 00 00 00                                  	mov    $0x0,%edx
  401e86:	e8 b5 f2 ff ff                                  	callq  401140 <SYSTEM_$$_FILLCHAR$formal$INT64$BYTE>
  401e8b:	41 81 e4 ff ff ff ff                            	and    $0xffffffff,%r12d
  401e92:	48 8b 04 24                                     	mov    (%rsp),%rax
  401e96:	49 8d 04 04                                     	lea    (%r12,%rax,1),%rax
  401e9a:	4c 89 30                                        	mov    %r14,(%rax)
  401e9d:	4c 8b 2c 24                                     	mov    (%rsp),%r13
  401ea1:	4c 89 e8                                        	mov    %r13,%rax
  401ea4:	48 8d 64 24 08                                  	lea    0x8(%rsp),%rsp
  401ea9:	41 5e                                           	pop    %r14
  401eab:	41 5d                                           	pop    %r13
  401ead:	41 5c                                           	pop    %r12
  401eaf:	5b                                              	pop    %rbx
  401eb0:	c3                                              	retq   
	...

0000000000401ec0 <fpc_help_destructor>:
fpc_help_destructor():
  401ec0:	53                                              	push   %rbx
  401ec1:	41 54                                           	push   %r12
  401ec3:	48 8d 64 24 f8                                  	lea    -0x8(%rsp),%rsp
  401ec8:	48 89 fb                                        	mov    %rdi,%rbx
  401ecb:	41 89 d4                                        	mov    %edx,%r12d
  401ece:	48 85 db                                        	test   %rbx,%rbx
  401ed1:	74 60                                           	je     401f33 <fpc_help_destructor+0x73>
  401ed3:	48 83 fe ff                                     	cmp    $0xffffffffffffffff,%rsi
  401ed7:	75 5a                                           	jne    401f33 <fpc_help_destructor+0x73>
  401ed9:	44 89 e0                                        	mov    %r12d,%eax
  401edc:	25 ff ff ff ff                                  	and    $0xffffffff,%eax
  401ee1:	48 8d 04 18                                     	lea    (%rax,%rbx,1),%rax
  401ee5:	48 83 38 00                                     	cmpq   $0x0,(%rax)
  401ee9:	74 48                                           	je     401f33 <fpc_help_destructor+0x73>
  401eeb:	44 89 e0                                        	mov    %r12d,%eax
  401eee:	25 ff ff ff ff                                  	and    $0xffffffff,%eax
  401ef3:	48 8d 04 18                                     	lea    (%rax,%rbx,1),%rax
  401ef7:	48 8b 00                                        	mov    (%rax),%rax
  401efa:	48 8b 10                                        	mov    (%rax),%rdx
  401efd:	48 85 d2                                        	test   %rdx,%rdx
  401f00:	74 0d                                           	je     401f0f <fpc_help_destructor+0x4f>
  401f02:	48 8b 40 08                                     	mov    0x8(%rax),%rax
  401f06:	48 8d 04 02                                     	lea    (%rdx,%rax,1),%rax
  401f0a:	48 85 c0                                        	test   %rax,%rax
  401f0d:	74 0a                                           	je     401f19 <fpc_help_destructor+0x59>
  401f0f:	bf d2 00 00 00                                  	mov    $0xd2,%edi
  401f14:	e8 97 4f 01 00                                  	callq  416eb0 <SYSTEM_$$_RUNERROR$WORD>
  401f19:	41 81 e4 ff ff ff ff                            	and    $0xffffffff,%r12d
  401f20:	49 8d 04 1c                                     	lea    (%r12,%rbx,1),%rax
  401f24:	48 c7 00 00 00 00 00                            	movq   $0x0,(%rax)
  401f2b:	48 89 df                                        	mov    %rbx,%rdi
  401f2e:	e8 ed 5b 01 00                                  	callq  417b20 <SYSTEM_$$_FREEMEM$POINTER$$QWORD>
  401f33:	48 8d 64 24 08                                  	lea    0x8(%rsp),%rsp
  401f38:	41 5c                                           	pop    %r12
  401f3a:	5b                                              	pop    %rbx
  401f3b:	c3                                              	retq   
  401f3c:	00 00                                           	add    %al,(%rax)
	...

0000000000401f40 <fpc_help_fail>:
fpc_help_fail():
  401f40:	53                                              	push   %rbx
  401f41:	41 54                                           	push   %r12
  401f43:	41 55                                           	push   %r13
  401f45:	48 89 fb                                        	mov    %rdi,%rbx
  401f48:	49 89 f4                                        	mov    %rsi,%r12
  401f4b:	41 89 d5                                        	mov    %edx,%r13d
  401f4e:	48 85 db                                        	test   %rbx,%rbx
  401f51:	0f 84 69 00 00 00                               	je     401fc0 <fpc_help_fail+0x80>
  401f57:	49 83 3c 24 00                                  	cmpq   $0x0,(%r12)
  401f5c:	74 62                                           	je     401fc0 <fpc_help_fail+0x80>
  401f5e:	49 83 3c 24 ff                                  	cmpq   $0xffffffffffffffff,(%r12)
  401f63:	75 48                                           	jne    401fad <fpc_help_fail+0x6d>
  401f65:	48 85 db                                        	test   %rbx,%rbx
  401f68:	74 12                                           	je     401f7c <fpc_help_fail+0x3c>
  401f6a:	44 89 e8                                        	mov    %r13d,%eax
  401f6d:	25 ff ff ff ff                                  	and    $0xffffffff,%eax
  401f72:	48 8d 04 18                                     	lea    (%rax,%rbx,1),%rax
  401f76:	48 83 38 00                                     	cmpq   $0x0,(%rax)
  401f7a:	75 0c                                           	jne    401f88 <fpc_help_fail+0x48>
  401f7c:	bf d2 00 00 00                                  	mov    $0xd2,%edi
  401f81:	e8 fa 4e 01 00                                  	callq  416e80 <fpc_handleerror>
  401f86:	eb 38                                           	jmp    401fc0 <fpc_help_fail+0x80>
  401f88:	44 89 e8                                        	mov    %r13d,%eax
  401f8b:	25 ff ff ff ff                                  	and    $0xffffffff,%eax
  401f90:	48 8d 04 18                                     	lea    (%rax,%rbx,1),%rax
  401f94:	48 c7 00 00 00 00 00                            	movq   $0x0,(%rax)
  401f9b:	48 89 df                                        	mov    %rbx,%rdi
  401f9e:	e8 7d 5b 01 00                                  	callq  417b20 <SYSTEM_$$_FREEMEM$POINTER$$QWORD>
  401fa3:	49 c7 04 24 00 00 00 00                         	movq   $0x0,(%r12)
  401fab:	eb 13                                           	jmp    401fc0 <fpc_help_fail+0x80>
  401fad:	41 81 e5 ff ff ff ff                            	and    $0xffffffff,%r13d
  401fb4:	49 8d 44 1d 00                                  	lea    0x0(%r13,%rbx,1),%rax
  401fb9:	48 c7 00 00 00 00 00                            	movq   $0x0,(%rax)
  401fc0:	41 5d                                           	pop    %r13
  401fc2:	41 5c                                           	pop    %r12
  401fc4:	5b                                              	pop    %rbx
  401fc5:	c3                                              	retq   
	...

0000000000401fd0 <fpc_check_object>:
fpc_check_object():
  401fd0:	48 8d 64 24 f8                                  	lea    -0x8(%rsp),%rsp
  401fd5:	48 89 f8                                        	mov    %rdi,%rax
  401fd8:	48 85 c0                                        	test   %rax,%rax
  401fdb:	74 15                                           	je     401ff2 <fpc_check_object+0x22>
  401fdd:	48 8b 10                                        	mov    (%rax),%rdx
  401fe0:	48 85 d2                                        	test   %rdx,%rdx
  401fe3:	74 0d                                           	je     401ff2 <fpc_check_object+0x22>
  401fe5:	48 8b 40 08                                     	mov    0x8(%rax),%rax
  401fe9:	48 8d 04 10                                     	lea    (%rax,%rdx,1),%rax
  401fed:	48 85 c0                                        	test   %rax,%rax
  401ff0:	74 0a                                           	je     401ffc <fpc_check_object+0x2c>
  401ff2:	bf d2 00 00 00                                  	mov    $0xd2,%edi
  401ff7:	e8 b4 4e 01 00                                  	callq  416eb0 <SYSTEM_$$_RUNERROR$WORD>
  401ffc:	48 8d 64 24 08                                  	lea    0x8(%rsp),%rsp
  402001:	c3                                              	retq   
	...

0000000000402010 <fpc_check_object_ext>:
fpc_check_object_ext():
  402010:	53                                              	push   %rbx
  402011:	41 54                                           	push   %r12
  402013:	48 8d 64 24 f8                                  	lea    -0x8(%rsp),%rsp
  402018:	48 89 fb                                        	mov    %rdi,%rbx
  40201b:	49 89 f4                                        	mov    %rsi,%r12
  40201e:	48 85 db                                        	test   %rbx,%rbx
  402021:	74 15                                           	je     402038 <fpc_check_object_ext+0x28>
  402023:	48 8b 13                                        	mov    (%rbx),%rdx
  402026:	48 85 d2                                        	test   %rdx,%rdx
  402029:	74 0d                                           	je     402038 <fpc_check_object_ext+0x28>
  40202b:	48 8b 43 08                                     	mov    0x8(%rbx),%rax
  40202f:	48 8d 04 10                                     	lea    (%rax,%rdx,1),%rax
  402033:	48 85 c0                                        	test   %rax,%rax
  402036:	74 19                                           	je     402051 <fpc_check_object_ext+0x41>
  402038:	bf d2 00 00 00                                  	mov    $0xd2,%edi
  40203d:	e8 6e 4e 01 00                                  	callq  416eb0 <SYSTEM_$$_RUNERROR$WORD>
  402042:	eb 0d                                           	jmp    402051 <fpc_check_object_ext+0x41>
  402044:	66 66 66 90                                     	data16 data16 xchg %ax,%ax
  402048:	4c 39 e3                                        	cmp    %r12,%rbx
  40204b:	74 13                                           	je     402060 <fpc_check_object_ext+0x50>
  40204d:	48 8b 5b 10                                     	mov    0x10(%rbx),%rbx
  402051:	48 85 db                                        	test   %rbx,%rbx
  402054:	75 f2                                           	jne    402048 <fpc_check_object_ext+0x38>
  402056:	bf db 00 00 00                                  	mov    $0xdb,%edi
  40205b:	e8 50 4e 01 00                                  	callq  416eb0 <SYSTEM_$$_RUNERROR$WORD>
  402060:	48 8d 64 24 08                                  	lea    0x8(%rsp),%rsp
  402065:	41 5c                                           	pop    %r12
  402067:	5b                                              	pop    %rbx
  402068:	c3                                              	retq   
  402069:	00 00                                           	add    %al,(%rax)
  40206b:	00 00                                           	add    %al,(%rax)
  40206d:	00 00                                           	add    %al,(%rax)
	...

0000000000402070 <fpc_shortstr_to_shortstr>:
fpc_shortstr_to_shortstr():
  402070:	53                                              	push   %rbx
  402071:	41 54                                           	push   %r12
  402073:	48 8d 64 24 f8                                  	lea    -0x8(%rsp),%rsp
  402078:	48 89 fb                                        	mov    %rdi,%rbx
  40207b:	48 89 d7                                        	mov    %rdx,%rdi
  40207e:	44 8a 27                                        	mov    (%rdi),%r12b
  402081:	41 0f b6 c4                                     	movzbl %r12b,%eax
  402085:	48 39 f0                                        	cmp    %rsi,%rax
  402088:	7e 03                                           	jle    40208d <fpc_shortstr_to_shortstr+0x1d>
  40208a:	41 88 f4                                        	mov    %sil,%r12b
  40208d:	41 0f b6 c4                                     	movzbl %r12b,%eax
  402091:	48 8d 50 01                                     	lea    0x1(%rax),%rdx
  402095:	48 89 de                                        	mov    %rbx,%rsi
  402098:	e8 93 ed ff ff                                  	callq  400e30 <SYSTEM_$$_MOVE$formal$formal$INT64>
  40209d:	44 88 23                                        	mov    %r12b,(%rbx)
  4020a0:	48 8d 64 24 08                                  	lea    0x8(%rsp),%rsp
  4020a5:	41 5c                                           	pop    %r12
  4020a7:	5b                                              	pop    %rbx
  4020a8:	c3                                              	retq   
  4020a9:	00 00                                           	add    %al,(%rax)
  4020ab:	00 00                                           	add    %al,(%rax)
  4020ad:	00 00                                           	add    %al,(%rax)
	...

00000000004020b0 <fpc_shortstr_assign>:
fpc_shortstr_assign():
  4020b0:	53                                              	push   %rbx
  4020b1:	41 54                                           	push   %r12
  4020b3:	41 55                                           	push   %r13
  4020b5:	89 fb                                           	mov    %edi,%ebx
  4020b7:	48 89 f7                                        	mov    %rsi,%rdi
  4020ba:	49 89 d4                                        	mov    %rdx,%r12
  4020bd:	44 8a 2f                                        	mov    (%rdi),%r13b
  4020c0:	41 0f b6 c5                                     	movzbl %r13b,%eax
  4020c4:	48 63 d3                                        	movslq %ebx,%rdx
  4020c7:	48 39 d0                                        	cmp    %rdx,%rax
  4020ca:	7d 06                                           	jge    4020d2 <fpc_shortstr_assign+0x22>
  4020cc:	41 0f b6 c5                                     	movzbl %r13b,%eax
  4020d0:	89 c3                                           	mov    %eax,%ebx
  4020d2:	48 63 c3                                        	movslq %ebx,%rax
  4020d5:	48 8d 50 01                                     	lea    0x1(%rax),%rdx
  4020d9:	4c 89 e6                                        	mov    %r12,%rsi
  4020dc:	e8 4f ed ff ff                                  	callq  400e30 <SYSTEM_$$_MOVE$formal$formal$INT64>
  4020e1:	41 81 e5 ff 00 00 00                            	and    $0xff,%r13d
  4020e8:	48 63 c3                                        	movslq %ebx,%rax
  4020eb:	49 39 c5                                        	cmp    %rax,%r13
  4020ee:	7e 04                                           	jle    4020f4 <fpc_shortstr_assign+0x44>
  4020f0:	41 88 1c 24                                     	mov    %bl,(%r12)
  4020f4:	41 5d                                           	pop    %r13
  4020f6:	41 5c                                           	pop    %r12
  4020f8:	5b                                              	pop    %rbx
  4020f9:	c3                                              	retq   
  4020fa:	00 00                                           	add    %al,(%rax)
  4020fc:	00 00                                           	add    %al,(%rax)
	...

0000000000402100 <fpc_shortstr_concat>:
fpc_shortstr_concat():
  402100:	53                                              	push   %rbx
  402101:	41 54                                           	push   %r12
  402103:	41 55                                           	push   %r13
  402105:	41 56                                           	push   %r14
  402107:	41 57                                           	push   %r15
  402109:	49 89 ff                                        	mov    %rdi,%r15
  40210c:	49 89 d6                                        	mov    %rdx,%r14
  40210f:	48 89 cb                                        	mov    %rcx,%rbx
  402112:	41 0f b6 06                                     	movzbl (%r14),%eax
  402116:	41 89 c4                                        	mov    %eax,%r12d
  402119:	0f b6 03                                        	movzbl (%rbx),%eax
  40211c:	41 89 c5                                        	mov    %eax,%r13d
  40211f:	49 63 c4                                        	movslq %r12d,%rax
  402122:	49 63 d5                                        	movslq %r13d,%rdx
  402125:	48 8d 04 10                                     	lea    (%rax,%rdx,1),%rax
  402129:	48 39 f0                                        	cmp    %rsi,%rax
  40212c:	7e 16                                           	jle    402144 <fpc_shortstr_concat+0x44>
  40212e:	49 63 c4                                        	movslq %r12d,%rax
  402131:	48 39 f0                                        	cmp    %rsi,%rax
  402134:	7e 05                                           	jle    40213b <fpc_shortstr_concat+0x3b>
  402136:	89 f0                                           	mov    %esi,%eax
  402138:	41 89 c4                                        	mov    %eax,%r12d
  40213b:	49 63 c4                                        	movslq %r12d,%rax
  40213e:	48 29 c6                                        	sub    %rax,%rsi
  402141:	41 89 f5                                        	mov    %esi,%r13d
  402144:	4c 89 f8                                        	mov    %r15,%rax
  402147:	4c 89 f2                                        	mov    %r14,%rdx
  40214a:	48 39 d0                                        	cmp    %rdx,%rax
  40214d:	75 2c                                           	jne    40217b <fpc_shortstr_concat+0x7b>
  40214f:	44 88 ea                                        	mov    %r13b,%dl
  402152:	67 41 8d 44 24 01                               	lea    0x1(%r12d),%eax
  402158:	4c 89 f9                                        	mov    %r15,%rcx
  40215b:	48 89 df                                        	mov    %rbx,%rdi
  40215e:	81 e2 ff 00 00 00                               	and    $0xff,%edx
  402164:	25 ff 00 00 00                                  	and    $0xff,%eax
  402169:	48 8d 34 01                                     	lea    (%rcx,%rax,1),%rsi
  40216d:	48 8d 7f 01                                     	lea    0x1(%rdi),%rdi
  402171:	e8 ba ec ff ff                                  	callq  400e30 <SYSTEM_$$_MOVE$formal$formal$INT64>
  402176:	e9 94 00 00 00                                  	jmpq   40220f <fpc_shortstr_concat+0x10f>
  40217b:	4c 89 f8                                        	mov    %r15,%rax
  40217e:	48 89 da                                        	mov    %rbx,%rdx
  402181:	48 39 d0                                        	cmp    %rdx,%rax
  402184:	75 45                                           	jne    4021cb <fpc_shortstr_concat+0xcb>
  402186:	44 88 ea                                        	mov    %r13b,%dl
  402189:	67 41 8d 44 24 01                               	lea    0x1(%r12d),%eax
  40218f:	4c 89 f9                                        	mov    %r15,%rcx
  402192:	4c 89 ff                                        	mov    %r15,%rdi
  402195:	81 e2 ff 00 00 00                               	and    $0xff,%edx
  40219b:	25 ff 00 00 00                                  	and    $0xff,%eax
  4021a0:	48 8d 34 01                                     	lea    (%rcx,%rax,1),%rsi
  4021a4:	48 8d 7f 01                                     	lea    0x1(%rdi),%rdi
  4021a8:	e8 83 ec ff ff                                  	callq  400e30 <SYSTEM_$$_MOVE$formal$formal$INT64>
  4021ad:	44 88 e2                                        	mov    %r12b,%dl
  4021b0:	4c 89 f8                                        	mov    %r15,%rax
  4021b3:	4c 89 f1                                        	mov    %r14,%rcx
  4021b6:	81 e2 ff 00 00 00                               	and    $0xff,%edx
  4021bc:	48 8d 70 01                                     	lea    0x1(%rax),%rsi
  4021c0:	48 8d 79 01                                     	lea    0x1(%rcx),%rdi
  4021c4:	e8 67 ec ff ff                                  	callq  400e30 <SYSTEM_$$_MOVE$formal$formal$INT64>
  4021c9:	eb 44                                           	jmp    40220f <fpc_shortstr_concat+0x10f>
  4021cb:	44 88 e2                                        	mov    %r12b,%dl
  4021ce:	4c 89 f9                                        	mov    %r15,%rcx
  4021d1:	4c 89 f0                                        	mov    %r14,%rax
  4021d4:	81 e2 ff 00 00 00                               	and    $0xff,%edx
  4021da:	48 8d 71 01                                     	lea    0x1(%rcx),%rsi
  4021de:	48 8d 78 01                                     	lea    0x1(%rax),%rdi
  4021e2:	e8 49 ec ff ff                                  	callq  400e30 <SYSTEM_$$_MOVE$formal$formal$INT64>
  4021e7:	44 88 ea                                        	mov    %r13b,%dl
  4021ea:	67 41 8d 4c 24 01                               	lea    0x1(%r12d),%ecx
  4021f0:	4c 89 fe                                        	mov    %r15,%rsi
  4021f3:	48 89 d8                                        	mov    %rbx,%rax
  4021f6:	81 e2 ff 00 00 00                               	and    $0xff,%edx
  4021fc:	81 e1 ff 00 00 00                               	and    $0xff,%ecx
  402202:	48 8d 34 0e                                     	lea    (%rsi,%rcx,1),%rsi
  402206:	48 8d 78 01                                     	lea    0x1(%rax),%rdi
  40220a:	e8 21 ec ff ff                                  	callq  400e30 <SYSTEM_$$_MOVE$formal$formal$INT64>
  40220f:	67 43 8d 04 2c                                  	lea    (%r12d,%r13d,1),%eax
  402214:	41 88 07                                        	mov    %al,(%r15)
  402217:	41 5f                                           	pop    %r15
  402219:	41 5e                                           	pop    %r14
  40221b:	41 5d                                           	pop    %r13
  40221d:	41 5c                                           	pop    %r12
  40221f:	5b                                              	pop    %rbx
  402220:	c3                                              	retq   
	...

0000000000402230 <fpc_shortstr_concat_multi>:
fpc_shortstr_concat_multi():
  402230:	55                                              	push   %rbp
  402231:	48 89 e5                                        	mov    %rsp,%rbp
  402234:	48 8d a4 24 b0 fe ff ff                         	lea    -0x150(%rsp),%rsp
  40223c:	48 89 9d b0 fe ff ff                            	mov    %rbx,-0x150(%rbp)
  402243:	4c 89 a5 b8 fe ff ff                            	mov    %r12,-0x148(%rbp)
  40224a:	4c 89 ad c0 fe ff ff                            	mov    %r13,-0x140(%rbp)
  402251:	4c 89 b5 c8 fe ff ff                            	mov    %r14,-0x138(%rbp)
  402258:	4c 89 bd d0 fe ff ff                            	mov    %r15,-0x130(%rbp)
  40225f:	48 89 bd e0 fe ff ff                            	mov    %rdi,-0x120(%rbp)
  402266:	48 89 b5 d8 fe ff ff                            	mov    %rsi,-0x128(%rbp)
  40226d:	48 89 95 f0 fe ff ff                            	mov    %rdx,-0x110(%rbp)
  402274:	48 85 c9                                        	test   %rcx,%rcx
  402277:	75 0f                                           	jne    402288 <fpc_shortstr_concat_multi+0x58>
  402279:	48 8b 85 e0 fe ff ff                            	mov    -0x120(%rbp),%rax
  402280:	c6 00 00                                        	movb   $0x0,(%rax)
  402283:	e9 6e 01 00 00                                  	jmpq   4023f6 <fpc_shortstr_concat_multi+0x1c6>
  402288:	be 00 00 00 00                                  	mov    $0x0,%esi
  40228d:	48 63 d6                                        	movslq %esi,%rdx
  402290:	48 8b bd e0 fe ff ff                            	mov    -0x120(%rbp),%rdi
  402297:	48 8b 85 f0 fe ff ff                            	mov    -0x110(%rbp),%rax
  40229e:	48 3b 3c d0                                     	cmp    (%rax,%rdx,8),%rdi
  4022a2:	75 03                                           	jne    4022a7 <fpc_shortstr_concat_multi+0x77>
  4022a4:	83 c6 01                                        	add    $0x1,%esi
  4022a7:	c6 85 e8 fe ff ff 00                            	movb   $0x0,-0x118(%rbp)
  4022ae:	89 ca                                           	mov    %ecx,%edx
  4022b0:	89 f7                                           	mov    %esi,%edi
  4022b2:	39 fa                                           	cmp    %edi,%edx
  4022b4:	7c 31                                           	jl     4022e7 <fpc_shortstr_concat_multi+0xb7>
  4022b6:	83 ef 01                                        	sub    $0x1,%edi
  4022b9:	66 66 66 90                                     	data16 data16 xchg %ax,%ax
  4022bd:	66 66 90                                        	data16 xchg %ax,%ax
  4022c0:	83 c7 01                                        	add    $0x1,%edi
  4022c3:	4c 63 c7                                        	movslq %edi,%r8
  4022c6:	4c 8b 8d e0 fe ff ff                            	mov    -0x120(%rbp),%r9
  4022cd:	48 8b 85 f0 fe ff ff                            	mov    -0x110(%rbp),%rax
  4022d4:	4e 3b 0c c0                                     	cmp    (%rax,%r8,8),%r9
  4022d8:	75 09                                           	jne    4022e3 <fpc_shortstr_concat_multi+0xb3>
  4022da:	c6 85 e8 fe ff ff 01                            	movb   $0x1,-0x118(%rbp)
  4022e1:	eb 04                                           	jmp    4022e7 <fpc_shortstr_concat_multi+0xb7>
  4022e3:	39 fa                                           	cmp    %edi,%edx
  4022e5:	7f d9                                           	jg     4022c0 <fpc_shortstr_concat_multi+0x90>
  4022e7:	8a 85 e8 fe ff ff                               	mov    -0x118(%rbp),%al
  4022ed:	84 c0                                           	test   %al,%al
  4022ef:	74 15                                           	je     402306 <fpc_shortstr_concat_multi+0xd6>
  4022f1:	be 00 00 00 00                                  	mov    $0x0,%esi
  4022f6:	c6 85 00 ff ff ff 00                            	movb   $0x0,-0x100(%rbp)
  4022fd:	48 8d 95 00 ff ff ff                            	lea    -0x100(%rbp),%rdx
  402304:	eb 1c                                           	jmp    402322 <fpc_shortstr_concat_multi+0xf2>
  402306:	48 63 c6                                        	movslq %esi,%rax
  402309:	48 85 c0                                        	test   %rax,%rax
  40230c:	75 0a                                           	jne    402318 <fpc_shortstr_concat_multi+0xe8>
  40230e:	48 8b 85 e0 fe ff ff                            	mov    -0x120(%rbp),%rax
  402315:	c6 00 00                                        	movb   $0x0,(%rax)
  402318:	48 8b 85 e0 fe ff ff                            	mov    -0x120(%rbp),%rax
  40231f:	48 89 c2                                        	mov    %rax,%rdx
  402322:	48 89 95 f8 fe ff ff                            	mov    %rdx,-0x108(%rbp)
  402329:	48 8b 85 f8 fe ff ff                            	mov    -0x108(%rbp),%rax
  402330:	0f b6 10                                        	movzbl (%rax),%edx
  402333:	41 89 d7                                        	mov    %edx,%r15d
  402336:	41 89 ce                                        	mov    %ecx,%r14d
  402339:	41 89 f5                                        	mov    %esi,%r13d
  40233c:	45 39 ee                                        	cmp    %r13d,%r14d
  40233f:	0f 8c 81 00 00 00                               	jl     4023c6 <fpc_shortstr_concat_multi+0x196>
  402345:	41 83 ed 01                                     	sub    $0x1,%r13d
  402349:	66 66 66 90                                     	data16 data16 xchg %ax,%ax
  40234d:	66 66 90                                        	data16 xchg %ax,%ax
  402350:	41 83 c5 01                                     	add    $0x1,%r13d
  402354:	49 63 c5                                        	movslq %r13d,%rax
  402357:	48 8b 95 f0 fe ff ff                            	mov    -0x110(%rbp),%rdx
  40235e:	48 8b 1c c2                                     	mov    (%rdx,%rax,8),%rbx
  402362:	48 85 db                                        	test   %rbx,%rbx
  402365:	74 5a                                           	je     4023c1 <fpc_shortstr_concat_multi+0x191>
  402367:	44 8a 23                                        	mov    (%rbx),%r12b
  40236a:	49 63 d7                                        	movslq %r15d,%rdx
  40236d:	41 0f b6 c4                                     	movzbl %r12b,%eax
  402371:	48 8d 04 02                                     	lea    (%rdx,%rax,1),%rax
  402375:	48 3b 85 d8 fe ff ff                            	cmp    -0x128(%rbp),%rax
  40237c:	7e 10                                           	jle    40238e <fpc_shortstr_concat_multi+0x15e>
  40237e:	49 63 d7                                        	movslq %r15d,%rdx
  402381:	48 8b 85 d8 fe ff ff                            	mov    -0x128(%rbp),%rax
  402388:	48 29 d0                                        	sub    %rdx,%rax
  40238b:	41 88 c4                                        	mov    %al,%r12b
  40238e:	67 41 8d 77 01                                  	lea    0x1(%r15d),%esi
  402393:	48 89 d8                                        	mov    %rbx,%rax
  402396:	48 89 c2                                        	mov    %rax,%rdx
  402399:	41 0f b6 c4                                     	movzbl %r12b,%eax
  40239d:	81 e6 ff 00 00 00                               	and    $0xff,%esi
  4023a3:	48 8b 8d f8 fe ff ff                            	mov    -0x108(%rbp),%rcx
  4023aa:	48 8d 34 31                                     	lea    (%rcx,%rsi,1),%rsi
  4023ae:	48 8d 7a 01                                     	lea    0x1(%rdx),%rdi
  4023b2:	48 89 c2                                        	mov    %rax,%rdx
  4023b5:	e8 76 ea ff ff                                  	callq  400e30 <SYSTEM_$$_MOVE$formal$formal$INT64>
  4023ba:	41 0f b6 c4                                     	movzbl %r12b,%eax
  4023be:	41 01 c7                                        	add    %eax,%r15d
  4023c1:	45 39 ee                                        	cmp    %r13d,%r14d
  4023c4:	7f 8a                                           	jg     402350 <fpc_shortstr_concat_multi+0x120>
  4023c6:	48 8b 95 f8 fe ff ff                            	mov    -0x108(%rbp),%rdx
  4023cd:	44 88 f8                                        	mov    %r15b,%al
  4023d0:	88 02                                           	mov    %al,(%rdx)
  4023d2:	8a 85 e8 fe ff ff                               	mov    -0x118(%rbp),%al
  4023d8:	84 c0                                           	test   %al,%al
  4023da:	74 1a                                           	je     4023f6 <fpc_shortstr_concat_multi+0x1c6>
  4023dc:	48 8b bd e0 fe ff ff                            	mov    -0x120(%rbp),%rdi
  4023e3:	48 8d 95 00 ff ff ff                            	lea    -0x100(%rbp),%rdx
  4023ea:	48 8b b5 d8 fe ff ff                            	mov    -0x128(%rbp),%rsi
  4023f1:	e8 7a fc ff ff                                  	callq  402070 <fpc_shortstr_to_shortstr>
  4023f6:	48 8b 9d b0 fe ff ff                            	mov    -0x150(%rbp),%rbx
  4023fd:	4c 8b a5 b8 fe ff ff                            	mov    -0x148(%rbp),%r12
  402404:	4c 8b ad c0 fe ff ff                            	mov    -0x140(%rbp),%r13
  40240b:	4c 8b b5 c8 fe ff ff                            	mov    -0x138(%rbp),%r14
  402412:	4c 8b bd d0 fe ff ff                            	mov    -0x130(%rbp),%r15
  402419:	c9                                              	leaveq 
  40241a:	c3                                              	retq   
  40241b:	00 00                                           	add    %al,(%rax)
  40241d:	00 00                                           	add    %al,(%rax)
	...

0000000000402420 <fpc_shortstr_append_shortstr>:
fpc_shortstr_append_shortstr():
  402420:	53                                              	push   %rbx
  402421:	41 54                                           	push   %r12
  402423:	41 55                                           	push   %r13
  402425:	48 89 fb                                        	mov    %rdi,%rbx
  402428:	44 0f b6 2b                                     	movzbl (%rbx),%r13d
  40242c:	44 0f b6 22                                     	movzbl (%rdx),%r12d
  402430:	4b 8d 44 25 00                                  	lea    0x0(%r13,%r12,1),%rax
  402435:	48 39 f0                                        	cmp    %rsi,%rax
  402438:	7e 06                                           	jle    402440 <fpc_shortstr_append_shortstr+0x20>
  40243a:	4c 29 ee                                        	sub    %r13,%rsi
  40243d:	49 89 f4                                        	mov    %rsi,%r12
  402440:	49 8d 45 01                                     	lea    0x1(%r13),%rax
  402444:	25 ff 00 00 00                                  	and    $0xff,%eax
  402449:	48 8d 34 03                                     	lea    (%rbx,%rax,1),%rsi
  40244d:	48 8d 7a 01                                     	lea    0x1(%rdx),%rdi
  402451:	4c 89 e2                                        	mov    %r12,%rdx
  402454:	e8 d7 e9 ff ff                                  	callq  400e30 <SYSTEM_$$_MOVE$formal$formal$INT64>
  402459:	4b 8d 44 25 00                                  	lea    0x0(%r13,%r12,1),%rax
  40245e:	88 03                                           	mov    %al,(%rbx)
  402460:	41 5d                                           	pop    %r13
  402462:	41 5c                                           	pop    %r12
  402464:	5b                                              	pop    %rbx
  402465:	c3                                              	retq   
	...

0000000000402470 <fpc_shortstr_compare>:
fpc_shortstr_compare():
  402470:	53                                              	push   %rbx
  402471:	8a 0f                                           	mov    (%rdi),%cl
  402473:	44 8a 06                                        	mov    (%rsi),%r8b
  402476:	44 38 c1                                        	cmp    %r8b,%cl
  402479:	73 04                                           	jae    40247f <fpc_shortstr_compare+0xf>
  40247b:	88 ca                                           	mov    %cl,%dl
  40247d:	eb 03                                           	jmp    402482 <fpc_shortstr_compare+0x12>
  40247f:	44 88 c2                                        	mov    %r8b,%dl
  402482:	41 b2 01                                        	mov    $0x1,%r10b
  402485:	44 38 d2                                        	cmp    %r10b,%dl
  402488:	72 3f                                           	jb     4024c9 <fpc_shortstr_compare+0x59>
  40248a:	41 80 ea 01                                     	sub    $0x1,%r10b
  40248e:	66 90                                           	xchg   %ax,%ax
  402490:	41 80 c2 01                                     	add    $0x1,%r10b
  402494:	45 0f b6 ca                                     	movzbl %r10b,%r9d
  402498:	46 0f b6 1c 0f                                  	movzbl (%rdi,%r9,1),%r11d
  40249d:	45 0f b6 ca                                     	movzbl %r10b,%r9d
  4024a1:	46 0f b6 0c 0e                                  	movzbl (%rsi,%r9,1),%r9d
  4024a6:	45 29 cb                                        	sub    %r9d,%r11d
  4024a9:	44 89 db                                        	mov    %r11d,%ebx
  4024ac:	83 fb 00                                        	cmp    $0x0,%ebx
  4024af:	7e 07                                           	jle    4024b8 <fpc_shortstr_compare+0x48>
  4024b1:	b8 01 00 00 00                                  	mov    $0x1,%eax
  4024b6:	eb 2e                                           	jmp    4024e6 <fpc_shortstr_compare+0x76>
  4024b8:	83 fb 00                                        	cmp    $0x0,%ebx
  4024bb:	7d 07                                           	jge    4024c4 <fpc_shortstr_compare+0x54>
  4024bd:	b8 ff ff ff ff                                  	mov    $0xffffffff,%eax
  4024c2:	eb 22                                           	jmp    4024e6 <fpc_shortstr_compare+0x76>
  4024c4:	44 38 d2                                        	cmp    %r10b,%dl
  4024c7:	77 c7                                           	ja     402490 <fpc_shortstr_compare+0x20>
  4024c9:	44 38 c1                                        	cmp    %r8b,%cl
  4024cc:	76 07                                           	jbe    4024d5 <fpc_shortstr_compare+0x65>
  4024ce:	b8 01 00 00 00                                  	mov    $0x1,%eax
  4024d3:	eb 11                                           	jmp    4024e6 <fpc_shortstr_compare+0x76>
  4024d5:	44 38 c1                                        	cmp    %r8b,%cl
  4024d8:	73 07                                           	jae    4024e1 <fpc_shortstr_compare+0x71>
  4024da:	b8 ff ff ff ff                                  	mov    $0xffffffff,%eax
  4024df:	eb 05                                           	jmp    4024e6 <fpc_shortstr_compare+0x76>
  4024e1:	b8 00 00 00 00                                  	mov    $0x0,%eax
  4024e6:	5b                                              	pop    %rbx
  4024e7:	c3                                              	retq   
	...

00000000004024f0 <fpc_shortstr_compare_equal>:
fpc_shortstr_compare_equal():
  4024f0:	53                                              	push   %rbx
  4024f1:	0f b6 1f                                        	movzbl (%rdi),%ebx
  4024f4:	0f b6 06                                        	movzbl (%rsi),%eax
  4024f7:	29 c3                                           	sub    %eax,%ebx
  4024f9:	85 db                                           	test   %ebx,%ebx
  4024fb:	75 15                                           	jne    402512 <fpc_shortstr_compare_equal+0x22>
  4024fd:	0f b6 17                                        	movzbl (%rdi),%edx
  402500:	48 63 d2                                        	movslq %edx,%rdx
  402503:	48 8d 76 01                                     	lea    0x1(%rsi),%rsi
  402507:	48 8d 7f 01                                     	lea    0x1(%rdi),%rdi
  40250b:	e8 d0 ee ff ff                                  	callq  4013e0 <SYSTEM_$$_COMPAREBYTE$formal$formal$INT64$$INT64>
  402510:	89 c3                                           	mov    %eax,%ebx
  402512:	89 d8                                           	mov    %ebx,%eax
  402514:	5b                                              	pop    %rbx
  402515:	c3                                              	retq   
	...

0000000000402520 <fpc_pchar_to_shortstr>:
fpc_pchar_to_shortstr():
  402520:	53                                              	push   %rbx
  402521:	41 54                                           	push   %r12
  402523:	41 55                                           	push   %r13
  402525:	41 56                                           	push   %r14
  402527:	48 8d a4 24 f8 fe ff ff                         	lea    -0x108(%rsp),%rsp
  40252f:	49 89 fc                                        	mov    %rdi,%r12
  402532:	49 89 f5                                        	mov    %rsi,%r13
  402535:	49 89 d6                                        	mov    %rdx,%r14
  402538:	4d 85 f6                                        	test   %r14,%r14
  40253b:	75 07                                           	jne    402544 <fpc_pchar_to_shortstr+0x24>
  40253d:	bb 00 00 00 00                                  	mov    $0x0,%ebx
  402542:	eb 0a                                           	jmp    40254e <fpc_pchar_to_shortstr+0x2e>
  402544:	4c 89 f7                                        	mov    %r14,%rdi
  402547:	e8 b4 03 00 00                                  	callq  402900 <fpc_pchar_length>
  40254c:	89 c3                                           	mov    %eax,%ebx
  40254e:	48 63 c3                                        	movslq %ebx,%rax
  402551:	4c 39 e8                                        	cmp    %r13,%rax
  402554:	7e 05                                           	jle    40255b <fpc_pchar_to_shortstr+0x3b>
  402556:	44 89 e8                                        	mov    %r13d,%eax
  402559:	89 c3                                           	mov    %eax,%ebx
  40255b:	83 fb 00                                        	cmp    $0x0,%ebx
  40255e:	7e 10                                           	jle    402570 <fpc_pchar_to_shortstr+0x50>
  402560:	48 63 d3                                        	movslq %ebx,%rdx
  402563:	4c 89 f7                                        	mov    %r14,%rdi
  402566:	48 8d 74 24 01                                  	lea    0x1(%rsp),%rsi
  40256b:	e8 c0 e8 ff ff                                  	callq  400e30 <SYSTEM_$$_MOVE$formal$formal$INT64>
  402570:	88 d8                                           	mov    %bl,%al
  402572:	88 04 24                                        	mov    %al,(%rsp)
  402575:	4c 89 e7                                        	mov    %r12,%rdi
  402578:	48 89 e2                                        	mov    %rsp,%rdx
  40257b:	4c 89 ee                                        	mov    %r13,%rsi
  40257e:	e8 ed fa ff ff                                  	callq  402070 <fpc_shortstr_to_shortstr>
  402583:	48 8d a4 24 08 01 00 00                         	lea    0x108(%rsp),%rsp
  40258b:	41 5e                                           	pop    %r14
  40258d:	41 5d                                           	pop    %r13
  40258f:	41 5c                                           	pop    %r12
  402591:	5b                                              	pop    %rbx
  402592:	c3                                              	retq   
	...

00000000004025a0 <SYSTEM_$$_STRPAS$PCHAR$$SHORTSTRING>:
SYSTEM_$$_STRPAS$PCHAR$$SHORTSTRING():
  4025a0:	48 8d 64 24 f8                                  	lea    -0x8(%rsp),%rsp
  4025a5:	48 89 f8                                        	mov    %rdi,%rax
  4025a8:	48 89 f2                                        	mov    %rsi,%rdx
  4025ab:	48 89 c7                                        	mov    %rax,%rdi
  4025ae:	48 be ff 00 00 00 00 00 00 00                   	movabs $0xff,%rsi
  4025b8:	e8 63 ff ff ff                                  	callq  402520 <fpc_pchar_to_shortstr>
  4025bd:	48 8d 64 24 08                                  	lea    0x8(%rsp),%rsp
  4025c2:	c3                                              	retq   
	...

00000000004025d0 <SYSTEM_$$_UTF8CODEPOINTLEN$PCHAR$INT64$BOOLEAN$$INT64>:
SYSTEM_$$_UTF8CODEPOINTLEN$PCHAR$INT64$BOOLEAN$$INT64():
  4025d0:	48 83 fe 00                                     	cmp    $0x0,%rsi
  4025d4:	7f 0f                                           	jg     4025e5 <SYSTEM_$$_UTF8CODEPOINTLEN$PCHAR$INT64$BOOLEAN$$INT64+0x15>
  4025d6:	48 b8 00 00 00 00 00 00 00 00                   	movabs $0x0,%rax
  4025e0:	e9 03 02 00 00                                  	jmpq   4027e8 <SYSTEM_$$_UTF8CODEPOINTLEN$PCHAR$INT64$BOOLEAN$$INT64+0x218>
  4025e5:	48 b8 01 00 00 00 00 00 00 00                   	movabs $0x1,%rax
  4025ef:	80 3f 7f                                        	cmpb   $0x7f,(%rdi)
  4025f2:	0f 86 8d 00 00 00                               	jbe    402685 <SYSTEM_$$_UTF8CODEPOINTLEN$PCHAR$INT64$BOOLEAN$$INT64+0xb5>
  4025f8:	8a 0f                                           	mov    (%rdi),%cl
  4025fa:	f6 d1                                           	not    %cl
  4025fc:	81 e1 ff 00 00 00                               	and    $0xff,%ecx
  402602:	48 0f bd c9                                     	bsr    %rcx,%rcx
  402606:	75 0a                                           	jne    402612 <SYSTEM_$$_UTF8CODEPOINTLEN$PCHAR$INT64$BOOLEAN$$INT64+0x42>
  402608:	48 b9 ff 00 00 00 00 00 00 00                   	movabs $0xff,%rcx
  402612:	80 f9 01                                        	cmp    $0x1,%cl
  402615:	76 05                                           	jbe    40261c <SYSTEM_$$_UTF8CODEPOINTLEN$PCHAR$INT64$BOOLEAN$$INT64+0x4c>
  402617:	80 f9 06                                        	cmp    $0x6,%cl
  40261a:	72 0e                                           	jb     40262a <SYSTEM_$$_UTF8CODEPOINTLEN$PCHAR$INT64$BOOLEAN$$INT64+0x5a>
  40261c:	49 89 c0                                        	mov    %rax,%r8
  40261f:	49 f7 d8                                        	neg    %r8
  402622:	4c 89 c0                                        	mov    %r8,%rax
  402625:	e9 be 01 00 00                                  	jmpq   4027e8 <SYSTEM_$$_UTF8CODEPOINTLEN$PCHAR$INT64$BOOLEAN$$INT64+0x218>
  40262a:	81 e1 ff 00 00 00                               	and    $0xff,%ecx
  402630:	49 b8 06 00 00 00 00 00 00 00                   	movabs $0x6,%r8
  40263a:	49 29 c8                                        	sub    %rcx,%r8
  40263d:	eb 09                                           	jmp    402648 <SYSTEM_$$_UTF8CODEPOINTLEN$PCHAR$INT64$BOOLEAN$$INT64+0x78>
  40263f:	90                                              	nop
  402640:	48 83 c0 01                                     	add    $0x1,%rax
  402644:	49 83 e8 01                                     	sub    $0x1,%r8
  402648:	48 39 f0                                        	cmp    %rsi,%rax
  40264b:	7d 11                                           	jge    40265e <SYSTEM_$$_UTF8CODEPOINTLEN$PCHAR$INT64$BOOLEAN$$INT64+0x8e>
  40264d:	49 83 f8 00                                     	cmp    $0x0,%r8
  402651:	7e 0b                                           	jle    40265e <SYSTEM_$$_UTF8CODEPOINTLEN$PCHAR$INT64$BOOLEAN$$INT64+0x8e>
  402653:	8a 0c 07                                        	mov    (%rdi,%rax,1),%cl
  402656:	80 e1 c0                                        	and    $0xc0,%cl
  402659:	80 f9 80                                        	cmp    $0x80,%cl
  40265c:	74 e2                                           	je     402640 <SYSTEM_$$_UTF8CODEPOINTLEN$PCHAR$INT64$BOOLEAN$$INT64+0x70>
  40265e:	4d 85 c0                                        	test   %r8,%r8
  402661:	74 22                                           	je     402685 <SYSTEM_$$_UTF8CODEPOINTLEN$PCHAR$INT64$BOOLEAN$$INT64+0xb5>
  402663:	48 39 f0                                        	cmp    %rsi,%rax
  402666:	7c 0f                                           	jl     402677 <SYSTEM_$$_UTF8CODEPOINTLEN$PCHAR$INT64$BOOLEAN$$INT64+0xa7>
  402668:	48 b8 00 00 00 00 00 00 00 00                   	movabs $0x0,%rax
  402672:	e9 71 01 00 00                                  	jmpq   4027e8 <SYSTEM_$$_UTF8CODEPOINTLEN$PCHAR$INT64$BOOLEAN$$INT64+0x218>
  402677:	48 89 c1                                        	mov    %rax,%rcx
  40267a:	48 f7 d9                                        	neg    %rcx
  40267d:	48 89 c8                                        	mov    %rcx,%rax
  402680:	e9 63 01 00 00                                  	jmpq   4027e8 <SYSTEM_$$_UTF8CODEPOINTLEN$PCHAR$INT64$BOOLEAN$$INT64+0x218>
  402685:	84 d2                                           	test   %dl,%dl
  402687:	0f 84 5b 01 00 00                               	je     4027e8 <SYSTEM_$$_UTF8CODEPOINTLEN$PCHAR$INT64$BOOLEAN$$INT64+0x218>
  40268d:	66 66 90                                        	data16 xchg %ax,%ax
  402690:	49 89 c0                                        	mov    %rax,%r8
  402693:	48 8d 50 01                                     	lea    0x1(%rax),%rdx
  402697:	48 39 f2                                        	cmp    %rsi,%rdx
  40269a:	0f 8d b4 00 00 00                               	jge    402754 <SYSTEM_$$_UTF8CODEPOINTLEN$PCHAR$INT64$BOOLEAN$$INT64+0x184>
  4026a0:	8a 14 07                                        	mov    (%rdi,%rax,1),%dl
  4026a3:	80 e2 cc                                        	and    $0xcc,%dl
  4026a6:	80 fa cc                                        	cmp    $0xcc,%dl
  4026a9:	75 17                                           	jne    4026c2 <SYSTEM_$$_UTF8CODEPOINTLEN$PCHAR$INT64$BOOLEAN$$INT64+0xf2>
  4026ab:	8a 54 07 01                                     	mov    0x1(%rdi,%rax,1),%dl
  4026af:	80 fa 80                                        	cmp    $0x80,%dl
  4026b2:	72 0e                                           	jb     4026c2 <SYSTEM_$$_UTF8CODEPOINTLEN$PCHAR$INT64$BOOLEAN$$INT64+0xf2>
  4026b4:	80 fa af                                        	cmp    $0xaf,%dl
  4026b7:	77 09                                           	ja     4026c2 <SYSTEM_$$_UTF8CODEPOINTLEN$PCHAR$INT64$BOOLEAN$$INT64+0xf2>
  4026b9:	48 83 c0 02                                     	add    $0x2,%rax
  4026bd:	e9 92 00 00 00                                  	jmpq   402754 <SYSTEM_$$_UTF8CODEPOINTLEN$PCHAR$INT64$BOOLEAN$$INT64+0x184>
  4026c2:	48 8d 50 02                                     	lea    0x2(%rax),%rdx
  4026c6:	48 39 f2                                        	cmp    %rsi,%rdx
  4026c9:	0f 8d 85 00 00 00                               	jge    402754 <SYSTEM_$$_UTF8CODEPOINTLEN$PCHAR$INT64$BOOLEAN$$INT64+0x184>
  4026cf:	80 3c 07 e1                                     	cmpb   $0xe1,(%rdi,%rax,1)
  4026d3:	0f 82 7b 00 00 00                               	jb     402754 <SYSTEM_$$_UTF8CODEPOINTLEN$PCHAR$INT64$BOOLEAN$$INT64+0x184>
  4026d9:	44 8a 0c 07                                     	mov    (%rdi,%rax,1),%r9b
  4026dd:	41 80 f9 e1                                     	cmp    $0xe1,%r9b
  4026e1:	0f 94 c2                                        	sete   %dl
  4026e4:	84 d2                                           	test   %dl,%dl
  4026e6:	74 19                                           	je     402701 <SYSTEM_$$_UTF8CODEPOINTLEN$PCHAR$INT64$BOOLEAN$$INT64+0x131>
  4026e8:	80 7c 07 01 aa                                  	cmpb   $0xaa,0x1(%rdi,%rax,1)
  4026ed:	75 12                                           	jne    402701 <SYSTEM_$$_UTF8CODEPOINTLEN$PCHAR$INT64$BOOLEAN$$INT64+0x131>
  4026ef:	8a 4c 07 02                                     	mov    0x2(%rdi,%rax,1),%cl
  4026f3:	80 f9 b0                                        	cmp    $0xb0,%cl
  4026f6:	72 09                                           	jb     402701 <SYSTEM_$$_UTF8CODEPOINTLEN$PCHAR$INT64$BOOLEAN$$INT64+0x131>
  4026f8:	80 f9 bf                                        	cmp    $0xbf,%cl
  4026fb:	0f 86 4f 00 00 00                               	jbe    402750 <SYSTEM_$$_UTF8CODEPOINTLEN$PCHAR$INT64$BOOLEAN$$INT64+0x180>
  402701:	84 d2                                           	test   %dl,%dl
  402703:	74 15                                           	je     40271a <SYSTEM_$$_UTF8CODEPOINTLEN$PCHAR$INT64$BOOLEAN$$INT64+0x14a>
  402705:	80 7c 07 01 b7                                  	cmpb   $0xb7,0x1(%rdi,%rax,1)
  40270a:	75 0e                                           	jne    40271a <SYSTEM_$$_UTF8CODEPOINTLEN$PCHAR$INT64$BOOLEAN$$INT64+0x14a>
  40270c:	8a 54 07 02                                     	mov    0x2(%rdi,%rax,1),%dl
  402710:	80 fa 80                                        	cmp    $0x80,%dl
  402713:	72 05                                           	jb     40271a <SYSTEM_$$_UTF8CODEPOINTLEN$PCHAR$INT64$BOOLEAN$$INT64+0x14a>
  402715:	80 fa bf                                        	cmp    $0xbf,%dl
  402718:	76 36                                           	jbe    402750 <SYSTEM_$$_UTF8CODEPOINTLEN$PCHAR$INT64$BOOLEAN$$INT64+0x180>
  40271a:	41 80 f9 e2                                     	cmp    $0xe2,%r9b
  40271e:	75 15                                           	jne    402735 <SYSTEM_$$_UTF8CODEPOINTLEN$PCHAR$INT64$BOOLEAN$$INT64+0x165>
  402720:	80 7c 07 01 83                                  	cmpb   $0x83,0x1(%rdi,%rax,1)
  402725:	75 0e                                           	jne    402735 <SYSTEM_$$_UTF8CODEPOINTLEN$PCHAR$INT64$BOOLEAN$$INT64+0x165>
  402727:	8a 54 07 02                                     	mov    0x2(%rdi,%rax,1),%dl
  40272b:	80 fa 90                                        	cmp    $0x90,%dl
  40272e:	72 05                                           	jb     402735 <SYSTEM_$$_UTF8CODEPOINTLEN$PCHAR$INT64$BOOLEAN$$INT64+0x165>
  402730:	80 fa bf                                        	cmp    $0xbf,%dl
  402733:	76 1b                                           	jbe    402750 <SYSTEM_$$_UTF8CODEPOINTLEN$PCHAR$INT64$BOOLEAN$$INT64+0x180>
  402735:	41 80 f9 ef                                     	cmp    $0xef,%r9b
  402739:	75 19                                           	jne    402754 <SYSTEM_$$_UTF8CODEPOINTLEN$PCHAR$INT64$BOOLEAN$$INT64+0x184>
  40273b:	80 7c 07 01 b8                                  	cmpb   $0xb8,0x1(%rdi,%rax,1)
  402740:	75 12                                           	jne    402754 <SYSTEM_$$_UTF8CODEPOINTLEN$PCHAR$INT64$BOOLEAN$$INT64+0x184>
  402742:	8a 54 07 02                                     	mov    0x2(%rdi,%rax,1),%dl
  402746:	80 fa a0                                        	cmp    $0xa0,%dl
  402749:	72 09                                           	jb     402754 <SYSTEM_$$_UTF8CODEPOINTLEN$PCHAR$INT64$BOOLEAN$$INT64+0x184>
  40274b:	80 fa af                                        	cmp    $0xaf,%dl
  40274e:	77 04                                           	ja     402754 <SYSTEM_$$_UTF8CODEPOINTLEN$PCHAR$INT64$BOOLEAN$$INT64+0x184>
  402750:	48 83 c0 03                                     	add    $0x3,%rax
  402754:	49 39 c0                                        	cmp    %rax,%r8
  402757:	0f 85 33 ff ff ff                               	jne    402690 <SYSTEM_$$_UTF8CODEPOINTLEN$PCHAR$INT64$BOOLEAN$$INT64+0xc0>
  40275d:	48 39 f0                                        	cmp    %rsi,%rax
  402760:	0f 8d 82 00 00 00                               	jge    4027e8 <SYSTEM_$$_UTF8CODEPOINTLEN$PCHAR$INT64$BOOLEAN$$INT64+0x218>
  402766:	8a 0c 07                                        	mov    (%rdi,%rax,1),%cl
  402769:	88 ca                                           	mov    %cl,%dl
  40276b:	80 e2 cc                                        	and    $0xcc,%dl
  40276e:	80 fa cc                                        	cmp    $0xcc,%dl
  402771:	75 0d                                           	jne    402780 <SYSTEM_$$_UTF8CODEPOINTLEN$PCHAR$INT64$BOOLEAN$$INT64+0x1b0>
  402773:	48 8d 50 01                                     	lea    0x1(%rax),%rdx
  402777:	48 39 f2                                        	cmp    %rsi,%rdx
  40277a:	0f 8d 5e 00 00 00                               	jge    4027de <SYSTEM_$$_UTF8CODEPOINTLEN$PCHAR$INT64$BOOLEAN$$INT64+0x20e>
  402780:	80 f9 e1                                        	cmp    $0xe1,%cl
  402783:	75 1f                                           	jne    4027a4 <SYSTEM_$$_UTF8CODEPOINTLEN$PCHAR$INT64$BOOLEAN$$INT64+0x1d4>
  402785:	48 8d 50 01                                     	lea    0x1(%rax),%rdx
  402789:	48 39 f2                                        	cmp    %rsi,%rdx
  40278c:	7d 50                                           	jge    4027de <SYSTEM_$$_UTF8CODEPOINTLEN$PCHAR$INT64$BOOLEAN$$INT64+0x20e>
  40278e:	8a 14 17                                        	mov    (%rdi,%rdx,1),%dl
  402791:	80 fa aa                                        	cmp    $0xaa,%dl
  402794:	74 05                                           	je     40279b <SYSTEM_$$_UTF8CODEPOINTLEN$PCHAR$INT64$BOOLEAN$$INT64+0x1cb>
  402796:	80 fa b7                                        	cmp    $0xb7,%dl
  402799:	75 09                                           	jne    4027a4 <SYSTEM_$$_UTF8CODEPOINTLEN$PCHAR$INT64$BOOLEAN$$INT64+0x1d4>
  40279b:	48 8d 50 02                                     	lea    0x2(%rax),%rdx
  40279f:	48 39 f2                                        	cmp    %rsi,%rdx
  4027a2:	7d 3a                                           	jge    4027de <SYSTEM_$$_UTF8CODEPOINTLEN$PCHAR$INT64$BOOLEAN$$INT64+0x20e>
  4027a4:	80 f9 e2                                        	cmp    $0xe2,%cl
  4027a7:	75 18                                           	jne    4027c1 <SYSTEM_$$_UTF8CODEPOINTLEN$PCHAR$INT64$BOOLEAN$$INT64+0x1f1>
  4027a9:	48 8d 50 01                                     	lea    0x1(%rax),%rdx
  4027ad:	48 39 f2                                        	cmp    %rsi,%rdx
  4027b0:	7d 2c                                           	jge    4027de <SYSTEM_$$_UTF8CODEPOINTLEN$PCHAR$INT64$BOOLEAN$$INT64+0x20e>
  4027b2:	80 3c 17 83                                     	cmpb   $0x83,(%rdi,%rdx,1)
  4027b6:	75 09                                           	jne    4027c1 <SYSTEM_$$_UTF8CODEPOINTLEN$PCHAR$INT64$BOOLEAN$$INT64+0x1f1>
  4027b8:	48 8d 50 02                                     	lea    0x2(%rax),%rdx
  4027bc:	48 39 f2                                        	cmp    %rsi,%rdx
  4027bf:	7d 1d                                           	jge    4027de <SYSTEM_$$_UTF8CODEPOINTLEN$PCHAR$INT64$BOOLEAN$$INT64+0x20e>
  4027c1:	80 f9 ef                                        	cmp    $0xef,%cl
  4027c4:	75 22                                           	jne    4027e8 <SYSTEM_$$_UTF8CODEPOINTLEN$PCHAR$INT64$BOOLEAN$$INT64+0x218>
  4027c6:	48 8d 50 01                                     	lea    0x1(%rax),%rdx
  4027ca:	48 39 f2                                        	cmp    %rsi,%rdx
  4027cd:	7d 0f                                           	jge    4027de <SYSTEM_$$_UTF8CODEPOINTLEN$PCHAR$INT64$BOOLEAN$$INT64+0x20e>
  4027cf:	80 3c 17 b8                                     	cmpb   $0xb8,(%rdi,%rdx,1)
  4027d3:	75 13                                           	jne    4027e8 <SYSTEM_$$_UTF8CODEPOINTLEN$PCHAR$INT64$BOOLEAN$$INT64+0x218>
  4027d5:	48 8d 50 02                                     	lea    0x2(%rax),%rdx
  4027d9:	48 39 f2                                        	cmp    %rsi,%rdx
  4027dc:	7c 0a                                           	jl     4027e8 <SYSTEM_$$_UTF8CODEPOINTLEN$PCHAR$INT64$BOOLEAN$$INT64+0x218>
  4027de:	48 b8 00 00 00 00 00 00 00 00                   	movabs $0x0,%rax
  4027e8:	c3                                              	retq   
  4027e9:	00 00                                           	add    %al,(%rax)
  4027eb:	00 00                                           	add    %al,(%rax)
  4027ed:	00 00                                           	add    %al,(%rax)
	...

00000000004027f0 <fpc_chararray_to_shortstr>:
fpc_chararray_to_shortstr():
  4027f0:	55                                              	push   %rbp
  4027f1:	48 89 e5                                        	mov    %rsp,%rbp
  4027f4:	48 8d 64 24 e0                                  	lea    -0x20(%rsp),%rsp
  4027f9:	48 89 5d e0                                     	mov    %rbx,-0x20(%rbp)
  4027fd:	4c 89 65 e8                                     	mov    %r12,-0x18(%rbp)
  402801:	4c 89 6d f0                                     	mov    %r13,-0x10(%rbp)
  402805:	4c 89 75 f8                                     	mov    %r14,-0x8(%rbp)
  402809:	48 89 fb                                        	mov    %rdi,%rbx
  40280c:	49 89 d4                                        	mov    %rdx,%r12
  40280f:	4c 8d 69 01                                     	lea    0x1(%rcx),%r13
  402813:	49 63 c5                                        	movslq %r13d,%rax
  402816:	48 8d 56 01                                     	lea    0x1(%rsi),%rdx
  40281a:	48 39 d0                                        	cmp    %rdx,%rax
  40281d:	7c 05                                           	jl     402824 <fpc_chararray_to_shortstr+0x34>
  40281f:	41 89 f5                                        	mov    %esi,%r13d
  402822:	eb 0c                                           	jmp    402830 <fpc_chararray_to_shortstr+0x40>
  402824:	41 83 fd 00                                     	cmp    $0x0,%r13d
  402828:	7d 06                                           	jge    402830 <fpc_chararray_to_shortstr+0x40>
  40282a:	41 bd 00 00 00 00                               	mov    $0x0,%r13d
  402830:	45 84 c0                                        	test   %r8b,%r8b
  402833:	74 1f                                           	je     402854 <fpc_chararray_to_shortstr+0x64>
  402835:	49 63 f5                                        	movslq %r13d,%rsi
  402838:	4c 89 e7                                        	mov    %r12,%rdi
  40283b:	ba 00 00 00 00                                  	mov    $0x0,%edx
  402840:	e8 1b ea ff ff                                  	callq  401260 <SYSTEM_$$_INDEXBYTE$formal$INT64$BYTE$$INT64>
  402845:	83 f8 00                                        	cmp    $0x0,%eax
  402848:	7d 05                                           	jge    40284f <fpc_chararray_to_shortstr+0x5f>
  40284a:	45 88 ee                                        	mov    %r13b,%r14b
  40284d:	eb 08                                           	jmp    402857 <fpc_chararray_to_shortstr+0x67>
  40284f:	41 88 c6                                        	mov    %al,%r14b
  402852:	eb 03                                           	jmp    402857 <fpc_chararray_to_shortstr+0x67>
  402854:	45 88 ee                                        	mov    %r13b,%r14b
  402857:	41 0f b6 d6                                     	movzbl %r14b,%edx
  40285b:	48 8d 73 01                                     	lea    0x1(%rbx),%rsi
  40285f:	4c 89 e7                                        	mov    %r12,%rdi
  402862:	e8 c9 e5 ff ff                                  	callq  400e30 <SYSTEM_$$_MOVE$formal$formal$INT64>
  402867:	44 88 33                                        	mov    %r14b,(%rbx)
  40286a:	48 8b 5d e0                                     	mov    -0x20(%rbp),%rbx
  40286e:	4c 8b 65 e8                                     	mov    -0x18(%rbp),%r12
  402872:	4c 8b 6d f0                                     	mov    -0x10(%rbp),%r13
  402876:	4c 8b 75 f8                                     	mov    -0x8(%rbp),%r14
  40287a:	c9                                              	leaveq 
  40287b:	c3                                              	retq   
  40287c:	00 00                                           	add    %al,(%rax)
	...

0000000000402880 <fpc_shortstr_to_chararray>:
fpc_shortstr_to_chararray():
  402880:	55                                              	push   %rbp
  402881:	48 89 e5                                        	mov    %rsp,%rbp
  402884:	48 8d 64 24 e0                                  	lea    -0x20(%rsp),%rsp
  402889:	48 89 5d e8                                     	mov    %rbx,-0x18(%rbp)
  40288d:	4c 89 65 f0                                     	mov    %r12,-0x10(%rbp)
  402891:	4c 89 6d f8                                     	mov    %r13,-0x8(%rbp)
  402895:	48 89 fb                                        	mov    %rdi,%rbx
  402898:	49 89 f4                                        	mov    %rsi,%r12
  40289b:	48 89 d0                                        	mov    %rdx,%rax
  40289e:	44 0f b6 28                                     	movzbl (%rax),%r13d
  4028a2:	49 63 d5                                        	movslq %r13d,%rdx
  4028a5:	49 8d 4c 24 01                                  	lea    0x1(%r12),%rcx
  4028aa:	48 39 ca                                        	cmp    %rcx,%rdx
  4028ad:	7e 08                                           	jle    4028b7 <fpc_shortstr_to_chararray+0x37>
  4028af:	49 8d 54 24 01                                  	lea    0x1(%r12),%rdx
  4028b4:	41 89 d5                                        	mov    %edx,%r13d
  4028b7:	41 83 fd 00                                     	cmp    $0x0,%r13d
  4028bb:	7e 0f                                           	jle    4028cc <fpc_shortstr_to_chararray+0x4c>
  4028bd:	49 63 d5                                        	movslq %r13d,%rdx
  4028c0:	48 89 de                                        	mov    %rbx,%rsi
  4028c3:	48 8d 78 01                                     	lea    0x1(%rax),%rdi
  4028c7:	e8 64 e5 ff ff                                  	callq  400e30 <SYSTEM_$$_MOVE$formal$formal$INT64>
  4028cc:	49 8d 74 24 01                                  	lea    0x1(%r12),%rsi
  4028d1:	49 63 c5                                        	movslq %r13d,%rax
  4028d4:	48 29 c6                                        	sub    %rax,%rsi
  4028d7:	4d 63 ed                                        	movslq %r13d,%r13
  4028da:	4a 8d 3c 2b                                     	lea    (%rbx,%r13,1),%rdi
  4028de:	ba 00 00 00 00                                  	mov    $0x0,%edx
  4028e3:	e8 58 e8 ff ff                                  	callq  401140 <SYSTEM_$$_FILLCHAR$formal$INT64$BYTE>
  4028e8:	48 8b 5d e8                                     	mov    -0x18(%rbp),%rbx
  4028ec:	4c 8b 65 f0                                     	mov    -0x10(%rbp),%r12
  4028f0:	4c 8b 6d f8                                     	mov    -0x8(%rbp),%r13
  4028f4:	c9                                              	leaveq 
  4028f5:	c3                                              	retq   
	...

0000000000402900 <fpc_pchar_length>:
fpc_pchar_length():
  402900:	48 b8 00 00 00 00 00 00 00 00                   	movabs $0x0,%rax
  40290a:	48 85 ff                                        	test   %rdi,%rdi
  40290d:	74 13                                           	je     402922 <fpc_pchar_length+0x22>
  40290f:	eb 0b                                           	jmp    40291c <fpc_pchar_length+0x1c>
  402911:	66 66 66 90                                     	data16 data16 xchg %ax,%ax
  402915:	66 66 90                                        	data16 xchg %ax,%ax
  402918:	48 83 c0 01                                     	add    $0x1,%rax
  40291c:	80 3c 07 00                                     	cmpb   $0x0,(%rdi,%rax,1)
  402920:	75 f6                                           	jne    402918 <fpc_pchar_length+0x18>
  402922:	c3                                              	retq   
	...

0000000000402930 <fpc_pwidechar_length>:
fpc_pwidechar_length():
  402930:	48 b8 00 00 00 00 00 00 00 00                   	movabs $0x0,%rax
  40293a:	48 85 ff                                        	test   %rdi,%rdi
  40293d:	74 15                                           	je     402954 <fpc_pwidechar_length+0x24>
  40293f:	eb 0b                                           	jmp    40294c <fpc_pwidechar_length+0x1c>
  402941:	66 66 66 90                                     	data16 data16 xchg %ax,%ax
  402945:	66 66 90                                        	data16 xchg %ax,%ax
  402948:	48 83 c0 01                                     	add    $0x1,%rax
  40294c:	66 81 3c 47 00 00                               	cmpw   $0x0,(%rdi,%rax,2)
  402952:	75 f4                                           	jne    402948 <fpc_pwidechar_length+0x18>
  402954:	c3                                              	retq   
	...

0000000000402960 <SYSTEM_$$_ODD$LONGINT$$BOOLEAN>:
SYSTEM_$$_ODD$LONGINT$$BOOLEAN():
  402960:	89 f8                                           	mov    %edi,%eax
  402962:	83 e0 01                                        	and    $0x1,%eax
  402965:	c3                                              	retq   
	...

0000000000402970 <SYSTEM_$$_ODD$LONGWORD$$BOOLEAN>:
SYSTEM_$$_ODD$LONGWORD$$BOOLEAN():
  402970:	89 f8                                           	mov    %edi,%eax
  402972:	83 e0 01                                        	and    $0x1,%eax
  402975:	c3                                              	retq   
	...

0000000000402980 <SYSTEM_$$_ODD$INT64$$BOOLEAN>:
SYSTEM_$$_ODD$INT64$$BOOLEAN():
  402980:	48 89 f8                                        	mov    %rdi,%rax
  402983:	83 e0 01                                        	and    $0x1,%eax
  402986:	c3                                              	retq   
	...

0000000000402990 <SYSTEM_$$_ODD$QWORD$$BOOLEAN>:
SYSTEM_$$_ODD$QWORD$$BOOLEAN():
  402990:	48 89 f8                                        	mov    %rdi,%rax
  402993:	83 e0 01                                        	and    $0x1,%eax
  402996:	c3                                              	retq   
	...

00000000004029a0 <SYSTEM_$$_SQR$LONGINT$$LONGINT>:
SYSTEM_$$_SQR$LONGINT$$LONGINT():
  4029a0:	89 f8                                           	mov    %edi,%eax
  4029a2:	0f af c7                                        	imul   %edi,%eax
  4029a5:	c3                                              	retq   
	...

00000000004029b0 <SYSTEM_$$_SQR$INT64$$INT64>:
SYSTEM_$$_SQR$INT64$$INT64():
  4029b0:	48 89 f8                                        	mov    %rdi,%rax
  4029b3:	48 0f af c7                                     	imul   %rdi,%rax
  4029b7:	c3                                              	retq   
	...

00000000004029c0 <SYSTEM_$$_SQR$QWORD$$QWORD>:
SYSTEM_$$_SQR$QWORD$$QWORD():
  4029c0:	48 89 f8                                        	mov    %rdi,%rax
  4029c3:	48 0f af c7                                     	imul   %rdi,%rax
  4029c7:	c3                                              	retq   
	...

00000000004029d0 <SYSTEM_$$_ALIGN$QWORD$QWORD$$QWORD>:
SYSTEM_$$_ALIGN$QWORD$QWORD$$QWORD():
  4029d0:	48 8d 46 ff                                     	lea    -0x1(%rsi),%rax
  4029d4:	48 8d 0c 38                                     	lea    (%rax,%rdi,1),%rcx
  4029d8:	48 89 c8                                        	mov    %rcx,%rax
  4029db:	48 31 d2                                        	xor    %rdx,%rdx
  4029de:	48 f7 f6                                        	div    %rsi
  4029e1:	48 89 c8                                        	mov    %rcx,%rax
  4029e4:	48 29 d0                                        	sub    %rdx,%rax
  4029e7:	c3                                              	retq   
	...

00000000004029f0 <SYSTEM_$$_ALIGN$POINTER$QWORD$$POINTER>:
SYSTEM_$$_ALIGN$POINTER$QWORD$$POINTER():
  4029f0:	48 8d 46 ff                                     	lea    -0x1(%rsi),%rax
  4029f4:	48 8d 0c 38                                     	lea    (%rax,%rdi,1),%rcx
  4029f8:	48 89 c8                                        	mov    %rcx,%rax
  4029fb:	48 31 d2                                        	xor    %rdx,%rdx
  4029fe:	48 f7 f6                                        	div    %rsi
  402a01:	48 89 c8                                        	mov    %rcx,%rax
  402a04:	48 29 d0                                        	sub    %rdx,%rax
  402a07:	c3                                              	retq   
	...

0000000000402a10 <SYSTEM_$$_INT_STR$LONGINT$OPENSTRING>:
SYSTEM_$$_INT_STR$LONGINT$OPENSTRING():
  402a10:	53                                              	push   %rbx
  402a11:	48 8d 64 24 d0                                  	lea    -0x30(%rsp),%rsp
  402a16:	49 89 d0                                        	mov    %rdx,%r8
  402a19:	4c 8d 4e 01                                     	lea    0x1(%rsi),%r9
  402a1d:	4d 89 ca                                        	mov    %r9,%r10
  402a20:	83 ff 00                                        	cmp    $0x0,%edi
  402a23:	7d 12                                           	jge    402a37 <SYSTEM_$$_INT_STR$LONGINT$OPENSTRING+0x27>
  402a25:	41 c6 02 2d                                     	movb   $0x2d,(%r10)
  402a29:	49 83 c2 01                                     	add    $0x1,%r10
  402a2d:	48 63 c7                                        	movslq %edi,%rax
  402a30:	48 f7 d8                                        	neg    %rax
  402a33:	89 c1                                           	mov    %eax,%ecx
  402a35:	eb 02                                           	jmp    402a39 <SYSTEM_$$_INT_STR$LONGINT$OPENSTRING+0x29>
  402a37:	89 f9                                           	mov    %edi,%ecx
  402a39:	48 89 e7                                        	mov    %rsp,%rdi
  402a3c:	49 89 fb                                        	mov    %rdi,%r11
  402a3f:	90                                              	nop
  402a40:	89 ca                                           	mov    %ecx,%edx
  402a42:	b8 cd cc cc cc                                  	mov    $0xcccccccd,%eax
  402a47:	f7 e2                                           	mul    %edx
  402a49:	c1 ea 03                                        	shr    $0x3,%edx
  402a4c:	89 d3                                           	mov    %edx,%ebx
  402a4e:	49 83 c3 01                                     	add    $0x1,%r11
  402a52:	89 d8                                           	mov    %ebx,%eax
  402a54:	6b d0 0a                                        	imul   $0xa,%eax,%edx
  402a57:	89 c8                                           	mov    %ecx,%eax
  402a59:	29 d0                                           	sub    %edx,%eax
  402a5b:	67 8d 40 30                                     	lea    0x30(%eax),%eax
  402a5f:	41 88 03                                        	mov    %al,(%r11)
  402a62:	89 d9                                           	mov    %ebx,%ecx
  402a64:	85 c9                                           	test   %ecx,%ecx
  402a66:	75 d8                                           	jne    402a40 <SYSTEM_$$_INT_STR$LONGINT$OPENSTRING+0x30>
  402a68:	4c 89 d8                                        	mov    %r11,%rax
  402a6b:	48 29 f8                                        	sub    %rdi,%rax
  402a6e:	4c 89 d2                                        	mov    %r10,%rdx
  402a71:	4c 29 ca                                        	sub    %r9,%rdx
  402a74:	48 8d 04 10                                     	lea    (%rax,%rdx,1),%rax
  402a78:	4c 29 c0                                        	sub    %r8,%rax
  402a7b:	83 f8 00                                        	cmp    $0x0,%eax
  402a7e:	7e 16                                           	jle    402a96 <SYSTEM_$$_INT_STR$LONGINT$OPENSTRING+0x86>
  402a80:	48 63 c0                                        	movslq %eax,%rax
  402a83:	48 01 c7                                        	add    %rax,%rdi
  402a86:	eb 0e                                           	jmp    402a96 <SYSTEM_$$_INT_STR$LONGINT$OPENSTRING+0x86>
  402a88:	41 8a 03                                        	mov    (%r11),%al
  402a8b:	41 88 02                                        	mov    %al,(%r10)
  402a8e:	49 83 c2 01                                     	add    $0x1,%r10
  402a92:	49 83 eb 01                                     	sub    $0x1,%r11
  402a96:	49 39 fb                                        	cmp    %rdi,%r11
  402a99:	77 ed                                           	ja     402a88 <SYSTEM_$$_INT_STR$LONGINT$OPENSTRING+0x78>
  402a9b:	4d 29 ca                                        	sub    %r9,%r10
  402a9e:	44 88 16                                        	mov    %r10b,(%rsi)
  402aa1:	48 8d 64 24 30                                  	lea    0x30(%rsp),%rsp
  402aa6:	5b                                              	pop    %rbx
  402aa7:	c3                                              	retq   
	...

0000000000402ab0 <SYSTEM_$$_INT_STR_UNSIGNED$LONGWORD$OPENSTRING>:
SYSTEM_$$_INT_STR_UNSIGNED$LONGWORD$OPENSTRING():
  402ab0:	53                                              	push   %rbx
  402ab1:	48 8d 64 24 d0                                  	lea    -0x30(%rsp),%rsp
  402ab6:	48 89 d1                                        	mov    %rdx,%rcx
  402ab9:	4c 8d 46 01                                     	lea    0x1(%rsi),%r8
  402abd:	4d 89 c1                                        	mov    %r8,%r9
  402ac0:	49 89 e2                                        	mov    %rsp,%r10
