{
  "asm": [
    {
      "labels": [],
      "source": null,
      "text": "        .text"
    },
    {
      "labels": [],
      "source": null,
      "text": "        .intel_syntax noprefix"
    },
    {
      "labels": [],
      "source": null,
      "text": "        .file   \"example.cpp\""
    },
    {
      "labels": [],
      "source": null,
      "text": "        .file   1 \"/opt/compiler-explorer/libs/abseil/absl/types\" \"optional.h\""
    },
    {
      "labels": [],
      "source": null,
      "text": "        .file   2 \"/opt/compiler-explorer/libs/abseil/absl/types/internal\" \"optional.h\""
    },
    {
      "labels": [],
      "source": null,
      "text": "        .file   3 \"/opt/compiler-explorer/libs/abseil/absl/base/internal\" \"identity.h\""
    },
    {
      "labels": [],
      "source": null,
      "text": "        .file   4 \"/opt/compiler-explorer/gcc-8.3.0/lib/gcc/x86_64-linux-gnu/8.3.0/../../../../include/c++/8.3.0/ext\" \"concurrence.h\""
    },
    {
      "labels": [],
      "source": null,
      "text": "        .file   5 \"/opt/compiler-explorer/gcc-8.3.0/lib/gcc/x86_64-linux-gnu/8.3.0/../../../../include/c++/8.3.0/debug\" \"debug.h\""
    },
    {
      "labels": [],
      "source": null,
      "text": "        .file   6 \"/usr/include\" \"stdlib.h\""
    },
    {
      "labels": [],
      "source": null,
      "text": "        .file   7 \"/opt/compiler-explorer/gcc-8.3.0/lib/gcc/x86_64-linux-gnu/8.3.0/../../../../include/c++/8.3.0/bits\" \"std_abs.h\""
    },
    {
      "labels": [],
      "source": null,
      "text": "        .file   8 \"/opt/compiler-explorer/gcc-8.3.0/lib/gcc/x86_64-linux-gnu/8.3.0/../../../../include/c++/8.3.0\" \"cstdlib\""
    },
    {
      "labels": [],
      "source": null,
      "text": "        .file   9 \"/usr/include/x86_64-linux-gnu/bits\" \"stdlib-float.h\""
    },
    {
      "labels": [],
      "source": null,
      "text": "        .file   10 \"/usr/include/x86_64-linux-gnu/bits\" \"stdlib-bsearch.h\""
    },
    {
      "labels": [],
      "source": null,
      "text": "        .file   11 \"/opt/compiler-explorer/clang-8.0.0/lib/clang/8.0.0/include\" \"stddef.h\""
    },
    {
      "labels": [],
      "source": null,
      "text": "        .file   12 \"/opt/compiler-explorer/gcc-8.3.0/lib/gcc/x86_64-linux-gnu/8.3.0/../../../../include/c++/8.3.0/bits\" \"exception_ptr.h\""
    },
    {
      "labels": [],
      "source": null,
      "text": "        .file   13 \"/opt/compiler-explorer/gcc-8.3.0/lib/gcc/x86_64-linux-gnu/8.3.0/../../../../include/c++/8.3.0/x86_64-linux-gnu/bits\" \"c++config.h\""
    },
    {
      "labels": [],
      "source": null,
      "text": "        .file   14 \"/usr/include/x86_64-linux-gnu/bits/types\" \"__mbstate_t.h\""
    },
    {
      "labels": [],
      "source": null,
      "text": "        .file   15 \"/usr/include/x86_64-linux-gnu/bits/types\" \"mbstate_t.h\""
    },
    {
      "labels": [],
      "source": null,
      "text": "        .file   16 \"/opt/compiler-explorer/gcc-8.3.0/lib/gcc/x86_64-linux-gnu/8.3.0/../../../../include/c++/8.3.0\" \"cwchar\""
    },
    {
      "labels": [],
      "source": null,
      "text": "        .file   17 \"/usr/include/x86_64-linux-gnu/bits/types\" \"wint_t.h\""
    },
    {
      "labels": [],
      "source": null,
      "text": "        .file   18 \"/usr/include\" \"wchar.h\""
    },
    {
      "labels": [],
      "source": null,
      "text": "        .file   19 \"/usr/include/x86_64-linux-gnu/bits\" \"libio.h\""
    },
    {
      "labels": [],
      "source": null,
      "text": "        .file   20 \"/usr/include/x86_64-linux-gnu/bits\" \"types.h\""
    },
    {
      "labels": [],
      "source": null,
      "text": "        .file   21 \"/usr/include/x86_64-linux-gnu/bits/types\" \"__FILE.h\""
    },
    {
      "labels": [],
      "source": null,
      "text": "        .file   22 \"/usr/include/x86_64-linux-gnu/bits\" \"stdint-intn.h\""
    },
    {
      "labels": [],
      "source": null,
      "text": "        .file   23 \"/opt/compiler-explorer/gcc-8.3.0/lib/gcc/x86_64-linux-gnu/8.3.0/../../../../include/c++/8.3.0\" \"cstdint\""
    },
    {
      "labels": [],
      "source": null,
      "text": "        .file   24 \"/usr/include\" \"stdint.h\""
    },
    {
      "labels": [],
      "source": null,
      "text": "        .file   25 \"/usr/include/x86_64-linux-gnu/bits\" \"stdint-uintn.h\""
    },
    {
      "labels": [],
      "source": null,
      "text": "        .file   26 \"/opt/compiler-explorer/gcc-8.3.0/lib/gcc/x86_64-linux-gnu/8.3.0/../../../../include/c++/8.3.0/ext\" \"new_allocator.h\""
    },
    {
      "labels": [],
      "source": null,
      "text": "        .file   27 \"/opt/compiler-explorer/gcc-8.3.0/lib/gcc/x86_64-linux-gnu/8.3.0/../../../../include/c++/8.3.0\" \"clocale\""
    },
    {
      "labels": [],
      "source": null,
      "text": "        .file   28 \"/usr/include\" \"locale.h\""
    },
    {
      "labels": [],
      "source": null,
      "text": "        .file   29 \"/usr/include\" \"ctype.h\""
    },
    {
      "labels": [],
      "source": null,
      "text": "        .file   30 \"/opt/compiler-explorer/gcc-8.3.0/lib/gcc/x86_64-linux-gnu/8.3.0/../../../../include/c++/8.3.0\" \"cctype\""
    },
    {
      "labels": [],
      "source": null,
      "text": "        .file   31 \"/usr/include/x86_64-linux-gnu/bits/types\" \"FILE.h\""
    },
    {
      "labels": [],
      "source": null,
      "text": "        .file   32 \"/opt/compiler-explorer/gcc-8.3.0/lib/gcc/x86_64-linux-gnu/8.3.0/../../../../include/c++/8.3.0\" \"cstdio\""
    },
    {
      "labels": [],
      "source": null,
      "text": "        .file   33 \"/usr/include/x86_64-linux-gnu/bits\" \"_G_config.h\""
    },
    {
      "labels": [],
      "source": null,
      "text": "        .file   34 \"/usr/include\" \"stdio.h\""
    },
    {
      "labels": [],
      "source": null,
      "text": "        .file   35 \"/usr/include/x86_64-linux-gnu/bits\" \"stdio.h\""
    },
    {
      "labels": [],
      "source": null,
      "text": "        .file   36 \"/opt/compiler-explorer/clang-8.0.0/lib/clang/8.0.0/include\" \"__stddef_max_align_t.h\""
    },
    {
      "labels": [],
      "source": null,
      "text": "        .file   37 \"/opt/compiler-explorer/gcc-8.3.0/lib/gcc/x86_64-linux-gnu/8.3.0/../../../../include/c++/8.3.0\" \"cstddef\""
    },
    {
      "labels": [],
      "source": null,
      "text": "        .file   38 \"/usr/include\" \"string.h\""
    },
    {
      "labels": [],
      "source": null,
      "text": "        .file   39 \"/opt/compiler-explorer/gcc-8.3.0/lib/gcc/x86_64-linux-gnu/8.3.0/../../../../include/c++/8.3.0\" \"cstring\""
    },
    {
      "labels": [],
      "source": null,
      "text": "        .file   40 \"/usr/include\" \"wctype.h\""
    },
    {
      "labels": [],
      "source": null,
      "text": "        .file   41 \"/opt/compiler-explorer/gcc-8.3.0/lib/gcc/x86_64-linux-gnu/8.3.0/../../../../include/c++/8.3.0\" \"cwctype\""
    },
    {
      "labels": [],
      "source": null,
      "text": "        .file   42 \"/usr/include/x86_64-linux-gnu/bits\" \"wctype-wchar.h\""
    },
    {
      "labels": [],
      "source": null,
      "text": "        .file   43 \"/opt/compiler-explorer/libs/abseil/absl/meta\" \"type_traits.h\""
    },
    {
      "labels": [],
      "source": null,
      "text": "        .file   44 \"/opt/compiler-explorer/gcc-8.3.0/lib/gcc/x86_64-linux-gnu/8.3.0/../../../../include/c++/8.3.0/bits\" \"shared_ptr_base.h\""
    },
    {
      "labels": [
        {
          "name": "_ZN1C8SetValueEN4absl8optionalINS0_11string_viewEEE",
          "range": {
            "endCol": 68,
            "startCol": 17
          }
        }
      ],
      "source": null,
      "text": "        .globl  _ZN1C8SetValueEN4absl8optionalINS0_11string_viewEEE # -- Begin function _ZN1C8SetValueEN4absl8optionalINS0_11string_viewEEE"
    },
    {
      "labels": [],
      "source": null,
      "text": "        .p2align        4, 0x90"
    },
    {
      "labels": [
        {
          "name": "_ZN1C8SetValueEN4absl8optionalINS0_11string_viewEEE",
          "range": {
            "endCol": 68,
            "startCol": 17
          }
        }
      ],
      "source": null,
      "text": "        .type   _ZN1C8SetValueEN4absl8optionalINS0_11string_viewEEE,@function"
    },
    {
      "labels": [],
      "source": null,
      "text": "_ZN1C8SetValueEN4absl8optionalINS0_11string_viewEEE: # @_ZN1C8SetValueEN4absl8optionalINS0_11string_viewEEE"
    },
    {
      "labels": [],
      "source": null,
      "text": ".Lfunc_begin0:"
    },
    {
      "labels": [],
      "source": null,
      "text": "        .file   45 \"/tmp/compiler-explorer-compiler119330-63-nhwu9o.wqr5f\" \"example.cpp\""
    },
    {
      "labels": [],
      "source": null,
      "text": "        .loc    45 50 0                 # example.cpp:50:0"
    },
    {
      "labels": [],
      "source": null,
      "text": "        .cfi_startproc"
    },
    {
      "labels": [],
      "source": null,
      "text": "# %bb.0:"
    },
    {
      "labels": [],
      "source": {
        "file": null,
        "line": 50
      },
      "text": "        push    rbx"
    },
    {
      "labels": [],
      "source": null,
      "text": "        .cfi_def_cfa_offset 16"
    },
    {
      "labels": [],
      "source": null,
      "text": "        .cfi_offset rbx, -16"
    },
    {
      "labels": [],
      "source": null,
      "text": "        #DEBUG_VALUE: SetValue:this <- $rdi"
    },
    {
      "labels": [],
      "source": null,
      "text": ".Ltmp0:"
    },
    {
      "labels": [],
      "source": null,
      "text": "        #DEBUG_VALUE: emplace<absl::string_view &, void>:this <- $rdi"
    },
    {
      "labels": [],
      "source": null,
      "text": "        #DEBUG_VALUE: construct<absl::string_view &>:this <- $rdi"
    },
    {
      "labels": [],
      "source": null,
      "text": "        #DEBUG_VALUE: operator=:this <- $rdi"
    },
    {
      "labels": [],
      "source": null,
      "text": "        #DEBUG_VALUE: destruct:this <- $rdi"
    },
    {
      "labels": [],
      "source": {
        "file": null,
        "line": 50
      },
      "text": "        mov     rbx, rdi"
    },
    {
      "labels": [],
      "source": null,
      "text": ".Ltmp1:"
    },
    {
      "labels": [],
      "source": null,
      "text": "        #DEBUG_VALUE: destruct:this <- $rbx"
    },
    {
      "labels": [],
      "source": null,
      "text": "        #DEBUG_VALUE: operator=:this <- $rbx"
    },
    {
      "labels": [],
      "source": null,
      "text": "        #DEBUG_VALUE: construct<absl::string_view &>:this <- $rbx"
    },
    {
      "labels": [],
      "source": null,
      "text": "        #DEBUG_VALUE: emplace<absl::string_view &, void>:this <- $rbx"
    },
    {
      "labels": [],
      "source": null,
      "text": "        #DEBUG_VALUE: operator bool:this <- [DW_OP_plus_uconst 16] [$rsp+0]"
    },
    {
      "labels": [],
      "source": null,
      "text": "        #DEBUG_VALUE: SetValue:this <- $rbx"
    },
    {
      "labels": [],
      "source": null,
      "text": "        .loc    1 447 68 prologue_end   # /opt/compiler-explorer/libs/abseil/absl/types/optional.h:447:68"
    },
    {
      "labels": [],
      "source": {
        "column": 68,
        "file": "/opt/compiler-explorer/libs/abseil/absl/types/optional.h",
        "line": 447
      },
      "text": "        cmp     byte ptr [rsp + 16], 0"
    },
    {
      "labels": [],
      "source": null,
      "text": ".Ltmp2:"
    },
    {
      "labels": [],
      "source": null,
      "text": "        .loc    45 0 0 is_stmt 0        # example.cpp:0:0"
    },
    {
      "labels": [],
      "source": {
        "file": null,
        "line": 0
      },
      "text": "        mov     al, byte ptr [rdi]"
    },
    {
      "labels": [],
      "source": null,
      "text": ".Ltmp3:"
    },
    {
      "labels": [],
      "source": null,
      "text": "        .loc    45 54 7 is_stmt 1       # example.cpp:54:7"
    },
    {
      "labels": [
        {
          "name": ".LBB0_4",
          "range": {
            "endCol": 24,
            "startCol": 17
          }
        }
      ],
      "source": {
        "column": 7,
        "file": null,
        "line": 54
      },
      "text": "        je      .LBB0_4"
    },
    {
      "labels": [],
      "source": null,
      "text": ".Ltmp4:"
    },
    {
      "labels": [],
      "source": null,
      "text": "# %bb.1:"
    },
    {
      "labels": [],
      "source": null,
      "text": "        #DEBUG_VALUE: SetValue:this <- $rbx"
    },
    {
      "labels": [],
      "source": null,
      "text": "        .loc    45 0 7 is_stmt 0        # example.cpp:0:7"
    },
    {
      "labels": [],
      "source": {
        "column": 7,
        "file": null,
        "line": 0
      },
      "text": "        lea     rcx, [rsp + 16]"
    },
    {
      "labels": [],
      "source": null,
      "text": ".Ltmp5:"
    },
    {
      "labels": [],
      "source": {
        "column": 7,
        "file": null,
        "line": 0
      },
      "text": "        lea     rdi, [rbx + 8]"
    },
    {
      "labels": [],
      "source": {
        "column": 7,
        "file": null,
        "line": 0
      },
      "text": "        mov     rsi, qword ptr [rcx + 8]"
    },
    {
      "labels": [],
      "source": {
        "column": 7,
        "file": null,
        "line": 0
      },
      "text": "        mov     rdx, qword ptr [rcx + 16]"
    },
    {
      "labels": [],
      "source": null,
      "text": ".Ltmp6:"
    },
    {
      "labels": [],
      "source": {
        "column": 7,
        "file": null,
        "line": 0
      },
      "text": "        test    al, al"
    },
    {
      "labels": [],
      "source": null,
      "text": ".Ltmp7:"
    },
    {
      "labels": [],
      "source": null,
      "text": "        .loc    45 55 9 is_stmt 1       # example.cpp:55:9"
    },
    {
      "labels": [
        {
          "name": ".LBB0_3",
          "range": {
            "endCol": 24,
            "startCol": 17
          }
        }
      ],
      "source": {
        "column": 9,
        "file": null,
        "line": 55
      },
      "text": "        je      .LBB0_3"
    },
    {
      "labels": [],
      "source": null,
      "text": ".Ltmp8:"
    },
    {
      "labels": [],
      "source": null,
      "text": "# %bb.2:"
    },
    {
      "labels": [],
      "source": null,
      "text": "        #DEBUG_VALUE: SetValue:this <- $rbx"
    },
    {
      "labels": [],
      "source": null,
      "text": "        .loc    45 56 15                # example.cpp:56:15"
    },
    {
      "labels": [],
      "source": {
        "column": 15,
        "file": null,
        "line": 56
      },
      "text": "        call    _ZN6string6assignEPKcm"
    },
    {
      "labels": [],
      "source": null,
      "text": ".Ltmp9:"
    },
    {
      "labels": [],
      "source": null,
      "text": "        .loc    45 64 1                 # example.cpp:64:1"
    },
    {
      "labels": [],
      "source": {
        "column": 1,
        "file": null,
        "line": 64
      },
      "text": "        pop     rbx"
    },
    {
      "labels": [],
      "source": null,
      "text": ".Ltmp10:"
    },
    {
      "labels": [],
      "source": null,
      "text": "        .cfi_def_cfa_offset 8"
    },
    {
      "labels": [],
      "source": {
        "column": 1,
        "file": null,
        "line": 64
      },
      "text": "        ret"
    },
    {
      "labels": [],
      "source": null,
      "text": ".LBB0_4:"
    },
    {
      "labels": [],
      "source": null,
      "text": "        .cfi_def_cfa_offset 16"
    },
    {
      "labels": [],
      "source": null,
      "text": ".Ltmp11:"
    },
    {
      "labels": [],
      "source": null,
      "text": "        #DEBUG_VALUE: SetValue:this <- $rbx"
    },
    {
      "labels": [],
      "source": null,
      "text": "        #DEBUG_VALUE: operator=:this <- $rbx"
    },
    {
      "labels": [],
      "source": null,
      "text": "        #DEBUG_VALUE: destruct:this <- $rbx"
    },
    {
      "labels": [],
      "source": null,
      "text": "        .loc    45 0 0 is_stmt 0        # example.cpp:0:0"
    },
    {
      "labels": [],
      "source": {
        "file": null,
        "line": 0
      },
      "text": "        test    al, al"
    },
    {
      "labels": [],
      "source": null,
      "text": ".Ltmp12:"
    },
    {
      "labels": [],
      "source": null,
      "text": "        .loc    2 92 9 is_stmt 1        # /opt/compiler-explorer/libs/abseil/absl/types/internal/optional.h:92:9"
    },
    {
      "labels": [
        {
          "name": ".LBB0_6",
          "range": {
            "endCol": 24,
            "startCol": 17
          }
        }
      ],
      "source": {
        "column": 9,
        "file": "/opt/compiler-explorer/libs/abseil/absl/types/internal/optional.h",
        "line": 92
      },
      "text": "        je      .LBB0_6"
    },
    {
      "labels": [],
      "source": null,
      "text": ".Ltmp13:"
    },
    {
      "labels": [],
      "source": null,
      "text": "# %bb.5:"
    },
    {
      "labels": [],
      "source": null,
      "text": "        #DEBUG_VALUE: SetValue:this <- $rbx"
    },
    {
      "labels": [],
      "source": null,
      "text": "        #DEBUG_VALUE: operator=:this <- $rbx"
    },
    {
      "labels": [],
      "source": null,
      "text": "        #DEBUG_VALUE: destruct:this <- $rbx"
    },
    {
      "labels": [],
      "source": null,
      "text": "        .loc    2 93 7                  # /opt/compiler-explorer/libs/abseil/absl/types/internal/optional.h:93:7"
    },
    {
      "labels": [],
      "source": {
        "column": 7,
        "file": "/opt/compiler-explorer/libs/abseil/absl/types/internal/optional.h",
        "line": 93
      },
      "text": "        lea     rdi, [rbx + 8]"
    },
    {
      "labels": [],
      "source": null,
      "text": "        .loc    2 93 14 is_stmt 0       # /opt/compiler-explorer/libs/abseil/absl/types/internal/optional.h:93:14"
    },
    {
      "labels": [],
      "source": {
        "column": 14,
        "file": "/opt/compiler-explorer/libs/abseil/absl/types/internal/optional.h",
        "line": 93
      },
      "text": "        call    _ZN6stringD1Ev"
    },
    {
      "labels": [],
      "source": null,
      "text": "        .loc    2 94 16 is_stmt 1       # /opt/compiler-explorer/libs/abseil/absl/types/internal/optional.h:94:16"
    },
    {
      "labels": [],
      "source": {
        "column": 16,
        "file": "/opt/compiler-explorer/libs/abseil/absl/types/internal/optional.h",
        "line": 94
      },
      "text": "        mov     byte ptr [rbx], 0"
    },
    {
      "labels": [],
      "source": null,
      "text": ".Ltmp14:"
    },
    {
      "labels": [],
      "source": null,
      "text": ".LBB0_6:"
    },
    {
      "labels": [],
      "source": null,
      "text": "        #DEBUG_VALUE: SetValue:this <- $rbx"
    },
    {
      "labels": [],
      "source": null,
      "text": "        .loc    45 64 1                 # example.cpp:64:1"
    },
    {
      "labels": [],
      "source": {
        "column": 1,
        "file": null,
        "line": 64
      },
      "text": "        pop     rbx"
    },
    {
      "labels": [],
      "source": null,
      "text": ".Ltmp15:"
    },
    {
      "labels": [],
      "source": null,
      "text": "        .cfi_def_cfa_offset 8"
    },
    {
      "labels": [],
      "source": {
        "column": 1,
        "file": null,
        "line": 64
      },
      "text": "        ret"
    },
    {
      "labels": [],
      "source": null,
      "text": ".LBB0_3:"
    },
    {
      "labels": [],
      "source": null,
      "text": "        .cfi_def_cfa_offset 16"
    },
    {
      "labels": [],
      "source": null,
      "text": ".Ltmp16:"
    },
    {
      "labels": [],
      "source": null,
      "text": "        #DEBUG_VALUE: SetValue:this <- $rbx"
    },
    {
      "labels": [],
      "source": null,
      "text": "        .loc    2 152 47                # /opt/compiler-explorer/libs/abseil/absl/types/internal/optional.h:152:47"
    },
    {
      "labels": [],
      "source": {
        "column": 47,
        "file": "/opt/compiler-explorer/libs/abseil/absl/types/internal/optional.h",
        "line": 152
      },
      "text": "        call    _ZN6stringC1EN4absl11string_viewE"
    },
    {
      "labels": [],
      "source": null,
      "text": "        .loc    2 153 20                # /opt/compiler-explorer/libs/abseil/absl/types/internal/optional.h:153:20"
    },
    {
      "labels": [],
      "source": {
        "column": 20,
        "file": "/opt/compiler-explorer/libs/abseil/absl/types/internal/optional.h",
        "line": 153
      },
      "text": "        mov     byte ptr [rbx], 1"
    },
    {
      "labels": [],
      "source": null,
      "text": ".Ltmp17:"
    },
    {
      "labels": [],
      "source": null,
      "text": "        .loc    45 64 1                 # example.cpp:64:1"
    },
    {
      "labels": [],
      "source": {
        "column": 1,
        "file": null,
        "line": 64
      },
      "text": "        pop     rbx"
    },
    {
      "labels": [],
      "source": null,
      "text": ".Ltmp18:"
    },
    {
      "labels": [],
      "source": null,
      "text": "        .cfi_def_cfa_offset 8"
    },
    {
      "labels": [],
      "source": {
        "column": 1,
        "file": null,
        "line": 64
      },
      "text": "        ret"
    },
    {
      "labels": [],
      "source": null,
      "text": ".Ltmp19:"
    },
    {
      "labels": [],
      "source": null,
      "text": ".Lfunc_end0:"
    },
    {
      "labels": [
        {
          "name": "_ZN1C8SetValueEN4absl8optionalINS0_11string_viewEEE",
          "range": {
            "endCol": 68,
            "startCol": 17
          }
        },
        {
          "name": ".Lfunc_end0",
          "range": {
            "endCol": 81,
            "startCol": 70
          }
        },
        {
          "name": "_ZN1C8SetValueEN4absl8optionalINS0_11string_viewEEE",
          "range": {
            "endCol": 133,
            "startCol": 82
          }
        }
      ],
      "source": null,
      "text": "        .size   _ZN1C8SetValueEN4absl8optionalINS0_11string_viewEEE, .Lfunc_end0-_ZN1C8SetValueEN4absl8optionalINS0_11string_viewEEE"
    },
    {
      "labels": [],
      "source": null,
      "text": "        .cfi_endproc"
    },
    {
      "labels": [],
      "source": null,
      "text": "        .file   46 \"/opt/compiler-explorer/libs/abseil/absl/strings\" \"string_view.h\""
    },
    {
      "labels": [],
      "source": null,
      "text": "        .file   47 \"/opt/compiler-explorer/gcc-8.3.0/lib/gcc/x86_64-linux-gnu/8.3.0/../../../../include/c++/8.3.0/bits\" \"stl_iterator_base_types.h\""
    },
    {
      "labels": [],
      "source": null,
      "text": "        .file   48 \"/opt/compiler-explorer/gcc-8.3.0/lib/gcc/x86_64-linux-gnu/8.3.0/../../../../include/c++/8.3.0/bits\" \"stl_iterator.h\""
    },
    {
      "labels": [],
      "source": null,
      "text": "                                        # -- End function"
    },
    {
      "labels": [],
      "source": null,
      "text": "        .section        .debug_str,\"MS\",@progbits,1"
    },
    {
      "labels": [],
      "source": null,
      "text": ".Linfo_string0:"
    },
    {
      "labels": [],
      "source": null,
      "text": "        .asciz  \"clang version 8.0.0 (tags/RELEASE_800/final 356655)\" # string offset=0"
    },
    {
      "labels": [],
      "source": null,
      "text": ".Linfo_string1:"
    },
    {
      "labels": [],
      "source": null,
      "text": "        .asciz  \"/tmp/compiler-explorer-compiler119330-63-nhwu9o.wqr5f/example.cpp\" # string offset=52"
    },
    {
      "labels": [],
      "source": null,
      "text": ".Linfo_string2:"
    },
    {
      "labels": [],
      "source": null,
      "text": "        .asciz  \"/tmp/compiler-explorer-compiler119330-63-nhwu9o.wqr5f\" # string offset=118"
    },
    {
      "labels": [],
      "source": null,
      "text": ".Linfo_string3:"
    },
    {
      "labels": [],
      "source": null,
      "text": "        .asciz  \"absl\"                  # string offset=172"
    },
    {
      "labels": [],
      "source": null,
      "text": ".Linfo_string4:"
    },
    {
      "labels": [],
      "source": null,
      "text": "        .asciz  \"kInstance\"             # string offset=177"
    },
    {
      "labels": [],
      "source": null,
      "text": ".Linfo_string5:"
    },
    {
      "labels": [],
      "source": null,
      "text": "        .asciz  \"internal\"              # string offset=187"
    },
    {
      "labels": [],
      "source": null,
      "text": ".Linfo_string6:"
    },
    {
      "labels": [],
      "source": null,
      "text": "        .asciz  \"nullopt_t\"             # string offset=196"
    },
    {
      "labels": [],
      "source": null,
      "text": ".Linfo_string7:"
    },
    {
      "labels": [],
      "source": null,
      "text": "        .asciz  \"optional_internal\"     # string offset=206"
    },
    {
      "labels": [],
      "source": null,
      "text": ".Linfo_string8:"
    },
    {
      "labels": [],
      "source": null,
      "text": "        .asciz  \"init_t\"                # string offset=224"
    },
    {
      "labels": [],
      "source": null,
      "text": ".Linfo_string9:"
    },
    {
      "labels": [],
      "source": null,
      "text": "        .asciz  \"T\"                     # string offset=231"
    },
    {
      "labels": [],
      "source": null,
      "text": ".Linfo_string10:"
    },
    {
      "labels": [],
      "source": null,
      "text": "        .asciz  \"identity<absl::nullopt_t>\" # string offset=233"
    },
    {
      "labels": [],
      "source": null,
      "text": ".Linfo_string11:"
    },
    {
      "labels": [],
      "source": null,
      "text": "        .asciz  \"type\"                  # string offset=259"
    },
    {
      "labels": [],
      "source": null,
      "text": ".Linfo_string12:"
    },
    {
      "labels": [],
      "source": null,
      "text": "        .asciz  \"identity_t<absl::nullopt_t>\" # string offset=264"
    },
    {
      "labels": [],
      "source": null,
      "text": ".Linfo_string13:"
    },
    {
      "labels": [],
      "source": null,
      "text": "        .asciz  \"AbslInternalInlineVariableHoldernullopt<void>\" # string offset=292"
    },
    {
      "labels": [],
      "source": null,
      "text": ".Linfo_string14:"
    },
    {
      "labels": [],
      "source": null,
      "text": "        .asciz  \"_ZN4absl39AbslInternalInlineVariableHoldernulloptIvE9kInstanceE\" # string offset=338"
    },
    {
      "labels": [],
      "source": null,
      "text": ".Linfo_string15:"
    },
    {
      "labels": [],
      "source": null,
      "text": "        .asciz  \"__gnu_cxx\"             # string offset=402"
    },
    {
      "labels": [],
      "source": null,
      "text": ".Linfo_string16:"
    },
    {
      "labels": [],
      "source": null,
      "text": "        .asciz  \"unsigned int\"          # string offset=412"
    },
    {
      "labels": [],
      "source": null,
      "text": ".Linfo_string17:"
    },
    {
      "labels": [],
      "source": null,
      "text": "        .asciz  \"_S_single\"             # string offset=425"
    },
    {
      "labels": [],
      "source": null,
      "text": ".Linfo_string18:"
    },
    {
      "labels": [],
      "source": null,
      "text": "        .asciz  \"_S_mutex\"              # string offset=435"
    },
    {
      "labels": [],
      "source": null,
      "text": ".Linfo_string19:"
    },
    {
      "labels": [],
      "source": null,
      "text": "        .asciz  \"_S_atomic\"             # string offset=444"
    },
    {
      "labels": [],
      "source": null,
      "text": ".Linfo_string20:"
    },
    {
      "labels": [],
      "source": null,
      "text": "        .asciz  \"_Lock_policy\"          # string offset=454"
    },
    {
      "labels": [],
      "source": null,
      "text": ".Linfo_string21:"
    },
    {
      "labels": [],
      "source": null,
      "text": "        .asciz  \"int\"                   # string offset=467"
    },
    {
      "labels": [],
      "source": null,
      "text": ".Linfo_string22:"
    },
    {
      "labels": [],
      "source": null,
      "text": "        .asciz  \"copyable\"              # string offset=471"
    },
    {
      "labels": [],
      "source": null,
      "text": ".Linfo_string23:"
    },
    {
      "labels": [],
      "source": null,
      "text": "        .asciz  \"movable\"               # string offset=480"
    },
    {
      "labels": [],
      "source": null,
      "text": ".Linfo_string24:"
    },
    {
      "labels": [],
      "source": null,
      "text": "        .asciz  \"non_movable\"           # string offset=488"
    },
    {
      "labels": [],
      "source": null,
      "text": ".Linfo_string25:"
    },
    {
      "labels": [],
      "source": null,
      "text": "        .asciz  \"copy_traits\"           # string offset=500"
    },
    {
      "labels": [],
      "source": null,
      "text": ".Linfo_string26:"
    },
    {
      "labels": [],
      "source": null,
      "text": "        .asciz  \"bool\"                  # string offset=512"
    },
    {
      "labels": [],
      "source": null,
      "text": ".Linfo_string27:"
    },
    {
      "labels": [],
      "source": null,
      "text": "        .asciz  \"__gnu_debug\"           # string offset=517"
    },
    {
      "labels": [],
      "source": null,
      "text": ".Linfo_string28:"
    },
    {
      "labels": [],
      "source": null,
      "text": "        .asciz  \"std\"                   # string offset=529"
    },
    {
      "labels": [],
      "source": null,
      "text": ".Linfo_string29:"
    },
    {
      "labels": [],
      "source": null,
      "text": "        .asciz  \"__debug\"               # string offset=533"
    },
    {
      "labels": [],
      "source": null,
      "text": ".Linfo_string30:"
    },
    {
      "labels": [],
      "source": null,
      "text": "        .asciz  \"abs\"                   # string offset=541"
    },
    {
      "labels": [],
      "source": null,
      "text": ".Linfo_string31:"
    },
    {
      "labels": [],
      "source": null,
      "text": "        .asciz  \"div_t\"                 # string offset=545"
    },
    {
      "labels": [],
      "source": null,
      "text": ".Linfo_string32:"
    },
    {
      "labels": [],
      "source": null,
      "text": "        .asciz  \"quot\"                  # string offset=551"
    },
    {
      "labels": [],
      "source": null,
      "text": ".Linfo_string33:"
    },
    {
      "labels": [],
      "source": null,
      "text": "        .asciz  \"long int\"              # string offset=556"
    },
    {
      "labels": [],
      "source": null,
      "text": ".Linfo_string34:"
    },
    {
      "labels": [],
      "source": null,
      "text": "        .asciz  \"rem\"                   # string offset=565"
    },
    {
      "labels": [],
      "source": null,
      "text": ".Linfo_string35:"
    },
    {
      "labels": [],
      "source": null,
      "text": "        .asciz  \"ldiv_t\"                # string offset=569"
    },
    {
      "labels": [],
      "source": null,
      "text": ".Linfo_string36:"
    },
    {
      "labels": [],
      "source": null,
      "text": "        .asciz  \"abort\"                 # string offset=576"
    },
    {
      "labels": [],
      "source": null,
      "text": ".Linfo_string37:"
    },
    {
      "labels": [],
      "source": null,
      "text": "        .asciz  \"atexit\"                # string offset=582"
    },
    {
      "labels": [],
      "source": null,
      "text": ".Linfo_string38:"
    },
    {
      "labels": [],
      "source": null,
      "text": "        .asciz  \"at_quick_exit\"         # string offset=589"
    },
    {
      "labels": [],
      "source": null,
      "text": ".Linfo_string39:"
    },
    {
      "labels": [],
      "source": null,
      "text": "        .asciz  \"atof\"                  # string offset=603"
    },
    {
      "labels": [],
      "source": null,
      "text": ".Linfo_string40:"
    },
    {
      "labels": [],
      "source": null,
      "text": "        .asciz  \"double\"                # string offset=608"
    },
    {
      "labels": [],
      "source": null,
      "text": ".Linfo_string41:"
    },
    {
      "labels": [],
      "source": null,
      "text": "        .asciz  \"char\"                  # string offset=615"
    },
    {
      "labels": [],
      "source": null,
      "text": ".Linfo_string42:"
    },
    {
      "labels": [],
      "source": null,
      "text": "        .asciz  \"atoi\"                  # string offset=620"
    },
    {
      "labels": [],
      "source": null,
      "text": ".Linfo_string43:"
    },
    {
      "labels": [],
      "source": null,
      "text": "        .asciz  \"atol\"                  # string offset=625"
    },
    {
      "labels": [],
      "source": null,
      "text": ".Linfo_string44:"
    },
    {
      "labels": [],
      "source": null,
      "text": "        .asciz  \"bsearch\"               # string offset=630"
    },
    {
      "labels": [],
      "source": null,
      "text": ".Linfo_string45:"
    },
    {
      "labels": [],
      "source": null,
      "text": "        .asciz  \"long unsigned int\"     # string offset=638"
    },
    {
      "labels": [],
      "source": null,
      "text": ".Linfo_string46:"
    },
    {
      "labels": [],
      "source": null,
      "text": "        .asciz  \"size_t\"                # string offset=656"
    },
    {
      "labels": [],
      "source": null,
      "text": ".Linfo_string47:"
    },
    {
      "labels": [],
      "source": null,
      "text": "        .asciz  \"__compar_fn_t\"         # string offset=663"
    },
    {
      "labels": [],
      "source": null,
      "text": ".Linfo_string48:"
    },
    {
      "labels": [],
      "source": null,
      "text": "        .asciz  \"calloc\"                # string offset=677"
    },
    {
      "labels": [],
      "source": null,
      "text": ".Linfo_string49:"
    },
    {
      "labels": [],
      "source": null,
      "text": "        .asciz  \"div\"                   # string offset=684"
    },
    {
      "labels": [],
      "source": null,
      "text": ".Linfo_string50:"
    },
    {
      "labels": [],
      "source": null,
      "text": "        .asciz  \"exit\"                  # string offset=688"
    },
    {
      "labels": [],
      "source": null,
      "text": ".Linfo_string51:"
    },
    {
      "labels": [],
      "source": null,
      "text": "        .asciz  \"free\"                  # string offset=693"
    },
    {
      "labels": [],
      "source": null,
      "text": ".Linfo_string52:"
    },
    {
      "labels": [],
      "source": null,
      "text": "        .asciz  \"getenv\"                # string offset=698"
    },
    {
      "labels": [],
      "source": null,
      "text": ".Linfo_string53:"
    },
    {
      "labels": [],
      "source": null,
      "text": "        .asciz  \"labs\"                  # string offset=705"
    },
    {
      "labels": [],
      "source": null,
      "text": ".Linfo_string54:"
    },
    {
      "labels": [],
      "source": null,
      "text": "        .asciz  \"ldiv\"                  # string offset=710"
    },
    {
      "labels": [],
      "source": null,
      "text": ".Linfo_string55:"
    },
    {
      "labels": [],
      "source": null,
      "text": "        .asciz  \"malloc\"                # string offset=715"
    },
    {
      "labels": [],
      "source": null,
      "text": ".Linfo_string56:"
    },
    {
      "labels": [],
      "source": null,
      "text": "        .asciz  \"mblen\"                 # string offset=722"
    },
    {
      "labels": [],
      "source": null,
      "text": ".Linfo_string57:"
    },
    {
      "labels": [],
      "source": null,
      "text": "        .asciz  \"mbstowcs\"              # string offset=728"
    },
    {
      "labels": [],
      "source": null,
      "text": ".Linfo_string58:"
    },
    {
      "labels": [],
      "source": null,
      "text": "        .asciz  \"wchar_t\"               # string offset=737"
    },
    {
      "labels": [],
      "source": null,
      "text": ".Linfo_string59:"
    },
    {
      "labels": [],
      "source": null,
      "text": "        .asciz  \"mbtowc\"                # string offset=745"
    },
    {
      "labels": [],
      "source": null,
      "text": ".Linfo_string60:"
    },
    {
      "labels": [],
      "source": null,
      "text": "        .asciz  \"qsort\"                 # string offset=752"
    },
    {
      "labels": [],
      "source": null,
      "text": ".Linfo_string61:"
    },
    {
      "labels": [],
      "source": null,
      "text": "        .asciz  \"quick_exit\"            # string offset=758"
    },
    {
      "labels": [],
      "source": null,
      "text": ".Linfo_string62:"
    },
    {
      "labels": [],
      "source": null,
      "text": "        .asciz  \"rand\"                  # string offset=769"
    },
    {
      "labels": [],
      "source": null,
      "text": ".Linfo_string63:"
    },
    {
      "labels": [],
      "source": null,
      "text": "        .asciz  \"realloc\"               # string offset=774"
    },
    {
      "labels": [],
      "source": null,
      "text": ".Linfo_string64:"
    },
    {
      "labels": [],
      "source": null,
      "text": "        .asciz  \"srand\"                 # string offset=782"
    },
    {
      "labels": [],
      "source": null,
      "text": ".Linfo_string65:"
    },
    {
      "labels": [],
      "source": null,
      "text": "        .asciz  \"strtod\"                # string offset=788"
    },
    {
      "labels": [],
      "source": null,
      "text": ".Linfo_string66:"
    },
    {
      "labels": [],
      "source": null,
      "text": "        .asciz  \"strtol\"                # string offset=795"
    },
    {
      "labels": [],
      "source": null,
      "text": ".Linfo_string67:"
    },
    {
      "labels": [],
      "source": null,
      "text": "        .asciz  \"strtoul\"               # string offset=802"
    },
    {
      "labels": [],
      "source": null,
      "text": ".Linfo_string68:"
    },
    {
      "labels": [],
      "source": null,
      "text": "        .asciz  \"system\"                # string offset=810"
    },
    {
      "labels": [],
      "source": null,
      "text": ".Linfo_string69:"
    },
    {
      "labels": [],
      "source": null,
      "text": "        .asciz  \"wcstombs\"              # string offset=817"
    },
    {
      "labels": [],
      "source": null,
      "text": ".Linfo_string70:"
    },
    {
      "labels": [],
      "source": null,
      "text": "        .asciz  \"wctomb\"                # string offset=826"
    },
    {
      "labels": [],
      "source": null,
      "text": ".Linfo_string71:"
    },
    {
      "labels": [],
      "source": null,
      "text": "        .asciz  \"long long int\"         # string offset=833"
    },
    {
      "labels": [],
      "source": null,
      "text": ".Linfo_string72:"
    },
    {
      "labels": [],
      "source": null,
      "text": "        .asciz  \"lldiv_t\"               # string offset=847"
    },
    {
      "labels": [],
      "source": null,
      "text": ".Linfo_string73:"
    },
    {
      "labels": [],
      "source": null,
      "text": "        .asciz  \"_Exit\"                 # string offset=855"
    },
    {
      "labels": [],
      "source": null,
      "text": ".Linfo_string74:"
    },
    {
      "labels": [],
      "source": null,
      "text": "        .asciz  \"llabs\"                 # string offset=861"
    },
    {
      "labels": [],
      "source": null,
      "text": ".Linfo_string75:"
    },
    {
      "labels": [],
      "source": null,
      "text": "        .asciz  \"lldiv\"                 # string offset=867"
    },
    {
      "labels": [],
      "source": null,
      "text": ".Linfo_string76:"
    },
    {
      "labels": [],
      "source": null,
      "text": "        .asciz  \"atoll\"                 # string offset=873"
    },
    {
      "labels": [],
      "source": null,
      "text": ".Linfo_string77:"
    },
    {
      "labels": [],
      "source": null,
      "text": "        .asciz  \"strtoll\"               # string offset=879"
    },
    {
      "labels": [],
      "source": null,
      "text": ".Linfo_string78:"
    },
    {
      "labels": [],
      "source": null,
      "text": "        .asciz  \"strtoull\"              # string offset=887"
    },
    {
      "labels": [],
      "source": null,
      "text": ".Linfo_string79:"
    },
    {
      "labels": [],
      "source": null,
      "text": "        .asciz  \"long long unsigned int\" # string offset=896"
    },
    {
      "labels": [],
      "source": null,
      "text": ".Linfo_string80:"
    },
    {
      "labels": [],
      "source": null,
      "text": "        .asciz  \"strtof\"                # string offset=919"
    },
    {
      "labels": [],
      "source": null,
      "text": ".Linfo_string81:"
    },
    {
      "labels": [],
      "source": null,
      "text": "        .asciz  \"float\"                 # string offset=926"
    },
    {
      "labels": [],
      "source": null,
      "text": ".Linfo_string82:"
    },
    {
      "labels": [],
      "source": null,
      "text": "        .asciz  \"strtold\"               # string offset=932"
    },
    {
      "labels": [],
      "source": null,
      "text": ".Linfo_string83:"
    },
    {
      "labels": [],
      "source": null,
      "text": "        .asciz  \"long double\"           # string offset=940"
    },
    {
      "labels": [],
      "source": null,
      "text": ".Linfo_string84:"
    },
    {
      "labels": [],
      "source": null,
      "text": "        .asciz  \"_ZN9__gnu_cxx3divExx\"  # string offset=952"
    },
    {
      "labels": [],
      "source": null,
      "text": ".Linfo_string85:"
    },
    {
      "labels": [],
      "source": null,
      "text": "        .asciz  \"__exception_ptr\"       # string offset=973"
    },
    {
      "labels": [],
      "source": null,
      "text": ".Linfo_string86:"
    },
    {
      "labels": [],
      "source": null,
      "text": "        .asciz  \"_M_exception_object\"   # string offset=989"
    },
    {
      "labels": [],
      "source": null,
      "text": ".Linfo_string87:"
    },
    {
      "labels": [],
      "source": null,
      "text": "        .asciz  \"exception_ptr\"         # string offset=1009"
    },
    {
      "labels": [],
      "source": null,
      "text": ".Linfo_string88:"
    },
    {
      "labels": [],
      "source": null,
      "text": "        .asciz  \"_ZNSt15__exception_ptr13exception_ptr9_M_addrefEv\" # string offset=1023"
    },
    {
      "labels": [],
      "source": null,
      "text": ".Linfo_string89:"
    },
    {
      "labels": [],
      "source": null,
      "text": "        .asciz  \"_M_addref\"             # string offset=1073"
    },
    {
      "labels": [],
      "source": null,
      "text": ".Linfo_string90:"
    },
    {
      "labels": [],
      "source": null,
      "text": "        .asciz  \"_ZNSt15__exception_ptr13exception_ptr10_M_releaseEv\" # string offset=1083"
    },
    {
      "labels": [],
      "source": null,
      "text": ".Linfo_string91:"
    },
    {
      "labels": [],
      "source": null,
      "text": "        .asciz  \"_M_release\"            # string offset=1135"
    },
    {
      "labels": [],
      "source": null,
      "text": ".Linfo_string92:"
    },
    {
      "labels": [],
      "source": null,
      "text": "        .asciz  \"_ZNKSt15__exception_ptr13exception_ptr6_M_getEv\" # string offset=1146"
    },
    {
      "labels": [],
      "source": null,
      "text": ".Linfo_string93:"
    },
    {
      "labels": [],
      "source": null,
      "text": "        .asciz  \"_M_get\"                # string offset=1194"
    },
    {
      "labels": [],
      "source": null,
      "text": ".Linfo_string94:"
    },
    {
      "labels": [],
      "source": null,
      "text": "        .asciz  \"decltype(nullptr)\"     # string offset=1201"
    },
    {
      "labels": [],
      "source": null,
      "text": ".Linfo_string95:"
    },
    {
      "labels": [],
      "source": null,
      "text": "        .asciz  \"nullptr_t\"             # string offset=1219"
    },
    {
      "labels": [],
      "source": null,
      "text": ".Linfo_string96:"
    },
    {
      "labels": [],
      "source": null,
      "text": "        .asciz  \"_ZNSt15__exception_ptr13exception_ptraSERKS0_\" # string offset=1229"
    },
    {
      "labels": [],
      "source": null,
      "text": ".Linfo_string97:"
    },
    {
      "labels": [],
      "source": null,
      "text": "        .asciz  \"operator=\"             # string offset=1275"
    },
    {
      "labels": [],
      "source": null,
      "text": ".Linfo_string98:"
    },
    {
      "labels": [],
      "source": null,
      "text": "        .asciz  \"_ZNSt15__exception_ptr13exception_ptraSEOS0_\" # string offset=1285"
    },
    {
      "labels": [],
      "source": null,
      "text": ".Linfo_string99:"
    },
    {
      "labels": [],
      "source": null,
      "text": "        .asciz  \"~exception_ptr\"        # string offset=1330"
    },
    {
      "labels": [],
      "source": null,
      "text": ".Linfo_string100:"
    },
    {
      "labels": [],
      "source": null,
      "text": "        .asciz  \"_ZNSt15__exception_ptr13exception_ptr4swapERS0_\" # string offset=1345"
    },
    {
      "labels": [],
      "source": null,
      "text": ".Linfo_string101:"
    },
    {
      "labels": [],
      "source": null,
      "text": "        .asciz  \"swap\"                  # string offset=1393"
    },
    {
      "labels": [],
      "source": null,
      "text": ".Linfo_string102:"
    },
    {
      "labels": [],
      "source": null,
      "text": "        .asciz  \"_ZNKSt15__exception_ptr13exception_ptrcvbEv\" # string offset=1398"
    },
    {
      "labels": [],
      "source": null,
      "text": ".Linfo_string103:"
    },
    {
      "labels": [],
      "source": null,
      "text": "        .asciz  \"operator bool\"         # string offset=1442"
    },
    {
      "labels": [],
      "source": null,
      "text": ".Linfo_string104:"
    },
    {
      "labels": [],
      "source": null,
      "text": "        .asciz  \"_ZNKSt15__exception_ptr13exception_ptr20__cxa_exception_typeEv\" # string offset=1456"
    },
    {
      "labels": [],
      "source": null,
      "text": ".Linfo_string105:"
    },
    {
      "labels": [],
      "source": null,
      "text": "        .asciz  \"__cxa_exception_type\"  # string offset=1519"
    },
    {
      "labels": [],
      "source": null,
      "text": ".Linfo_string106:"
    },
    {
      "labels": [],
      "source": null,
      "text": "        .asciz  \"type_info\"             # string offset=1540"
    },
    {
      "labels": [],
      "source": null,
      "text": ".Linfo_string107:"
    },
    {
      "labels": [],
      "source": null,
      "text": "        .asciz  \"_ZSt17rethrow_exceptionNSt15__exception_ptr13exception_ptrE\" # string offset=1550"
    },
    {
      "labels": [],
      "source": null,
      "text": ".Linfo_string108:"
    },
    {
      "labels": [],
      "source": null,
      "text": "        .asciz  \"rethrow_exception\"     # string offset=1610"
    },
    {
      "labels": [],
      "source": null,
      "text": ".Linfo_string109:"
    },
    {
      "labels": [],
      "source": null,
      "text": "        .asciz  \"__count\"               # string offset=1628"
    },
    {
      "labels": [],
      "source": null,
      "text": ".Linfo_string110:"
    },
    {
      "labels": [],
      "source": null,
      "text": "        .asciz  \"__value\"               # string offset=1636"
    },
    {
      "labels": [],
      "source": null,
      "text": ".Linfo_string111:"
    },
    {
      "labels": [],
      "source": null,
      "text": "        .asciz  \"__wch\"                 # string offset=1644"
    },
    {
      "labels": [],
      "source": null,
      "text": ".Linfo_string112:"
    },
    {
      "labels": [],
      "source": null,
      "text": "        .asciz  \"__wchb\"                # string offset=1650"
    },
    {
      "labels": [],
      "source": null,
      "text": ".Linfo_string113:"
    },
    {
      "labels": [],
      "source": null,
      "text": "        .asciz  \"__ARRAY_SIZE_TYPE__\"   # string offset=1657"
    },
    {
      "labels": [],
      "source": null,
      "text": ".Linfo_string114:"
    },
    {
      "labels": [],
      "source": null,
      "text": "        .asciz  \"__mbstate_t\"           # string offset=1677"
    },
    {
      "labels": [],
      "source": null,
      "text": ".Linfo_string115:"
    },
    {
      "labels": [],
      "source": null,
      "text": "        .asciz  \"mbstate_t\"             # string offset=1689"
    },
    {
      "labels": [],
      "source": null,
      "text": ".Linfo_string116:"
    },
    {
      "labels": [],
      "source": null,
      "text": "        .asciz  \"wint_t\"                # string offset=1699"
    },
    {
      "labels": [],
      "source": null,
      "text": ".Linfo_string117:"
    },
    {
      "labels": [],
      "source": null,
      "text": "        .asciz  \"btowc\"                 # string offset=1706"
    },
    {
      "labels": [],
      "source": null,
      "text": ".Linfo_string118:"
    },
    {
      "labels": [],
      "source": null,
      "text": "        .asciz  \"fgetwc\"                # string offset=1712"
    },
    {
      "labels": [],
      "source": null,
      "text": ".Linfo_string119:"
    },
    {
      "labels": [],
      "source": null,
      "text": "        .asciz  \"_flags\"                # string offset=1719"
    },
    {
      "labels": [],
      "source": null,
      "text": ".Linfo_string120:"
    },
    {
      "labels": [],
      "source": null,
      "text": "        .asciz  \"_IO_read_ptr\"          # string offset=1726"
    },
    {
      "labels": [],
      "source": null,
      "text": ".Linfo_string121:"
    },
    {
      "labels": [],
      "source": null,
      "text": "        .asciz  \"_IO_read_end\"          # string offset=1739"
    },
    {
      "labels": [],
      "source": null,
      "text": ".Linfo_string122:"
    },
    {
      "labels": [],
      "source": null,
      "text": "        .asciz  \"_IO_read_base\"         # string offset=1752"
    },
    {
      "labels": [],
      "source": null,
      "text": ".Linfo_string123:"
    },
    {
      "labels": [],
      "source": null,
      "text": "        .asciz  \"_IO_write_base\"        # string offset=1766"
    },
    {
      "labels": [],
      "source": null,
      "text": ".Linfo_string124:"
    },
    {
      "labels": [],
      "source": null,
      "text": "        .asciz  \"_IO_write_ptr\"         # string offset=1781"
    },
    {
      "labels": [],
      "source": null,
      "text": ".Linfo_string125:"
    },
    {
      "labels": [],
      "source": null,
      "text": "        .asciz  \"_IO_write_end\"         # string offset=1795"
    },
    {
      "labels": [],
      "source": null,
      "text": ".Linfo_string126:"
    },
    {
      "labels": [],
      "source": null,
      "text": "        .asciz  \"_IO_buf_base\"          # string offset=1809"
    },
    {
      "labels": [],
      "source": null,
      "text": ".Linfo_string127:"
    },
    {
      "labels": [],
      "source": null,
      "text": "        .asciz  \"_IO_buf_end\"           # string offset=1822"
    },
    {
      "labels": [],
      "source": null,
      "text": ".Linfo_string128:"
    },
    {
      "labels": [],
      "source": null,
      "text": "        .asciz  \"_IO_save_base\"         # string offset=1834"
    },
    {
      "labels": [],
      "source": null,
      "text": ".Linfo_string129:"
    },
    {
      "labels": [],
      "source": null,
      "text": "        .asciz  \"_IO_backup_base\"       # string offset=1848"
    },
    {
      "labels": [],
      "source": null,
      "text": ".Linfo_string130:"
    },
    {
      "labels": [],
      "source": null,
      "text": "        .asciz  \"_IO_save_end\"          # string offset=1864"
    },
    {
      "labels": [],
      "source": null,
      "text": ".Linfo_string131:"
    },
    {
      "labels": [],
      "source": null,
      "text": "        .asciz  \"_markers\"              # string offset=1877"
    },
    {
      "labels": [],
      "source": null,
      "text": ".Linfo_string132:"
    },
    {
      "labels": [],
      "source": null,
      "text": "        .asciz  \"_IO_marker\"            # string offset=1886"
    },
    {
      "labels": [],
      "source": null,
      "text": ".Linfo_string133:"
    },
    {
      "labels": [],
      "source": null,
      "text": "        .asciz  \"_chain\"                # string offset=1897"
    },
    {
      "labels": [],
      "source": null,
      "text": ".Linfo_string134:"
    },
    {
      "labels": [],
      "source": null,
      "text": "        .asciz  \"_fileno\"               # string offset=1904"
    },
    {
      "labels": [],
      "source": null,
      "text": ".Linfo_string135:"
    },
    {
      "labels": [],
      "source": null,
      "text": "        .asciz  \"_flags2\"               # string offset=1912"
    },
    {
      "labels": [],
      "source": null,
      "text": ".Linfo_string136:"
    },
    {
      "labels": [],
      "source": null,
      "text": "        .asciz  \"_old_offset\"           # string offset=1920"
    },
    {
      "labels": [],
      "source": null,
      "text": ".Linfo_string137:"
    },
    {
      "labels": [],
      "source": null,
      "text": "        .asciz  \"__off_t\"               # string offset=1932"
    },
    {
      "labels": [],
      "source": null,
      "text": ".Linfo_string138:"
    },
    {
      "labels": [],
      "source": null,
      "text": "        .asciz  \"_cur_column\"           # string offset=1940"
    },
    {
      "labels": [],
      "source": null,
      "text": ".Linfo_string139:"
    },
    {
      "labels": [],
      "source": null,
      "text": "        .asciz  \"unsigned short\"        # string offset=1952"
    },
    {
      "labels": [],
      "source": null,
      "text": ".Linfo_string140:"
    },
    {
      "labels": [],
      "source": null,
      "text": "        .asciz  \"_vtable_offset\"        # string offset=1967"
    },
    {
      "labels": [],
      "source": null,
      "text": ".Linfo_string141:"
    },
    {
      "labels": [],
      "source": null,
      "text": "        .asciz  \"signed char\"           # string offset=1982"
    },
    {
      "labels": [],
      "source": null,
      "text": ".Linfo_string142:"
    },
    {
      "labels": [],
      "source": null,
      "text": "        .asciz  \"_shortbuf\"             # string offset=1994"
    },
    {
      "labels": [],
      "source": null,
      "text": ".Linfo_string143:"
    },
    {
      "labels": [],
      "source": null,
      "text": "        .asciz  \"_lock\"                 # string offset=2004"
    },
    {
      "labels": [],
      "source": null,
      "text": ".Linfo_string144:"
    },
    {
      "labels": [],
      "source": null,
      "text": "        .asciz  \"_IO_lock_t\"            # string offset=2010"
    },
    {
      "labels": [],
      "source": null,
      "text": ".Linfo_string145:"
    },
    {
      "labels": [],
      "source": null,
      "text": "        .asciz  \"_offset\"               # string offset=2021"
    },
    {
      "labels": [],
      "source": null,
      "text": ".Linfo_string146:"
    },
    {
      "labels": [],
      "source": null,
      "text": "        .asciz  \"__off64_t\"             # string offset=2029"
    },
    {
      "labels": [],
      "source": null,
      "text": ".Linfo_string147:"
    },
    {
      "labels": [],
      "source": null,
      "text": "        .asciz  \"__pad1\"                # string offset=2039"
    },
    {
      "labels": [],
      "source": null,
      "text": ".Linfo_string148:"
    },
    {
      "labels": [],
      "source": null,
      "text": "        .asciz  \"__pad2\"                # string offset=2046"
    },
    {
      "labels": [],
      "source": null,
      "text": ".Linfo_string149:"
    },
    {
      "labels": [],
      "source": null,
      "text": "        .asciz  \"__pad3\"                # string offset=2053"
    },
    {
      "labels": [],
      "source": null,
      "text": ".Linfo_string150:"
    },
    {
      "labels": [],
      "source": null,
      "text": "        .asciz  \"__pad4\"                # string offset=2060"
    },
    {
      "labels": [],
      "source": null,
      "text": ".Linfo_string151:"
    },
    {
      "labels": [],
      "source": null,
      "text": "        .asciz  \"__pad5\"                # string offset=2067"
    },
    {
      "labels": [],
      "source": null,
      "text": ".Linfo_string152:"
    },
    {
      "labels": [],
      "source": null,
      "text": "        .asciz  \"_mode\"                 # string offset=2074"
    },
    {
      "labels": [],
      "source": null,
      "text": ".Linfo_string153:"
    },
    {
      "labels": [],
      "source": null,
      "text": "        .asciz  \"_unused2\"              # string offset=2080"
    },
    {
      "labels": [],
      "source": null,
      "text": ".Linfo_string154:"
    },
    {
      "labels": [],
      "source": null,
      "text": "        .asciz  \"_IO_FILE\"              # string offset=2089"
    },
    {
      "labels": [],
      "source": null,
      "text": ".Linfo_string155:"
    },
    {
      "labels": [],
      "source": null,
      "text": "        .asciz  \"__FILE\"                # string offset=2098"
    },
    {
      "labels": [],
      "source": null,
      "text": ".Linfo_string156:"
    },
    {
      "labels": [],
      "source": null,
      "text": "        .asciz  \"fgetws\"                # string offset=2105"
    },
    {
      "labels": [],
      "source": null,
      "text": ".Linfo_string157:"
    },
    {
      "labels": [],
      "source": null,
      "text": "        .asciz  \"fputwc\"                # string offset=2112"
    },
    {
      "labels": [],
      "source": null,
      "text": ".Linfo_string158:"
    },
    {
      "labels": [],
      "source": null,
      "text": "        .asciz  \"fputws\"                # string offset=2119"
    },
    {
      "labels": [],
      "source": null,
      "text": ".Linfo_string159:"
    },
    {
      "labels": [],
      "source": null,
      "text": "        .asciz  \"fwide\"                 # string offset=2126"
    },
    {
      "labels": [],
      "source": null,
      "text": ".Linfo_string160:"
    },
    {
      "labels": [],
      "source": null,
      "text": "        .asciz  \"fwprintf\"              # string offset=2132"
    },
    {
      "labels": [],
      "source": null,
      "text": ".Linfo_string161:"
    },
    {
      "labels": [],
      "source": null,
      "text": "        .asciz  \"fwscanf\"               # string offset=2141"
    },
    {
      "labels": [],
      "source": null,
      "text": ".Linfo_string162:"
    },
    {
      "labels": [],
      "source": null,
      "text": "        .asciz  \"getwc\"                 # string offset=2149"
    },
    {
      "labels": [],
      "source": null,
      "text": ".Linfo_string163:"
    },
    {
      "labels": [],
      "source": null,
      "text": "        .asciz  \"getwchar\"              # string offset=2155"
    },
    {
      "labels": [],
      "source": null,
      "text": ".Linfo_string164:"
    },
    {
      "labels": [],
      "source": null,
      "text": "        .asciz  \"mbrlen\"                # string offset=2164"
    },
    {
      "labels": [],
      "source": null,
      "text": ".Linfo_string165:"
    },
    {
      "labels": [],
      "source": null,
      "text": "        .asciz  \"mbrtowc\"               # string offset=2171"
    },
    {
      "labels": [],
      "source": null,
      "text": ".Linfo_string166:"
    },
    {
      "labels": [],
      "source": null,
      "text": "        .asciz  \"mbsinit\"               # string offset=2179"
    },
    {
      "labels": [],
      "source": null,
      "text": ".Linfo_string167:"
    },
    {
      "labels": [],
      "source": null,
      "text": "        .asciz  \"mbsrtowcs\"             # string offset=2187"
    },
    {
      "labels": [],
      "source": null,
      "text": ".Linfo_string168:"
    },
    {
      "labels": [],
      "source": null,
      "text": "        .asciz  \"putwc\"                 # string offset=2197"
    },
    {
      "labels": [],
      "source": null,
      "text": ".Linfo_string169:"
    },
    {
      "labels": [],
      "source": null,
      "text": "        .asciz  \"putwchar\"              # string offset=2203"
    },
    {
      "labels": [],
      "source": null,
      "text": ".Linfo_string170:"
    },
    {
      "labels": [],
      "source": null,
      "text": "        .asciz  \"swprintf\"              # string offset=2212"
    },
    {
      "labels": [],
      "source": null,
      "text": ".Linfo_string171:"
    },
    {
      "labels": [],
      "source": null,
      "text": "        .asciz  \"swscanf\"               # string offset=2221"
    },
    {
      "labels": [],
      "source": null,
      "text": ".Linfo_string172:"
    },
    {
      "labels": [],
      "source": null,
      "text": "        .asciz  \"ungetwc\"               # string offset=2229"
    },
    {
      "labels": [],
      "source": null,
      "text": ".Linfo_string173:"
    },
    {
      "labels": [],
      "source": null,
      "text": "        .asciz  \"vfwprintf\"             # string offset=2237"
    },
    {
      "labels": [],
      "source": null,
      "text": ".Linfo_string174:"
    },
    {
      "labels": [],
      "source": null,
      "text": "        .asciz  \"gp_offset\"             # string offset=2247"
    },
    {
      "labels": [],
      "source": null,
      "text": ".Linfo_string175:"
    },
    {
      "labels": [],
      "source": null,
      "text": "        .asciz  \"fp_offset\"             # string offset=2257"
    },
    {
      "labels": [],
      "source": null,
      "text": ".Linfo_string176:"
    },
    {
      "labels": [],
      "source": null,
      "text": "        .asciz  \"overflow_arg_area\"     # string offset=2267"
    },
    {
      "labels": [],
      "source": null,
      "text": ".Linfo_string177:"
    },
    {
      "labels": [],
      "source": null,
      "text": "        .asciz  \"reg_save_area\"         # string offset=2285"
    },
    {
      "labels": [],
      "source": null,
      "text": ".Linfo_string178:"
    },
    {
      "labels": [],
      "source": null,
      "text": "        .asciz  \"__va_list_tag\"         # string offset=2299"
    },
    {
      "labels": [],
      "source": null,
      "text": ".Linfo_string179:"
    },
    {
      "labels": [],
      "source": null,
      "text": "        .asciz  \"vfwscanf\"              # string offset=2313"
    },
    {
      "labels": [],
      "source": null,
      "text": ".Linfo_string180:"
    },
    {
      "labels": [],
      "source": null,
      "text": "        .asciz  \"vswprintf\"             # string offset=2322"
    },
    {
      "labels": [],
      "source": null,
      "text": ".Linfo_string181:"
    },
    {
      "labels": [],
      "source": null,
      "text": "        .asciz  \"vswscanf\"              # string offset=2332"
    },
    {
      "labels": [],
      "source": null,
      "text": ".Linfo_string182:"
    },
    {
      "labels": [],
      "source": null,
      "text": "        .asciz  \"vwprintf\"              # string offset=2341"
    },
    {
      "labels": [],
      "source": null,
      "text": ".Linfo_string183:"
    },
    {
      "labels": [],
      "source": null,
      "text": "        .asciz  \"vwscanf\"               # string offset=2350"
    },
    {
      "labels": [],
      "source": null,
      "text": ".Linfo_string184:"
    },
    {
      "labels": [],
      "source": null,
      "text": "        .asciz  \"wcrtomb\"               # string offset=2358"
    },
    {
      "labels": [],
      "source": null,
      "text": ".Linfo_string185:"
    },
    {
      "labels": [],
      "source": null,
      "text": "        .asciz  \"wcscat\"                # string offset=2366"
    },
    {
      "labels": [],
      "source": null,
      "text": ".Linfo_string186:"
    },
    {
      "labels": [],
      "source": null,
      "text": "        .asciz  \"wcscmp\"                # string offset=2373"
    },
    {
      "labels": [],
      "source": null,
      "text": ".Linfo_string187:"
    },
    {
      "labels": [],
      "source": null,
      "text": "        .asciz  \"wcscoll\"               # string offset=2380"
    },
    {
      "labels": [],
      "source": null,
      "text": ".Linfo_string188:"
    },
    {
      "labels": [],
      "source": null,
      "text": "        .asciz  \"wcscpy\"                # string offset=2388"
    },
    {
      "labels": [],
      "source": null,
      "text": ".Linfo_string189:"
    },
    {
      "labels": [],
      "source": null,
      "text": "        .asciz  \"wcscspn\"               # string offset=2395"
    },
    {
      "labels": [],
      "source": null,
      "text": ".Linfo_string190:"
    },
    {
      "labels": [],
      "source": null,
      "text": "        .asciz  \"wcsftime\"              # string offset=2403"
    },
    {
      "labels": [],
      "source": null,
      "text": ".Linfo_string191:"
    },
    {
      "labels": [],
      "source": null,
      "text": "        .asciz  \"tm\"                    # string offset=2412"
    },
    {
      "labels": [],
      "source": null,
      "text": ".Linfo_string192:"
    },
    {
      "labels": [],
      "source": null,
      "text": "        .asciz  \"wcslen\"                # string offset=2415"
    },
    {
      "labels": [],
      "source": null,
      "text": ".Linfo_string193:"
    },
    {
      "labels": [],
      "source": null,
      "text": "        .asciz  \"wcsncat\"               # string offset=2422"
    },
    {
      "labels": [],
      "source": null,
      "text": ".Linfo_string194:"
    },
    {
      "labels": [],
      "source": null,
      "text": "        .asciz  \"wcsncmp\"               # string offset=2430"
    },
    {
      "labels": [],
      "source": null,
      "text": ".Linfo_string195:"
    },
    {
      "labels": [],
      "source": null,
      "text": "        .asciz  \"wcsncpy\"               # string offset=2438"
    },
    {
      "labels": [],
      "source": null,
      "text": ".Linfo_string196:"
    },
    {
      "labels": [],
      "source": null,
      "text": "        .asciz  \"wcsrtombs\"             # string offset=2446"
    },
    {
      "labels": [],
      "source": null,
      "text": ".Linfo_string197:"
    },
    {
      "labels": [],
      "source": null,
      "text": "        .asciz  \"wcsspn\"                # string offset=2456"
    },
    {
      "labels": [],
      "source": null,
      "text": ".Linfo_string198:"
    },
    {
      "labels": [],
      "source": null,
      "text": "        .asciz  \"wcstod\"                # string offset=2463"
    },
    {
      "labels": [],
      "source": null,
      "text": ".Linfo_string199:"
    },
    {
      "labels": [],
      "source": null,
      "text": "        .asciz  \"wcstof\"                # string offset=2470"
    },
    {
      "labels": [],
      "source": null,
      "text": ".Linfo_string200:"
    },
    {
      "labels": [],
      "source": null,
      "text": "        .asciz  \"wcstok\"                # string offset=2477"
    },
    {
      "labels": [],
      "source": null,
      "text": ".Linfo_string201:"
    },
    {
      "labels": [],
      "source": null,
      "text": "        .asciz  \"wcstol\"                # string offset=2484"
    },
    {
      "labels": [],
      "source": null,
      "text": ".Linfo_string202:"
    },
    {
      "labels": [],
      "source": null,
      "text": "        .asciz  \"wcstoul\"               # string offset=2491"
    },
    {
      "labels": [],
      "source": null,
      "text": ".Linfo_string203:"
    },
    {
      "labels": [],
      "source": null,
      "text": "        .asciz  \"wcsxfrm\"               # string offset=2499"
    },
    {
      "labels": [],
      "source": null,
      "text": ".Linfo_string204:"
    },
    {
      "labels": [],
      "source": null,
      "text": "        .asciz  \"wctob\"                 # string offset=2507"
    },
    {
      "labels": [],
      "source": null,
      "text": ".Linfo_string205:"
    },
    {
      "labels": [],
      "source": null,
      "text": "        .asciz  \"wmemcmp\"               # string offset=2513"
    },
    {
      "labels": [],
      "source": null,
      "text": ".Linfo_string206:"
    },
    {
      "labels": [],
      "source": null,
      "text": "        .asciz  \"wmemcpy\"               # string offset=2521"
    },
    {
      "labels": [],
      "source": null,
      "text": ".Linfo_string207:"
    },
    {
      "labels": [],
      "source": null,
      "text": "        .asciz  \"wmemmove\"              # string offset=2529"
    },
    {
      "labels": [],
      "source": null,
      "text": ".Linfo_string208:"
    },
    {
      "labels": [],
      "source": null,
      "text": "        .asciz  \"wmemset\"               # string offset=2538"
    },
    {
      "labels": [],
      "source": null,
      "text": ".Linfo_string209:"
    },
    {
      "labels": [],
      "source": null,
      "text": "        .asciz  \"wprintf\"               # string offset=2546"
    },
    {
      "labels": [],
      "source": null,
      "text": ".Linfo_string210:"
    },
    {
      "labels": [],
      "source": null,
      "text": "        .asciz  \"wscanf\"                # string offset=2554"
    },
    {
      "labels": [],
      "source": null,
      "text": ".Linfo_string211:"
    },
    {
      "labels": [],
      "source": null,
      "text": "        .asciz  \"wcschr\"                # string offset=2561"
    },
    {
      "labels": [],
      "source": null,
      "text": ".Linfo_string212:"
    },
    {
      "labels": [],
      "source": null,
      "text": "        .asciz  \"wcspbrk\"               # string offset=2568"
    },
    {
      "labels": [],
      "source": null,
      "text": ".Linfo_string213:"
    },
    {
      "labels": [],
      "source": null,
      "text": "        .asciz  \"wcsrchr\"               # string offset=2576"
    },
    {
      "labels": [],
      "source": null,
      "text": ".Linfo_string214:"
    },
    {
      "labels": [],
      "source": null,
      "text": "        .asciz  \"wcsstr\"                # string offset=2584"
    },
    {
      "labels": [],
      "source": null,
      "text": ".Linfo_string215:"
    },
    {
      "labels": [],
      "source": null,
      "text": "        .asciz  \"wmemchr\"               # string offset=2591"
    },
    {
      "labels": [],
      "source": null,
      "text": ".Linfo_string216:"
    },
    {
      "labels": [],
      "source": null,
      "text": "        .asciz  \"wcstold\"               # string offset=2599"
    },
    {
      "labels": [],
      "source": null,
      "text": ".Linfo_string217:"
    },
    {
      "labels": [],
      "source": null,
      "text": "        .asciz  \"wcstoll\"               # string offset=2607"
    },
    {
      "labels": [],
      "source": null,
      "text": ".Linfo_string218:"
    },
    {
      "labels": [],
      "source": null,
      "text": "        .asciz  \"wcstoull\"              # string offset=2615"
    },
    {
      "labels": [],
      "source": null,
      "text": ".Linfo_string219:"
    },
    {
      "labels": [],
      "source": null,
      "text": "        .asciz  \"__int8_t\"              # string offset=2624"
    },
    {
      "labels": [],
      "source": null,
      "text": ".Linfo_string220:"
    },
    {
      "labels": [],
      "source": null,
      "text": "        .asciz  \"int8_t\"                # string offset=2633"
    },
    {
      "labels": [],
      "source": null,
      "text": ".Linfo_string221:"
    },
    {
      "labels": [],
      "source": null,
      "text": "        .asciz  \"short\"                 # string offset=2640"
    },
    {
      "labels": [],
      "source": null,
      "text": ".Linfo_string222:"
    },
    {
      "labels": [],
      "source": null,
      "text": "        .asciz  \"__int16_t\"             # string offset=2646"
    },
    {
      "labels": [],
      "source": null,
      "text": ".Linfo_string223:"
    },
    {
      "labels": [],
      "source": null,
      "text": "        .asciz  \"int16_t\"               # string offset=2656"
    },
    {
      "labels": [],
      "source": null,
      "text": ".Linfo_string224:"
    },
    {
      "labels": [],
      "source": null,
      "text": "        .asciz  \"__int32_t\"             # string offset=2664"
    },
    {
      "labels": [],
      "source": null,
      "text": ".Linfo_string225:"
    },
    {
      "labels": [],
      "source": null,
      "text": "        .asciz  \"int32_t\"               # string offset=2674"
    },
    {
      "labels": [],
      "source": null,
      "text": ".Linfo_string226:"
    },
    {
      "labels": [],
      "source": null,
      "text": "        .asciz  \"__int64_t\"             # string offset=2682"
    },
    {
      "labels": [],
      "source": null,
      "text": ".Linfo_string227:"
    },
    {
      "labels": [],
      "source": null,
      "text": "        .asciz  \"int64_t\"               # string offset=2692"
    },
    {
      "labels": [],
      "source": null,
      "text": ".Linfo_string228:"
    },
    {
      "labels": [],
      "source": null,
      "text": "        .asciz  \"int_fast8_t\"           # string offset=2700"
    },
    {
      "labels": [],
      "source": null,
      "text": ".Linfo_string229:"
    },
    {
      "labels": [],
      "source": null,
      "text": "        .asciz  \"int_fast16_t\"          # string offset=2712"
    },
    {
      "labels": [],
      "source": null,
      "text": ".Linfo_string230:"
    },
    {
      "labels": [],
      "source": null,
      "text": "        .asciz  \"int_fast32_t\"          # string offset=2725"
    },
    {
      "labels": [],
      "source": null,
      "text": ".Linfo_string231:"
    },
    {
      "labels": [],
      "source": null,
      "text": "        .asciz  \"int_fast64_t\"          # string offset=2738"
    },
    {
      "labels": [],
      "source": null,
      "text": ".Linfo_string232:"
    },
    {
      "labels": [],
      "source": null,
      "text": "        .asciz  \"int_least8_t\"          # string offset=2751"
    },
    {
      "labels": [],
      "source": null,
      "text": ".Linfo_string233:"
    },
    {
      "labels": [],
      "source": null,
      "text": "        .asciz  \"int_least16_t\"         # string offset=2764"
    },
    {
      "labels": [],
      "source": null,
      "text": ".Linfo_string234:"
    },
    {
      "labels": [],
      "source": null,
      "text": "        .asciz  \"int_least32_t\"         # string offset=2778"
    },
    {
      "labels": [],
      "source": null,
      "text": ".Linfo_string235:"
    },
    {
      "labels": [],
      "source": null,
      "text": "        .asciz  \"int_least64_t\"         # string offset=2792"
    },
    {
      "labels": [],
      "source": null,
      "text": ".Linfo_string236:"
    },
    {
      "labels": [],
      "source": null,
      "text": "        .asciz  \"__intmax_t\"            # string offset=2806"
    },
    {
      "labels": [],
      "source": null,
      "text": ".Linfo_string237:"
    },
    {
      "labels": [],
      "source": null,
      "text": "        .asciz  \"intmax_t\"              # string offset=2817"
    },
    {
      "labels": [],
      "source": null,
      "text": ".Linfo_string238:"
    },
    {
      "labels": [],
      "source": null,
      "text": "        .asciz  \"intptr_t\"              # string offset=2826"
    },
    {
      "labels": [],
      "source": null,
      "text": ".Linfo_string239:"
    },
    {
      "labels": [],
      "source": null,
      "text": "        .asciz  \"unsigned char\"         # string offset=2835"
    },
    {
      "labels": [],
      "source": null,
      "text": ".Linfo_string240:"
    },
    {
      "labels": [],
      "source": null,
      "text": "        .asciz  \"__uint8_t\"             # string offset=2849"
    },
    {
      "labels": [],
      "source": null,
      "text": ".Linfo_string241:"
    },
    {
      "labels": [],
      "source": null,
      "text": "        .asciz  \"uint8_t\"               # string offset=2859"
    },
    {
      "labels": [],
      "source": null,
      "text": ".Linfo_string242:"
    },
    {
      "labels": [],
      "source": null,
      "text": "        .asciz  \"__uint16_t\"            # string offset=2867"
    },
    {
      "labels": [],
      "source": null,
      "text": ".Linfo_string243:"
    },
    {
      "labels": [],
      "source": null,
      "text": "        .asciz  \"uint16_t\"              # string offset=2878"
    },
    {
      "labels": [],
      "source": null,
      "text": ".Linfo_string244:"
    },
    {
      "labels": [],
      "source": null,
      "text": "        .asciz  \"__uint32_t\"            # string offset=2887"
    },
    {
      "labels": [],
      "source": null,
      "text": ".Linfo_string245:"
    },
    {
      "labels": [],
      "source": null,
      "text": "        .asciz  \"uint32_t\"              # string offset=2898"
    },
    {
      "labels": [],
      "source": null,
      "text": ".Linfo_string246:"
    },
    {
      "labels": [],
      "source": null,
      "text": "        .asciz  \"__uint64_t\"            # string offset=2907"
    },
    {
      "labels": [],
      "source": null,
      "text": ".Linfo_string247:"
    },
    {
      "labels": [],
      "source": null,
      "text": "        .asciz  \"uint64_t\"              # string offset=2918"
    },
    {
      "labels": [],
      "source": null,
      "text": ".Linfo_string248:"
    },
    {
      "labels": [],
      "source": null,
      "text": "        .asciz  \"uint_fast8_t\"          # string offset=2927"
    },
    {
      "labels": [],
      "source": null,
      "text": ".Linfo_string249:"
    },
    {
      "labels": [],
      "source": null,
      "text": "        .asciz  \"uint_fast16_t\"         # string offset=2940"
    },
    {
      "labels": [],
      "source": null,
      "text": ".Linfo_string250:"
    },
    {
      "labels": [],
      "source": null,
      "text": "        .asciz  \"uint_fast32_t\"         # string offset=2954"
    },
    {
      "labels": [],
      "source": null,
      "text": ".Linfo_string251:"
    },
    {
      "labels": [],
      "source": null,
      "text": "        .asciz  \"uint_fast64_t\"         # string offset=2968"
    },
    {
      "labels": [],
      "source": null,
      "text": ".Linfo_string252:"
    },
    {
      "labels": [],
      "source": null,
      "text": "        .asciz  \"uint_least8_t\"         # string offset=2982"
    },
    {
      "labels": [],
      "source": null,
      "text": ".Linfo_string253:"
    },
    {
      "labels": [],
      "source": null,
      "text": "        .asciz  \"uint_least16_t\"        # string offset=2996"
    },
    {
      "labels": [],
      "source": null,
      "text": ".Linfo_string254:"
    },
    {
      "labels": [],
      "source": null,
      "text": "        .asciz  \"uint_least32_t\"        # string offset=3011"
    },
    {
      "labels": [],
      "source": null,
      "text": ".Linfo_string255:"
    },
    {
      "labels": [],
      "source": null,
      "text": "        .asciz  \"uint_least64_t\"        # string offset=3026"
    },
    {
      "labels": [],
      "source": null,
      "text": ".Linfo_string256:"
    },
    {
      "labels": [],
      "source": null,
      "text": "        .asciz  \"__uintmax_t\"           # string offset=3041"
    },
    {
      "labels": [],
      "source": null,
      "text": ".Linfo_string257:"
    },
    {
      "labels": [],
      "source": null,
      "text": "        .asciz  \"uintmax_t\"             # string offset=3053"
    },
    {
      "labels": [],
      "source": null,
      "text": ".Linfo_string258:"
    },
    {
      "labels": [],
      "source": null,
      "text": "        .asciz  \"uintptr_t\"             # string offset=3063"
    },
    {
      "labels": [],
      "source": null,
      "text": ".Linfo_string259:"
    },
    {
      "labels": [],
      "source": null,
      "text": "        .asciz  \"ptrdiff_t\"             # string offset=3073"
    },
    {
      "labels": [],
      "source": null,
      "text": ".Linfo_string260:"
    },
    {
      "labels": [],
      "source": null,
      "text": "        .asciz  \"lconv\"                 # string offset=3083"
    },
    {
      "labels": [],
      "source": null,
      "text": ".Linfo_string261:"
    },
    {
      "labels": [],
      "source": null,
      "text": "        .asciz  \"setlocale\"             # string offset=3089"
    },
    {
      "labels": [],
      "source": null,
      "text": ".Linfo_string262:"
    },
    {
      "labels": [],
      "source": null,
      "text": "        .asciz  \"localeconv\"            # string offset=3099"
    },
    {
      "labels": [],
      "source": null,
      "text": ".Linfo_string263:"
    },
    {
      "labels": [],
      "source": null,
      "text": "        .asciz  \"isalnum\"               # string offset=3110"
    },
    {
      "labels": [],
      "source": null,
      "text": ".Linfo_string264:"
    },
    {
      "labels": [],
      "source": null,
      "text": "        .asciz  \"isalpha\"               # string offset=3118"
    },
    {
      "labels": [],
      "source": null,
      "text": ".Linfo_string265:"
    },
    {
      "labels": [],
      "source": null,
      "text": "        .asciz  \"iscntrl\"               # string offset=3126"
    },
    {
      "labels": [],
      "source": null,
      "text": ".Linfo_string266:"
    },
    {
      "labels": [],
      "source": null,
      "text": "        .asciz  \"isdigit\"               # string offset=3134"
    },
    {
      "labels": [],
      "source": null,
      "text": ".Linfo_string267:"
    },
    {
      "labels": [],
      "source": null,
      "text": "        .asciz  \"isgraph\"               # string offset=3142"
    },
    {
      "labels": [],
      "source": null,
      "text": ".Linfo_string268:"
    },
    {
      "labels": [],
      "source": null,
      "text": "        .asciz  \"islower\"               # string offset=3150"
    },
    {
      "labels": [],
      "source": null,
      "text": ".Linfo_string269:"
    },
    {
      "labels": [],
      "source": null,
      "text": "        .asciz  \"isprint\"               # string offset=3158"
    },
    {
      "labels": [],
      "source": null,
      "text": ".Linfo_string270:"
    },
    {
      "labels": [],
      "source": null,
      "text": "        .asciz  \"ispunct\"               # string offset=3166"
    },
    {
      "labels": [],
      "source": null,
      "text": ".Linfo_string271:"
    },
    {
      "labels": [],
      "source": null,
      "text": "        .asciz  \"isspace\"               # string offset=3174"
    },
    {
      "labels": [],
      "source": null,
      "text": ".Linfo_string272:"
    },
    {
      "labels": [],
      "source": null,
      "text": "        .asciz  \"isupper\"               # string offset=3182"
    },
    {
      "labels": [],
      "source": null,
      "text": ".Linfo_string273:"
    },
    {
      "labels": [],
      "source": null,
      "text": "        .asciz  \"isxdigit\"              # string offset=3190"
    },
    {
      "labels": [],
      "source": null,
      "text": ".Linfo_string274:"
    },
    {
      "labels": [],
      "source": null,
      "text": "        .asciz  \"tolower\"               # string offset=3199"
    },
    {
      "labels": [],
      "source": null,
      "text": ".Linfo_string275:"
    },
    {
      "labels": [],
      "source": null,
      "text": "        .asciz  \"toupper\"               # string offset=3207"
    },
    {
      "labels": [],
      "source": null,
      "text": ".Linfo_string276:"
    },
    {
      "labels": [],
      "source": null,
      "text": "        .asciz  \"isblank\"               # string offset=3215"
    },
    {
      "labels": [],
      "source": null,
      "text": ".Linfo_string277:"
    },
    {
      "labels": [],
      "source": null,
      "text": "        .asciz  \"FILE\"                  # string offset=3223"
    },
    {
      "labels": [],
      "source": null,
      "text": ".Linfo_string278:"
    },
    {
      "labels": [],
      "source": null,
      "text": "        .asciz  \"_G_fpos_t\"             # string offset=3228"
    },
    {
      "labels": [],
      "source": null,
      "text": ".Linfo_string279:"
    },
    {
      "labels": [],
      "source": null,
      "text": "        .asciz  \"fpos_t\"                # string offset=3238"
    },
    {
      "labels": [],
      "source": null,
      "text": ".Linfo_string280:"
    },
    {
      "labels": [],
      "source": null,
      "text": "        .asciz  \"clearerr\"              # string offset=3245"
    },
    {
      "labels": [],
      "source": null,
      "text": ".Linfo_string281:"
    },
    {
      "labels": [],
      "source": null,
      "text": "        .asciz  \"fclose\"                # string offset=3254"
    },
    {
      "labels": [],
      "source": null,
      "text": ".Linfo_string282:"
    },
    {
      "labels": [],
      "source": null,
      "text": "        .asciz  \"feof\"                  # string offset=3261"
    },
    {
      "labels": [],
      "source": null,
      "text": ".Linfo_string283:"
    },
    {
      "labels": [],
      "source": null,
      "text": "        .asciz  \"ferror\"                # string offset=3266"
    },
    {
      "labels": [],
      "source": null,
      "text": ".Linfo_string284:"
    },
    {
      "labels": [],
      "source": null,
      "text": "        .asciz  \"fflush\"                # string offset=3273"
    },
    {
      "labels": [],
      "source": null,
      "text": ".Linfo_string285:"
    },
    {
      "labels": [],
      "source": null,
      "text": "        .asciz  \"fgetc\"                 # string offset=3280"
    },
    {
      "labels": [],
      "source": null,
      "text": ".Linfo_string286:"
    },
    {
      "labels": [],
      "source": null,
      "text": "        .asciz  \"fgetpos\"               # string offset=3286"
    },
    {
      "labels": [],
      "source": null,
      "text": ".Linfo_string287:"
    },
    {
      "labels": [],
      "source": null,
      "text": "        .asciz  \"fgets\"                 # string offset=3294"
    },
    {
      "labels": [],
      "source": null,
      "text": ".Linfo_string288:"
    },
    {
      "labels": [],
      "source": null,
      "text": "        .asciz  \"fopen\"                 # string offset=3300"
    },
    {
      "labels": [],
      "source": null,
      "text": ".Linfo_string289:"
    },
    {
      "labels": [],
      "source": null,
      "text": "        .asciz  \"fprintf\"               # string offset=3306"
    },
    {
      "labels": [],
      "source": null,
      "text": ".Linfo_string290:"
    },
    {
      "labels": [],
      "source": null,
      "text": "        .asciz  \"fputc\"                 # string offset=3314"
    },
    {
      "labels": [],
      "source": null,
      "text": ".Linfo_string291:"
    },
    {
      "labels": [],
      "source": null,
      "text": "        .asciz  \"fputs\"                 # string offset=3320"
    },
    {
      "labels": [],
      "source": null,
      "text": ".Linfo_string292:"
    },
    {
      "labels": [],
      "source": null,
      "text": "        .asciz  \"fread\"                 # string offset=3326"
    },
    {
      "labels": [],
      "source": null,
      "text": ".Linfo_string293:"
    },
    {
      "labels": [],
      "source": null,
      "text": "        .asciz  \"freopen\"               # string offset=3332"
    },
    {
      "labels": [],
      "source": null,
      "text": ".Linfo_string294:"
    },
    {
      "labels": [],
      "source": null,
      "text": "        .asciz  \"fscanf\"                # string offset=3340"
    },
    {
      "labels": [],
      "source": null,
      "text": ".Linfo_string295:"
    },
    {
      "labels": [],
      "source": null,
      "text": "        .asciz  \"fseek\"                 # string offset=3347"
    },
    {
      "labels": [],
      "source": null,
      "text": ".Linfo_string296:"
    },
    {
      "labels": [],
      "source": null,
      "text": "        .asciz  \"fsetpos\"               # string offset=3353"
    },
    {
      "labels": [],
      "source": null,
      "text": ".Linfo_string297:"
    },
    {
      "labels": [],
      "source": null,
      "text": "        .asciz  \"ftell\"                 # string offset=3361"
    },
    {
      "labels": [],
      "source": null,
      "text": ".Linfo_string298:"
    },
    {
      "labels": [],
      "source": null,
      "text": "        .asciz  \"fwrite\"                # string offset=3367"
    },
    {
      "labels": [],
      "source": null,
      "text": ".Linfo_string299:"
    },
    {
      "labels": [],
      "source": null,
      "text": "        .asciz  \"getc\"                  # string offset=3374"
    },
    {
      "labels": [],
      "source": null,
      "text": ".Linfo_string300:"
    },
    {
      "labels": [],
      "source": null,
      "text": "        .asciz  \"getchar\"               # string offset=3379"
    },
    {
      "labels": [],
      "source": null,
      "text": ".Linfo_string301:"
    },
    {
      "labels": [],
      "source": null,
      "text": "        .asciz  \"perror\"                # string offset=3387"
    },
    {
      "labels": [],
      "source": null,
      "text": ".Linfo_string302:"
    },
    {
      "labels": [],
      "source": null,
      "text": "        .asciz  \"printf\"                # string offset=3394"
    },
    {
      "labels": [],
      "source": null,
      "text": ".Linfo_string303:"
    },
    {
      "labels": [],
      "source": null,
      "text": "        .asciz  \"putc\"                  # string offset=3401"
    },
    {
      "labels": [],
      "source": null,
      "text": ".Linfo_string304:"
    },
    {
      "labels": [],
      "source": null,
      "text": "        .asciz  \"putchar\"               # string offset=3406"
    },
    {
      "labels": [],
      "source": null,
      "text": ".Linfo_string305:"
    },
    {
      "labels": [],
      "source": null,
      "text": "        .asciz  \"puts\"                  # string offset=3414"
    },
    {
      "labels": [],
      "source": null,
      "text": ".Linfo_string306:"
    },
    {
      "labels": [],
      "source": null,
      "text": "        .asciz  \"remove\"                # string offset=3419"
    },
    {
      "labels": [],
      "source": null,
      "text": ".Linfo_string307:"
    },
    {
      "labels": [],
      "source": null,
      "text": "        .asciz  \"rename\"                # string offset=3426"
    },
    {
      "labels": [],
      "source": null,
      "text": ".Linfo_string308:"
    },
    {
      "labels": [],
      "source": null,
      "text": "        .asciz  \"rewind\"                # string offset=3433"
    },
    {
      "labels": [],
      "source": null,
      "text": ".Linfo_string309:"
    },
    {
      "labels": [],
      "source": null,
      "text": "        .asciz  \"scanf\"                 # string offset=3440"
    },
    {
      "labels": [],
      "source": null,
      "text": ".Linfo_string310:"
    },
    {
      "labels": [],
      "source": null,
      "text": "        .asciz  \"setbuf\"                # string offset=3446"
    },
    {
      "labels": [],
      "source": null,
      "text": ".Linfo_string311:"
    },
    {
      "labels": [],
      "source": null,
      "text": "        .asciz  \"setvbuf\"               # string offset=3453"
    },
    {
      "labels": [],
      "source": null,
      "text": ".Linfo_string312:"
    },
    {
      "labels": [],
      "source": null,
      "text": "        .asciz  \"sprintf\"               # string offset=3461"
    },
    {
      "labels": [],
      "source": null,
      "text": ".Linfo_string313:"
    },
    {
      "labels": [],
      "source": null,
      "text": "        .asciz  \"sscanf\"                # string offset=3469"
    },
    {
      "labels": [],
      "source": null,
      "text": ".Linfo_string314:"
    },
    {
      "labels": [],
      "source": null,
      "text": "        .asciz  \"tmpfile\"               # string offset=3476"
    },
    {
      "labels": [],
      "source": null,
      "text": ".Linfo_string315:"
    },
    {
      "labels": [],
      "source": null,
      "text": "        .asciz  \"tmpnam\"                # string offset=3484"
    },
    {
      "labels": [],
      "source": null,
      "text": ".Linfo_string316:"
    },
    {
      "labels": [],
      "source": null,
      "text": "        .asciz  \"ungetc\"                # string offset=3491"
    },
    {
      "labels": [],
      "source": null,
      "text": ".Linfo_string317:"
    },
    {
      "labels": [],
      "source": null,
      "text": "        .asciz  \"vfprintf\"              # string offset=3498"
    },
    {
      "labels": [],
      "source": null,
      "text": ".Linfo_string318:"
    },
    {
      "labels": [],
      "source": null,
      "text": "        .asciz  \"vprintf\"               # string offset=3507"
    },
    {
      "labels": [],
      "source": null,
      "text": ".Linfo_string319:"
    },
    {
      "labels": [],
      "source": null,
      "text": "        .asciz  \"vsprintf\"              # string offset=3515"
    },
    {
      "labels": [],
      "source": null,
      "text": ".Linfo_string320:"
    },
    {
      "labels": [],
      "source": null,
      "text": "        .asciz  \"snprintf\"              # string offset=3524"
    },
    {
      "labels": [],
      "source": null,
      "text": ".Linfo_string321:"
    },
    {
      "labels": [],
      "source": null,
      "text": "        .asciz  \"vfscanf\"               # string offset=3533"
    },
    {
      "labels": [],
      "source": null,
      "text": ".Linfo_string322:"
    },
    {
      "labels": [],
      "source": null,
      "text": "        .asciz  \"vscanf\"                # string offset=3541"
    },
    {
      "labels": [],
      "source": null,
      "text": ".Linfo_string323:"
    },
    {
      "labels": [],
      "source": null,
      "text": "        .asciz  \"vsnprintf\"             # string offset=3548"
    },
    {
      "labels": [],
      "source": null,
      "text": ".Linfo_string324:"
    },
    {
      "labels": [],
      "source": null,
      "text": "        .asciz  \"vsscanf\"               # string offset=3558"
    },
    {
      "labels": [],
      "source": null,
      "text": ".Linfo_string325:"
    },
    {
      "labels": [],
      "source": null,
      "text": "        .asciz  \"max_align_t\"           # string offset=3566"
    },
    {
      "labels": [],
      "source": null,
      "text": ".Linfo_string326:"
    },
    {
      "labels": [],
      "source": null,
      "text": "        .asciz  \"memchr\"                # string offset=3578"
    },
    {
      "labels": [],
      "source": null,
      "text": ".Linfo_string327:"
    },
    {
      "labels": [],
      "source": null,
      "text": "        .asciz  \"memcmp\"                # string offset=3585"
    },
    {
      "labels": [],
      "source": null,
      "text": ".Linfo_string328:"
    },
    {
      "labels": [],
      "source": null,
      "text": "        .asciz  \"memcpy\"                # string offset=3592"
    },
    {
      "labels": [],
      "source": null,
      "text": ".Linfo_string329:"
    },
    {
      "labels": [],
      "source": null,
      "text": "        .asciz  \"memmove\"               # string offset=3599"
    },
    {
      "labels": [],
      "source": null,
      "text": ".Linfo_string330:"
    },
    {
      "labels": [],
      "source": null,
      "text": "        .asciz  \"memset\"                # string offset=3607"
    },
    {
      "labels": [],
      "source": null,
      "text": ".Linfo_string331:"
    },
    {
      "labels": [],
      "source": null,
      "text": "        .asciz  \"strcat\"                # string offset=3614"
    },
    {
      "labels": [],
      "source": null,
      "text": ".Linfo_string332:"
    },
    {
      "labels": [],
      "source": null,
      "text": "        .asciz  \"strcmp\"                # string offset=3621"
    },
    {
      "labels": [],
      "source": null,
      "text": ".Linfo_string333:"
    },
    {
      "labels": [],
      "source": null,
      "text": "        .asciz  \"strcoll\"               # string offset=3628"
    },
    {
      "labels": [],
      "source": null,
      "text": ".Linfo_string334:"
    },
    {
      "labels": [],
      "source": null,
      "text": "        .asciz  \"strcpy\"                # string offset=3636"
    },
    {
      "labels": [],
      "source": null,
      "text": ".Linfo_string335:"
    },
    {
      "labels": [],
      "source": null,
      "text": "        .asciz  \"strcspn\"               # string offset=3643"
    },
    {
      "labels": [],
      "source": null,
      "text": ".Linfo_string336:"
    },
    {
      "labels": [],
      "source": null,
      "text": "        .asciz  \"strerror\"              # string offset=3651"
    },
    {
      "labels": [],
      "source": null,
      "text": ".Linfo_string337:"
    },
    {
      "labels": [],
      "source": null,
      "text": "        .asciz  \"strlen\"                # string offset=3660"
    },
    {
      "labels": [],
      "source": null,
      "text": ".Linfo_string338:"
    },
    {
      "labels": [],
      "source": null,
      "text": "        .asciz  \"strncat\"               # string offset=3667"
    },
    {
      "labels": [],
      "source": null,
      "text": ".Linfo_string339:"
    },
    {
      "labels": [],
      "source": null,
      "text": "        .asciz  \"strncmp\"               # string offset=3675"
    },
    {
      "labels": [],
      "source": null,
      "text": ".Linfo_string340:"
    },
    {
      "labels": [],
      "source": null,
      "text": "        .asciz  \"strncpy\"               # string offset=3683"
    },
    {
      "labels": [],
      "source": null,
      "text": ".Linfo_string341:"
    },
    {
      "labels": [],
      "source": null,
      "text": "        .asciz  \"strspn\"                # string offset=3691"
    },
    {
      "labels": [],
      "source": null,
      "text": ".Linfo_string342:"
    },
    {
      "labels": [],
      "source": null,
      "text": "        .asciz  \"strtok\"                # string offset=3698"
    },
    {
      "labels": [],
      "source": null,
      "text": ".Linfo_string343:"
    },
    {
      "labels": [],
      "source": null,
      "text": "        .asciz  \"strxfrm\"               # string offset=3705"
    },
    {
      "labels": [],
      "source": null,
      "text": ".Linfo_string344:"
    },
    {
      "labels": [],
      "source": null,
      "text": "        .asciz  \"strchr\"                # string offset=3713"
    },
    {
      "labels": [],
      "source": null,
      "text": ".Linfo_string345:"
    },
    {
      "labels": [],
      "source": null,
      "text": "        .asciz  \"strpbrk\"               # string offset=3720"
    },
    {
      "labels": [],
      "source": null,
      "text": ".Linfo_string346:"
    },
    {
      "labels": [],
      "source": null,
      "text": "        .asciz  \"strrchr\"               # string offset=3728"
    },
    {
      "labels": [],
      "source": null,
      "text": ".Linfo_string347:"
    },
    {
      "labels": [],
      "source": null,
      "text": "        .asciz  \"strstr\"                # string offset=3736"
    },
    {
      "labels": [],
      "source": null,
      "text": ".Linfo_string348:"
    },
    {
      "labels": [],
      "source": null,
      "text": "        .asciz  \"wctrans_t\"             # string offset=3743"
    },
    {
      "labels": [],
      "source": null,
      "text": ".Linfo_string349:"
    },
    {
      "labels": [],
      "source": null,
      "text": "        .asciz  \"wctype_t\"              # string offset=3753"
    },
    {
      "labels": [],
      "source": null,
      "text": ".Linfo_string350:"
    },
    {
      "labels": [],
      "source": null,
      "text": "        .asciz  \"iswalnum\"              # string offset=3762"
    },
    {
      "labels": [],
      "source": null,
      "text": ".Linfo_string351:"
    },
    {
      "labels": [],
      "source": null,
      "text": "        .asciz  \"iswalpha\"              # string offset=3771"
    },
    {
      "labels": [],
      "source": null,
      "text": ".Linfo_string352:"
    },
    {
      "labels": [],
      "source": null,
      "text": "        .asciz  \"iswblank\"              # string offset=3780"
    },
    {
      "labels": [],
      "source": null,
      "text": ".Linfo_string353:"
    },
    {
      "labels": [],
      "source": null,
      "text": "        .asciz  \"iswcntrl\"              # string offset=3789"
    },
    {
      "labels": [],
      "source": null,
      "text": ".Linfo_string354:"
    },
    {
      "labels": [],
      "source": null,
      "text": "        .asciz  \"iswctype\"              # string offset=3798"
    },
    {
      "labels": [],
      "source": null,
      "text": ".Linfo_string355:"
    },
    {
      "labels": [],
      "source": null,
      "text": "        .asciz  \"iswdigit\"              # string offset=3807"
    },
    {
      "labels": [],
      "source": null,
      "text": ".Linfo_string356:"
    },
    {
      "labels": [],
      "source": null,
      "text": "        .asciz  \"iswgraph\"              # string offset=3816"
    },
    {
      "labels": [],
      "source": null,
      "text": ".Linfo_string357:"
    },
    {
      "labels": [],
      "source": null,
      "text": "        .asciz  \"iswlower\"              # string offset=3825"
    },
    {
      "labels": [],
      "source": null,
      "text": ".Linfo_string358:"
    },
    {
      "labels": [],
      "source": null,
      "text": "        .asciz  \"iswprint\"              # string offset=3834"
    },
    {
      "labels": [],
      "source": null,
      "text": ".Linfo_string359:"
    },
    {
      "labels": [],
      "source": null,
      "text": "        .asciz  \"iswpunct\"              # string offset=3843"
    },
    {
      "labels": [],
      "source": null,
      "text": ".Linfo_string360:"
    },
    {
      "labels": [],
      "source": null,
      "text": "        .asciz  \"iswspace\"              # string offset=3852"
    },
    {
      "labels": [],
      "source": null,
      "text": ".Linfo_string361:"
    },
    {
      "labels": [],
      "source": null,
      "text": "        .asciz  \"iswupper\"              # string offset=3861"
    },
    {
      "labels": [],
      "source": null,
      "text": ".Linfo_string362:"
    },
    {
      "labels": [],
      "source": null,
      "text": "        .asciz  \"iswxdigit\"             # string offset=3870"
    },
    {
      "labels": [],
      "source": null,
      "text": ".Linfo_string363:"
    },
    {
      "labels": [],
      "source": null,
      "text": "        .asciz  \"towctrans\"             # string offset=3880"
    },
    {
      "labels": [],
      "source": null,
      "text": ".Linfo_string364:"
    },
    {
      "labels": [],
      "source": null,
      "text": "        .asciz  \"towlower\"              # string offset=3890"
    },
    {
      "labels": [],
      "source": null,
      "text": ".Linfo_string365:"
    },
    {
      "labels": [],
      "source": null,
      "text": "        .asciz  \"towupper\"              # string offset=3899"
    },
    {
      "labels": [],
      "source": null,
      "text": ".Linfo_string366:"
    },
    {
      "labels": [],
      "source": null,
      "text": "        .asciz  \"wctrans\"               # string offset=3908"
    },
    {
      "labels": [],
      "source": null,
      "text": ".Linfo_string367:"
    },
    {
      "labels": [],
      "source": null,
      "text": "        .asciz  \"wctype\"                # string offset=3916"
    },
    {
      "labels": [],
      "source": null,
      "text": ".Linfo_string368:"
    },
    {
      "labels": [],
      "source": null,
      "text": "        .asciz  \"type_traits_internal\"  # string offset=3923"
    },
    {
      "labels": [],
      "source": null,
      "text": ".Linfo_string369:"
    },
    {
      "labels": [],
      "source": null,
      "text": "        .asciz  \"swap_internal\"         # string offset=3944"
    },
    {
      "labels": [],
      "source": null,
      "text": ".Linfo_string370:"
    },
    {
      "labels": [],
      "source": null,
      "text": "        .asciz  \"IsSwappable<void ()>\"  # string offset=3958"
    },
    {
      "labels": [],
      "source": null,
      "text": ".Linfo_string371:"
    },
    {
      "labels": [],
      "source": null,
      "text": "        .asciz  \"StdSwapIsUnconstrained\" # string offset=3979"
    },
    {
      "labels": [],
      "source": null,
      "text": ".Linfo_string372:"
    },
    {
      "labels": [],
      "source": null,
      "text": "        .asciz  \"__default_lock_policy\" # string offset=4002"
    },
    {
      "labels": [],
      "source": null,
      "text": ".Linfo_string373:"
    },
    {
      "labels": [],
      "source": null,
      "text": "        .asciz  \"_ZN9__gnu_cxxL21__default_lock_policyE\" # string offset=4024"
    },
    {
      "labels": [],
      "source": null,
      "text": ".Linfo_string374:"
    },
    {
      "labels": [],
      "source": null,
      "text": "        .asciz  \"engaged_\"              # string offset=4063"
    },
    {
      "labels": [],
      "source": null,
      "text": ".Linfo_string375:"
    },
    {
      "labels": [],
      "source": null,
      "text": "        .asciz  \"dummy_\"                # string offset=4072"
    },
    {
      "labels": [],
      "source": null,
      "text": ".Linfo_string376:"
    },
    {
      "labels": [],
      "source": null,
      "text": "        .asciz  \"data\"                  # string offset=4079"
    },
    {
      "labels": [],
      "source": null,
      "text": ".Linfo_string377:"
    },
    {
      "labels": [],
      "source": null,
      "text": "        .asciz  \"empty_struct\"          # string offset=4084"
    },
    {
      "labels": [],
      "source": null,
      "text": ".Linfo_string378:"
    },
    {
      "labels": [],
      "source": null,
      "text": "        .asciz  \"dummy_type\"            # string offset=4097"
    },
    {
      "labels": [],
      "source": null,
      "text": ".Linfo_string379:"
    },
    {
      "labels": [],
      "source": null,
      "text": "        .asciz  \"data_\"                 # string offset=4108"
    },
    {
      "labels": [],
      "source": null,
      "text": ".Linfo_string380:"
    },
    {
      "labels": [],
      "source": null,
      "text": "        .asciz  \"npos\"                  # string offset=4114"
    },
    {
      "labels": [],
      "source": null,
      "text": ".Linfo_string381:"
    },
    {
      "labels": [],
      "source": null,
      "text": "        .asciz  \"size_type\"             # string offset=4119"
    },
    {
      "labels": [],
      "source": null,
      "text": ".Linfo_string382:"
    },
    {
      "labels": [],
      "source": null,
      "text": "        .asciz  \"kMaxSize\"              # string offset=4129"
    },
    {
      "labels": [],
      "source": null,
      "text": ".Linfo_string383:"
    },
    {
      "labels": [],
      "source": null,
      "text": "        .asciz  \"ptr_\"                  # string offset=4138"
    },
    {
      "labels": [],
      "source": null,
      "text": ".Linfo_string384:"
    },
    {
      "labels": [],
      "source": null,
      "text": "        .asciz  \"length_\"               # string offset=4143"
    },
    {
      "labels": [],
      "source": null,
      "text": ".Linfo_string385:"
    },
    {
      "labels": [],
      "source": null,
      "text": "        .asciz  \"string_view\"           # string offset=4151"
    },
    {
      "labels": [],
      "source": null,
      "text": ".Linfo_string386:"
    },
    {
      "labels": [],
      "source": null,
      "text": "        .asciz  \"_ZNK4absl11string_view5beginEv\" # string offset=4163"
    },
    {
      "labels": [],
      "source": null,
      "text": ".Linfo_string387:"
    },
    {
      "labels": [],
      "source": null,
      "text": "        .asciz  \"begin\"                 # string offset=4194"
    },
    {
      "labels": [],
      "source": null,
      "text": ".Linfo_string388:"
    },
    {
      "labels": [],
      "source": null,
      "text": "        .asciz  \"const_iterator\"        # string offset=4200"
    },
    {
      "labels": [],
      "source": null,
      "text": ".Linfo_string389:"
    },
    {
      "labels": [],
      "source": null,
      "text": "        .asciz  \"_ZNK4absl11string_view3endEv\" # string offset=4215"
    },
    {
      "labels": [],
      "source": null,
      "text": ".Linfo_string390:"
    },
    {
      "labels": [],
      "source": null,
      "text": "        .asciz  \"end\"                   # string offset=4244"
    },
    {
      "labels": [],
      "source": null,
      "text": ".Linfo_string391:"
    },
    {
      "labels": [],
      "source": null,
      "text": "        .asciz  \"_ZNK4absl11string_view6cbeginEv\" # string offset=4248"
    },
    {
      "labels": [],
      "source": null,
      "text": ".Linfo_string392:"
    },
    {
      "labels": [],
      "source": null,
      "text": "        .asciz  \"cbegin\"                # string offset=4280"
    },
    {
      "labels": [],
      "source": null,
      "text": ".Linfo_string393:"
    },
    {
      "labels": [],
      "source": null,
      "text": "        .asciz  \"_ZNK4absl11string_view4cendEv\" # string offset=4287"
    },
    {
      "labels": [],
      "source": null,
      "text": ".Linfo_string394:"
    },
    {
      "labels": [],
      "source": null,
      "text": "        .asciz  \"cend\"                  # string offset=4317"
    },
    {
      "labels": [],
      "source": null,
      "text": ".Linfo_string395:"
    },
    {
      "labels": [],
      "source": null,
      "text": "        .asciz  \"_ZNK4absl11string_view6rbeginEv\" # string offset=4322"
    },
    {
      "labels": [],
      "source": null,
      "text": ".Linfo_string396:"
    },
    {
      "labels": [],
      "source": null,
      "text": "        .asciz  \"rbegin\"                # string offset=4354"
    },
    {
      "labels": [],
      "source": null,
      "text": ".Linfo_string397:"
    },
    {
      "labels": [],
      "source": null,
      "text": "        .asciz  \"input_iterator_tag\"    # string offset=4361"
    },
    {
      "labels": [],
      "source": null,
      "text": ".Linfo_string398:"
    },
    {
      "labels": [],
      "source": null,
      "text": "        .asciz  \"forward_iterator_tag\"  # string offset=4380"
    },
    {
      "labels": [],
      "source": null,
      "text": ".Linfo_string399:"
    },
    {
      "labels": [],
      "source": null,
      "text": "        .asciz  \"bidirectional_iterator_tag\" # string offset=4401"
    },
    {
      "labels": [],
      "source": null,
      "text": ".Linfo_string400:"
    },
    {
      "labels": [],
      "source": null,
      "text": "        .asciz  \"random_access_iterator_tag\" # string offset=4428"
    },
    {
      "labels": [],
      "source": null,
      "text": ".Linfo_string401:"
    },
    {
      "labels": [],
      "source": null,
      "text": "        .asciz  \"_Category\"             # string offset=4455"
    },
    {
      "labels": [],
      "source": null,
      "text": ".Linfo_string402:"
    },
    {
      "labels": [],
      "source": null,
      "text": "        .asciz  \"_Tp\"                   # string offset=4465"
    },
    {
      "labels": [],
      "source": null,
      "text": ".Linfo_string403:"
    },
    {
      "labels": [],
      "source": null,
      "text": "        .asciz  \"_Distance\"             # string offset=4469"
    },
    {
      "labels": [],
      "source": null,
      "text": ".Linfo_string404:"
    },
    {
      "labels": [],
      "source": null,
      "text": "        .asciz  \"_Pointer\"              # string offset=4479"
    },
    {
      "labels": [],
      "source": null,
      "text": ".Linfo_string405:"
    },
    {
      "labels": [],
      "source": null,
      "text": "        .asciz  \"_Reference\"            # string offset=4488"
    },
    {
      "labels": [],
      "source": null,
      "text": ".Linfo_string406:"
    },
    {
      "labels": [],
      "source": null,
      "text": "        .asciz  \"iterator<std::random_access_iterator_tag, char, long, const char *, const char &>\" # string offset=4499"
    },
    {
      "labels": [],
      "source": null,
      "text": ".Linfo_string407:"
    },
    {
      "labels": [],
      "source": null,
      "text": "        .asciz  \"current\"               # string offset=4581"
    },
    {
      "labels": [],
      "source": null,
      "text": ".Linfo_string408:"
    },
    {
      "labels": [],
      "source": null,
      "text": "        .asciz  \"reverse_iterator\"      # string offset=4589"
    },
    {
      "labels": [],
      "source": null,
      "text": ".Linfo_string409:"
    },
    {
      "labels": [],
      "source": null,
      "text": "        .asciz  \"iterator_type\"         # string offset=4606"
    },
    {
      "labels": [],
      "source": null,
      "text": ".Linfo_string410:"
    },
    {
      "labels": [],
      "source": null,
      "text": "        .asciz  \"_ZNKSt16reverse_iteratorIPKcE4baseEv\" # string offset=4620"
    },
    {
      "labels": [],
      "source": null,
      "text": ".Linfo_string411:"
    },
    {
      "labels": [],
      "source": null,
      "text": "        .asciz  \"base\"                  # string offset=4657"
    },
    {
      "labels": [],
      "source": null,
      "text": ".Linfo_string412:"
    },
    {
      "labels": [],
      "source": null,
      "text": "        .asciz  \"_ZNKSt16reverse_iteratorIPKcEdeEv\" # string offset=4662"
    },
    {
      "labels": [],
      "source": null,
      "text": ".Linfo_string413:"
    },
    {
      "labels": [],
      "source": null,
      "text": "        .asciz  \"operator*\"             # string offset=4696"
    },
    {
      "labels": [],
      "source": null,
      "text": ".Linfo_string414:"
    },
    {
      "labels": [],
      "source": null,
      "text": "        .asciz  \"_Iterator\"             # string offset=4706"
    },
    {
      "labels": [],
      "source": null,
      "text": ".Linfo_string415:"
    },
    {
      "labels": [],
      "source": null,
      "text": "        .asciz  \"iterator_traits<const char *>\" # string offset=4716"
    },
    {
      "labels": [],
      "source": null,
      "text": ".Linfo_string416:"
    },
    {
      "labels": [],
      "source": null,
      "text": "        .asciz  \"reference\"             # string offset=4746"
    },
    {
      "labels": [],
      "source": null,
      "text": ".Linfo_string417:"
    },
    {
      "labels": [],
      "source": null,
      "text": "        .asciz  \"_ZNKSt16reverse_iteratorIPKcEptEv\" # string offset=4756"
    },
    {
      "labels": [],
      "source": null,
      "text": ".Linfo_string418:"
    },
    {
      "labels": [],
      "source": null,
      "text": "        .asciz  \"operator->\"            # string offset=4790"
    },
    {
      "labels": [],
      "source": null,
      "text": ".Linfo_string419:"
    },
    {
      "labels": [],
      "source": null,
      "text": "        .asciz  \"pointer\"               # string offset=4801"
    },
    {
      "labels": [],
      "source": null,
      "text": ".Linfo_string420:"
    },
    {
      "labels": [],
      "source": null,
      "text": "        .asciz  \"_ZNSt16reverse_iteratorIPKcEppEv\" # string offset=4809"
    },
    {
      "labels": [],
      "source": null,
      "text": ".Linfo_string421:"
    },
    {
      "labels": [],
      "source": null,
      "text": "        .asciz  \"operator++\"            # string offset=4842"
    },
    {
      "labels": [],
      "source": null,
      "text": ".Linfo_string422:"
    },
    {
      "labels": [],
      "source": null,
      "text": "        .asciz  \"_ZNSt16reverse_iteratorIPKcEppEi\" # string offset=4853"
    },
    {
      "labels": [],
      "source": null,
      "text": ".Linfo_string423:"
    },
    {
      "labels": [],
      "source": null,
      "text": "        .asciz  \"_ZNSt16reverse_iteratorIPKcEmmEv\" # string offset=4886"
    },
    {
      "labels": [],
      "source": null,
      "text": ".Linfo_string424:"
    },
    {
      "labels": [],
      "source": null,
      "text": "        .asciz  \"operator--\"            # string offset=4919"
    },
    {
      "labels": [],
      "source": null,
      "text": ".Linfo_string425:"
    },
    {
      "labels": [],
      "source": null,
      "text": "        .asciz  \"_ZNSt16reverse_iteratorIPKcEmmEi\" # string offset=4930"
    },
    {
      "labels": [],
      "source": null,
      "text": ".Linfo_string426:"
    },
    {
      "labels": [],
      "source": null,
      "text": "        .asciz  \"_ZNKSt16reverse_iteratorIPKcEplEl\" # string offset=4963"
    },
    {
      "labels": [],
      "source": null,
      "text": ".Linfo_string427:"
    },
    {
      "labels": [],
      "source": null,
      "text": "        .asciz  \"operator+\"             # string offset=4997"
    },
    {
      "labels": [],
      "source": null,
      "text": ".Linfo_string428:"
    },
    {
      "labels": [],
      "source": null,
      "text": "        .asciz  \"difference_type\"       # string offset=5007"
    },
    {
      "labels": [],
      "source": null,
      "text": ".Linfo_string429:"
    },
    {
      "labels": [],
      "source": null,
      "text": "        .asciz  \"_ZNSt16reverse_iteratorIPKcEpLEl\" # string offset=5023"
    },
    {
      "labels": [],
      "source": null,
      "text": ".Linfo_string430:"
    },
    {
      "labels": [],
      "source": null,
      "text": "        .asciz  \"operator+=\"            # string offset=5056"
    },
    {
      "labels": [],
      "source": null,
      "text": ".Linfo_string431:"
    },
    {
      "labels": [],
      "source": null,
      "text": "        .asciz  \"_ZNKSt16reverse_iteratorIPKcEmiEl\" # string offset=5067"
    },
    {
      "labels": [],
      "source": null,
      "text": ".Linfo_string432:"
    },
    {
      "labels": [],
      "source": null,
      "text": "        .asciz  \"operator-\"             # string offset=5101"
    },
    {
      "labels": [],
      "source": null,
      "text": ".Linfo_string433:"
    },
    {
      "labels": [],
      "source": null,
      "text": "        .asciz  \"_ZNSt16reverse_iteratorIPKcEmIEl\" # string offset=5111"
    },
    {
      "labels": [],
      "source": null,
      "text": ".Linfo_string434:"
    },
    {
      "labels": [],
      "source": null,
      "text": "        .asciz  \"operator-=\"            # string offset=5144"
    },
    {
      "labels": [],
      "source": null,
      "text": ".Linfo_string435:"
    },
    {
      "labels": [],
      "source": null,
      "text": "        .asciz  \"_ZNKSt16reverse_iteratorIPKcEixEl\" # string offset=5155"
    },
    {
      "labels": [],
      "source": null,
      "text": ".Linfo_string436:"
    },
    {
      "labels": [],
      "source": null,
      "text": "        .asciz  \"operator[]\"            # string offset=5189"
    },
    {
      "labels": [],
      "source": null,
      "text": ".Linfo_string437:"
    },
    {
      "labels": [],
      "source": null,
      "text": "        .asciz  \"reverse_iterator<const char *>\" # string offset=5200"
    },
    {
      "labels": [],
      "source": null,
      "text": ".Linfo_string438:"
    },
    {
      "labels": [],
      "source": null,
      "text": "        .asciz  \"const_reverse_iterator\" # string offset=5231"
    },
    {
      "labels": [],
      "source": null,
      "text": ".Linfo_string439:"
    },
    {
      "labels": [],
      "source": null,
      "text": "        .asciz  \"_ZNK4absl11string_view4rendEv\" # string offset=5254"
    },
    {
      "labels": [],
      "source": null,
      "text": ".Linfo_string440:"
    },
    {
      "labels": [],
      "source": null,
      "text": "        .asciz  \"rend\"                  # string offset=5284"
    },
    {
      "labels": [],
      "source": null,
      "text": ".Linfo_string441:"
    },
    {
      "labels": [],
      "source": null,
      "text": "        .asciz  \"_ZNK4absl11string_view7crbeginEv\" # string offset=5289"
    },
    {
      "labels": [],
      "source": null,
      "text": ".Linfo_string442:"
    },
    {
      "labels": [],
      "source": null,
      "text": "        .asciz  \"crbegin\"               # string offset=5322"
    },
    {
      "labels": [],
      "source": null,
      "text": ".Linfo_string443:"
    },
    {
      "labels": [],
      "source": null,
      "text": "        .asciz  \"_ZNK4absl11string_view5crendEv\" # string offset=5330"
    },
    {
      "labels": [],
      "source": null,
      "text": ".Linfo_string444:"
    },
    {
      "labels": [],
      "source": null,
      "text": "        .asciz  \"crend\"                 # string offset=5361"
    },
    {
      "labels": [],
      "source": null,
      "text": ".Linfo_string445:"
    },
    {
      "labels": [],
      "source": null,
      "text": "        .asciz  \"_ZNK4absl11string_view4sizeEv\" # string offset=5367"
    },
    {
      "labels": [],
      "source": null,
      "text": ".Linfo_string446:"
    },
    {
      "labels": [],
      "source": null,
      "text": "        .asciz  \"size\"                  # string offset=5397"
    },
    {
      "labels": [],
      "source": null,
      "text": ".Linfo_string447:"
    },
    {
      "labels": [],
      "source": null,
      "text": "        .asciz  \"_ZNK4absl11string_view6lengthEv\" # string offset=5402"
    },
    {
      "labels": [],
      "source": null,
      "text": ".Linfo_string448:"
    },
    {
      "labels": [],
      "source": null,
      "text": "        .asciz  \"length\"                # string offset=5434"
    },
    {
      "labels": [],
      "source": null,
      "text": ".Linfo_string449:"
    },
    {
      "labels": [],
      "source": null,
      "text": "        .asciz  \"_ZNK4absl11string_view8max_sizeEv\" # string offset=5441"
    },
    {
      "labels": [],
      "source": null,
      "text": ".Linfo_string450:"
    },
    {
      "labels": [],
      "source": null,
      "text": "        .asciz  \"max_size\"              # string offset=5475"
    },
    {
      "labels": [],
      "source": null,
      "text": ".Linfo_string451:"
    },
    {
      "labels": [],
      "source": null,
      "text": "        .asciz  \"_ZNK4absl11string_view5emptyEv\" # string offset=5484"
    },
    {
      "labels": [],
      "source": null,
      "text": ".Linfo_string452:"
    },
    {
      "labels": [],
      "source": null,
      "text": "        .asciz  \"empty\"                 # string offset=5515"
    },
    {
      "labels": [],
      "source": null,
      "text": ".Linfo_string453:"
    },
    {
      "labels": [],
      "source": null,
      "text": "        .asciz  \"_ZNK4absl11string_viewixEm\" # string offset=5521"
    },
    {
      "labels": [],
      "source": null,
      "text": ".Linfo_string454:"
    },
    {
      "labels": [],
      "source": null,
      "text": "        .asciz  \"const_reference\"       # string offset=5548"
    },
    {
      "labels": [],
      "source": null,
      "text": ".Linfo_string455:"
    },
    {
      "labels": [],
      "source": null,
      "text": "        .asciz  \"_ZNK4absl11string_view5frontEv\" # string offset=5564"
    },
    {
      "labels": [],
      "source": null,
      "text": ".Linfo_string456:"
    },
    {
      "labels": [],
      "source": null,
      "text": "        .asciz  \"front\"                 # string offset=5595"
    },
    {
      "labels": [],
      "source": null,
      "text": ".Linfo_string457:"
    },
    {
      "labels": [],
      "source": null,
      "text": "        .asciz  \"_ZNK4absl11string_view4backEv\" # string offset=5601"
    },
    {
      "labels": [],
      "source": null,
      "text": ".Linfo_string458:"
    },
    {
      "labels": [],
      "source": null,
      "text": "        .asciz  \"back\"                  # string offset=5631"
    },
    {
      "labels": [],
      "source": null,
      "text": ".Linfo_string459:"
    },
    {
      "labels": [],
      "source": null,
      "text": "        .asciz  \"_ZNK4absl11string_view4dataEv\" # string offset=5636"
    },
    {
      "labels": [],
      "source": null,
      "text": ".Linfo_string460:"
    },
    {
      "labels": [],
      "source": null,
      "text": "        .asciz  \"const_pointer\"         # string offset=5666"
    },
    {
      "labels": [],
      "source": null,
      "text": ".Linfo_string461:"
    },
    {
      "labels": [],
      "source": null,
      "text": "        .asciz  \"_ZN4absl11string_view13remove_prefixEm\" # string offset=5680"
    },
    {
      "labels": [],
      "source": null,
      "text": ".Linfo_string462:"
    },
    {
      "labels": [],
      "source": null,
      "text": "        .asciz  \"remove_prefix\"         # string offset=5719"
    },
    {
      "labels": [],
      "source": null,
      "text": ".Linfo_string463:"
    },
    {
      "labels": [],
      "source": null,
      "text": "        .asciz  \"_ZN4absl11string_view13remove_suffixEm\" # string offset=5733"
    },
    {
      "labels": [],
      "source": null,
      "text": ".Linfo_string464:"
    },
    {
      "labels": [],
      "source": null,
      "text": "        .asciz  \"remove_suffix\"         # string offset=5772"
    },
    {
      "labels": [],
      "source": null,
      "text": ".Linfo_string465:"
    },
    {
      "labels": [],
      "source": null,
      "text": "        .asciz  \"_ZN4absl11string_view4swapERS0_\" # string offset=5786"
    },
    {
      "labels": [],
      "source": null,
      "text": ".Linfo_string466:"
    },
    {
      "labels": [],
      "source": null,
      "text": "        .asciz  \"_ZNK4absl11string_view4copyEPcmm\" # string offset=5818"
    },
    {
      "labels": [],
      "source": null,
      "text": ".Linfo_string467:"
    },
    {
      "labels": [],
      "source": null,
      "text": "        .asciz  \"copy\"                  # string offset=5851"
    },
    {
      "labels": [],
      "source": null,
      "text": ".Linfo_string468:"
    },
    {
      "labels": [],
      "source": null,
      "text": "        .asciz  \"_ZNK4absl11string_view6substrEmm\" # string offset=5856"
    },
    {
      "labels": [],
      "source": null,
      "text": ".Linfo_string469:"
    },
    {
      "labels": [],
      "source": null,
      "text": "        .asciz  \"substr\"                # string offset=5889"
    },
    {
      "labels": [],
      "source": null,
      "text": ".Linfo_string470:"
    },
    {
      "labels": [],
      "source": null,
      "text": "        .asciz  \"_ZNK4absl11string_view7compareES0_\" # string offset=5896"
    },
    {
      "labels": [],
      "source": null,
      "text": ".Linfo_string471:"
    },
    {
      "labels": [],
      "source": null,
      "text": "        .asciz  \"compare\"               # string offset=5931"
    },
    {
      "labels": [],
      "source": null,
      "text": ".Linfo_string472:"
    },
    {
      "labels": [],
      "source": null,
      "text": "        .asciz  \"_ZNK4absl11string_view7compareEmmS0_\" # string offset=5939"
    },
    {
      "labels": [],
      "source": null,
      "text": ".Linfo_string473:"
    },
    {
      "labels": [],
      "source": null,
      "text": "        .asciz  \"_ZNK4absl11string_view7compareEmmS0_mm\" # string offset=5976"
    },
    {
      "labels": [],
      "source": null,
      "text": ".Linfo_string474:"
    },
    {
      "labels": [],
      "source": null,
      "text": "        .asciz  \"_ZNK4absl11string_view7compareEPKc\" # string offset=6015"
    },
    {
      "labels": [],
      "source": null,
      "text": ".Linfo_string475:"
    },
    {
      "labels": [],
      "source": null,
      "text": "        .asciz  \"_ZNK4absl11string_view7compareEmmPKc\" # string offset=6050"
    },
    {
      "labels": [],
      "source": null,
      "text": ".Linfo_string476:"
    },
    {
      "labels": [],
      "source": null,
      "text": "        .asciz  \"_ZNK4absl11string_view7compareEmmPKcm\" # string offset=6087"
    },
    {
      "labels": [],
      "source": null,
      "text": ".Linfo_string477:"
    },
    {
      "labels": [],
      "source": null,
      "text": "        .asciz  \"_ZNK4absl11string_view4findES0_m\" # string offset=6125"
    },
    {
      "labels": [],
      "source": null,
      "text": ".Linfo_string478:"
    },
    {
      "labels": [],
      "source": null,
      "text": "        .asciz  \"find\"                  # string offset=6158"
    },
    {
      "labels": [],
      "source": null,
      "text": ".Linfo_string479:"
    },
    {
      "labels": [],
      "source": null,
      "text": "        .asciz  \"_ZNK4absl11string_view4findEcm\" # string offset=6163"
    },
    {
      "labels": [],
      "source": null,
      "text": ".Linfo_string480:"
    },
    {
      "labels": [],
      "source": null,
      "text": "        .asciz  \"_ZNK4absl11string_view5rfindES0_m\" # string offset=6194"
    },
    {
      "labels": [],
      "source": null,
      "text": ".Linfo_string481:"
    },
    {
      "labels": [],
      "source": null,
      "text": "        .asciz  \"rfind\"                 # string offset=6228"
    },
    {
      "labels": [],
      "source": null,
      "text": ".Linfo_string482:"
    },
    {
      "labels": [],
      "source": null,
      "text": "        .asciz  \"_ZNK4absl11string_view5rfindEcm\" # string offset=6234"
    },
    {
      "labels": [],
      "source": null,
      "text": ".Linfo_string483:"
    },
    {
      "labels": [],
      "source": null,
      "text": "        .asciz  \"_ZNK4absl11string_view13find_first_ofES0_m\" # string offset=6266"
    },
    {
      "labels": [],
      "source": null,
      "text": ".Linfo_string484:"
    },
    {
      "labels": [],
      "source": null,
      "text": "        .asciz  \"find_first_of\"         # string offset=6309"
    },
    {
      "labels": [],
      "source": null,
      "text": ".Linfo_string485:"
    },
    {
      "labels": [],
      "source": null,
      "text": "        .asciz  \"_ZNK4absl11string_view13find_first_ofEcm\" # string offset=6323"
    },
    {
      "labels": [],
      "source": null,
      "text": ".Linfo_string486:"
    },
    {
      "labels": [],
      "source": null,
      "text": "        .asciz  \"_ZNK4absl11string_view12find_last_ofES0_m\" # string offset=6364"
    },
    {
      "labels": [],
      "source": null,
      "text": ".Linfo_string487:"
    },
    {
      "labels": [],
      "source": null,
      "text": "        .asciz  \"find_last_of\"          # string offset=6406"
    },
    {
      "labels": [],
      "source": null,
      "text": ".Linfo_string488:"
    },
    {
      "labels": [],
      "source": null,
      "text": "        .asciz  \"_ZNK4absl11string_view12find_last_ofEcm\" # string offset=6419"
    },
    {
      "labels": [],
      "source": null,
      "text": ".Linfo_string489:"
    },
    {
      "labels": [],
      "source": null,
      "text": "        .asciz  \"_ZNK4absl11string_view17find_first_not_ofES0_m\" # string offset=6459"
    },
    {
      "labels": [],
      "source": null,
      "text": ".Linfo_string490:"
    },
    {
      "labels": [],
      "source": null,
      "text": "        .asciz  \"find_first_not_of\"     # string offset=6506"
    },
    {
      "labels": [],
      "source": null,
      "text": ".Linfo_string491:"
    },
    {
      "labels": [],
      "source": null,
      "text": "        .asciz  \"_ZNK4absl11string_view17find_first_not_ofEcm\" # string offset=6524"
    },
    {
      "labels": [],
      "source": null,
      "text": ".Linfo_string492:"
    },
    {
      "labels": [],
      "source": null,
      "text": "        .asciz  \"_ZNK4absl11string_view16find_last_not_ofES0_m\" # string offset=6569"
    },
    {
      "labels": [],
      "source": null,
      "text": ".Linfo_string493:"
    },
    {
      "labels": [],
      "source": null,
      "text": "        .asciz  \"find_last_not_of\"      # string offset=6615"
    },
    {
      "labels": [],
      "source": null,
      "text": ".Linfo_string494:"
    },
    {
      "labels": [],
      "source": null,
      "text": "        .asciz  \"_ZNK4absl11string_view16find_last_not_ofEcm\" # string offset=6632"
    },
    {
      "labels": [],
      "source": null,
      "text": ".Linfo_string495:"
    },
    {
      "labels": [],
      "source": null,
      "text": "        .asciz  \"_ZN4absl11string_view19CheckLengthInternalEm\" # string offset=6676"
    },
    {
      "labels": [],
      "source": null,
      "text": ".Linfo_string496:"
    },
    {
      "labels": [],
      "source": null,
      "text": "        .asciz  \"CheckLengthInternal\"   # string offset=6721"
    },
    {
      "labels": [],
      "source": null,
      "text": ".Linfo_string497:"
    },
    {
      "labels": [],
      "source": null,
      "text": "        .asciz  \"_ZN4absl17optional_internal23optional_data_dtor_baseINS_11string_viewELb1EE8destructEv\" # string offset=6741"
    },
    {
      "labels": [],
      "source": null,
      "text": ".Linfo_string498:"
    },
    {
      "labels": [],
      "source": null,
      "text": "        .asciz  \"destruct\"              # string offset=6828"
    },
    {
      "labels": [],
      "source": null,
      "text": ".Linfo_string499:"
    },
    {
      "labels": [],
      "source": null,
      "text": "        .asciz  \"optional_data_dtor_base\" # string offset=6837"
    },
    {
      "labels": [],
      "source": null,
      "text": ".Linfo_string500:"
    },
    {
      "labels": [],
      "source": null,
      "text": "        .asciz  \"unused\"                # string offset=6861"
    },
    {
      "labels": [],
      "source": null,
      "text": ".Linfo_string501:"
    },
    {
      "labels": [],
      "source": null,
      "text": "        .asciz  \"optional_data_dtor_base<absl::string_view, true>\" # string offset=6868"
    },
    {
      "labels": [],
      "source": null,
      "text": ".Linfo_string502:"
    },
    {
      "labels": [],
      "source": null,
      "text": "        .asciz  \"optional_data_base<absl::string_view>\" # string offset=6917"
    },
    {
      "labels": [],
      "source": null,
      "text": ".Linfo_string503:"
    },
    {
      "labels": [],
      "source": null,
      "text": "        .asciz  \"optional_data<absl::string_view, true>\" # string offset=6955"
    },
    {
      "labels": [],
      "source": null,
      "text": ".Linfo_string504:"
    },
    {
      "labels": [],
      "source": null,
      "text": "        .asciz  \"optional_ctor_base\"    # string offset=6994"
    },
    {
      "labels": [],
      "source": null,
      "text": ".Linfo_string505:"
    },
    {
      "labels": [],
      "source": null,
      "text": "        .asciz  \"_ZN4absl17optional_internal18optional_ctor_baseILNS0_11copy_traitsE0EEaSERKS3_\" # string offset=7013"
    },
    {
      "labels": [],
      "source": null,
      "text": ".Linfo_string506:"
    },
    {
      "labels": [],
      "source": null,
      "text": "        .asciz  \"_ZN4absl17optional_internal18optional_ctor_baseILNS0_11copy_traitsE0EEaSEOS3_\" # string offset=7092"
    },
    {
      "labels": [],
      "source": null,
      "text": ".Linfo_string507:"
    },
    {
      "labels": [],
      "source": null,
      "text": "        .asciz  \"optional_ctor_base<absl::optional_internal::copy_traits::copyable>\" # string offset=7170"
    },
    {
      "labels": [],
      "source": null,
      "text": ".Linfo_string508:"
    },
    {
      "labels": [],
      "source": null,
      "text": "        .asciz  \"optional_assign_base\"  # string offset=7237"
    },
    {
      "labels": [],
      "source": null,
      "text": ".Linfo_string509:"
    },
    {
      "labels": [],
      "source": null,
      "text": "        .asciz  \"_ZN4absl17optional_internal20optional_assign_baseILNS0_11copy_traitsE0EEaSERKS3_\" # string offset=7258"
    },
    {
      "labels": [],
      "source": null,
      "text": ".Linfo_string510:"
    },
    {
      "labels": [],
      "source": null,
      "text": "        .asciz  \"_ZN4absl17optional_internal20optional_assign_baseILNS0_11copy_traitsE0EEaSEOS3_\" # string offset=7339"
    },
    {
      "labels": [],
      "source": null,
      "text": ".Linfo_string511:"
    },
    {
      "labels": [],
      "source": null,
      "text": "        .asciz  \"optional_assign_base<absl::optional_internal::copy_traits::copyable>\" # string offset=7419"
    },
    {
      "labels": [],
      "source": null,
      "text": ".Linfo_string512:"
    },
    {
      "labels": [],
      "source": null,
      "text": "        .asciz  \"optional\"              # string offset=7488"
    },
    {
      "labels": [],
      "source": null,
      "text": ".Linfo_string513:"
    },
    {
      "labels": [],
      "source": null,
      "text": "        .asciz  \"~optional\"             # string offset=7497"
    },
    {
      "labels": [],
      "source": null,
      "text": ".Linfo_string514:"
    },
    {
      "labels": [],
      "source": null,
      "text": "        .asciz  \"_ZN4absl8optionalINS_11string_viewEEaSENS_9nullopt_tE\" # string offset=7507"
    },
    {
      "labels": [],
      "source": null,
      "text": ".Linfo_string515:"
    },
    {
      "labels": [],
      "source": null,
      "text": "        .asciz  \"_ZN4absl8optionalINS_11string_viewEEaSERKS2_\" # string offset=7561"
    },
    {
      "labels": [],
      "source": null,
      "text": ".Linfo_string516:"
    },
    {
      "labels": [],
      "source": null,
      "text": "        .asciz  \"_ZN4absl8optionalINS_11string_viewEEaSEOS2_\" # string offset=7606"
    },
    {
      "labels": [],
      "source": null,
      "text": ".Linfo_string517:"
    },
    {
      "labels": [],
      "source": null,
      "text": "        .asciz  \"_ZN4absl8optionalINS_11string_viewEE5resetEv\" # string offset=7650"
    },
    {
      "labels": [],
      "source": null,
      "text": ".Linfo_string518:"
    },
    {
      "labels": [],
      "source": null,
      "text": "        .asciz  \"reset\"                 # string offset=7695"
    },
    {
      "labels": [],
      "source": null,
      "text": ".Linfo_string519:"
    },
    {
      "labels": [],
      "source": null,
      "text": "        .asciz  \"_ZN4absl8optionalINS_11string_viewEE4swapERS2_\" # string offset=7701"
    },
    {
      "labels": [],
      "source": null,
      "text": ".Linfo_string520:"
    },
    {
      "labels": [],
      "source": null,
      "text": "        .asciz  \"_ZNK4absl8optionalINS_11string_viewEEptEv\" # string offset=7748"
    },
    {
      "labels": [],
      "source": null,
      "text": ".Linfo_string521:"
    },
    {
      "labels": [],
      "source": null,
      "text": "        .asciz  \"_ZN4absl8optionalINS_11string_viewEEptEv\" # string offset=7790"
    },
    {
      "labels": [],
      "source": null,
      "text": ".Linfo_string522:"
    },
    {
      "labels": [],
      "source": null,
      "text": "        .asciz  \"_ZNKR4absl8optionalINS_11string_viewEEdeEv\" # string offset=7831"
    },
    {
      "labels": [],
      "source": null,
      "text": ".Linfo_string523:"
    },
    {
      "labels": [],
      "source": null,
      "text": "        .asciz  \"_ZNR4absl8optionalINS_11string_viewEEdeEv\" # string offset=7874"
    },
    {
      "labels": [],
      "source": null,
      "text": ".Linfo_string524:"
    },
    {
      "labels": [],
      "source": null,
      "text": "        .asciz  \"_ZNKO4absl8optionalINS_11string_viewEEdeEv\" # string offset=7916"
    },
    {
      "labels": [],
      "source": null,
      "text": ".Linfo_string525:"
    },
    {
      "labels": [],
      "source": null,
      "text": "        .asciz  \"_ZNO4absl8optionalINS_11string_viewEEdeEv\" # string offset=7959"
    },
    {
      "labels": [],
      "source": null,
      "text": ".Linfo_string526:"
    },
    {
      "labels": [],
      "source": null,
      "text": "        .asciz  \"_ZNK4absl8optionalINS_11string_viewEEcvbEv\" # string offset=8001"
    },
    {
      "labels": [],
      "source": null,
      "text": ".Linfo_string527:"
    },
    {
      "labels": [],
      "source": null,
      "text": "        .asciz  \"_ZNK4absl8optionalINS_11string_viewEE9has_valueEv\" # string offset=8044"
    },
    {
      "labels": [],
      "source": null,
      "text": ".Linfo_string528:"
    },
    {
      "labels": [],
      "source": null,
      "text": "        .asciz  \"has_value\"             # string offset=8094"
    },
    {
      "labels": [],
      "source": null,
      "text": ".Linfo_string529:"
    },
    {
      "labels": [],
      "source": null,
      "text": "        .asciz  \"_ZNKR4absl8optionalINS_11string_viewEE5valueEv\" # string offset=8104"
    },
    {
      "labels": [],
      "source": null,
      "text": ".Linfo_string530:"
    },
    {
      "labels": [],
      "source": null,
      "text": "        .asciz  \"value\"                 # string offset=8151"
    },
    {
      "labels": [],
      "source": null,
      "text": ".Linfo_string531:"
    },
    {
      "labels": [],
      "source": null,
      "text": "        .asciz  \"_ZNR4absl8optionalINS_11string_viewEE5valueEv\" # string offset=8157"
    },
    {
      "labels": [],
      "source": null,
      "text": ".Linfo_string532:"
    },
    {
      "labels": [],
      "source": null,
      "text": "        .asciz  \"_ZNO4absl8optionalINS_11string_viewEE5valueEv\" # string offset=8203"
    },
    {
      "labels": [],
      "source": null,
      "text": ".Linfo_string533:"
    },
    {
      "labels": [],
      "source": null,
      "text": "        .asciz  \"_ZNKO4absl8optionalINS_11string_viewEE5valueEv\" # string offset=8249"
    },
    {
      "labels": [],
      "source": null,
      "text": ".Linfo_string534:"
    },
    {
      "labels": [],
      "source": null,
      "text": "        .asciz  \"_ZNK4absl8optionalINS_11string_viewEE9referenceEv\" # string offset=8296"
    },
    {
      "labels": [],
      "source": null,
      "text": ".Linfo_string535:"
    },
    {
      "labels": [],
      "source": null,
      "text": "        .asciz  \"_ZN4absl8optionalINS_11string_viewEE9referenceEv\" # string offset=8346"
    },
    {
      "labels": [],
      "source": null,
      "text": ".Linfo_string536:"
    },
    {
      "labels": [],
      "source": null,
      "text": "        .asciz  \"optional<absl::string_view>\" # string offset=8395"
    },
    {
      "labels": [],
      "source": null,
      "text": ".Linfo_string537:"
    },
    {
      "labels": [],
      "source": null,
      "text": "        .asciz  \"this\"                  # string offset=8423"
    },
    {
      "labels": [],
      "source": null,
      "text": ".Linfo_string538:"
    },
    {
      "labels": [],
      "source": null,
      "text": "        .asciz  \"size_\"                 # string offset=8428"
    },
    {
      "labels": [],
      "source": null,
      "text": ".Linfo_string539:"
    },
    {
      "labels": [],
      "source": null,
      "text": "        .asciz  \"string\"                # string offset=8434"
    },
    {
      "labels": [],
      "source": null,
      "text": ".Linfo_string540:"
    },
    {
      "labels": [],
      "source": null,
      "text": "        .asciz  \"_ZN6stringaSEOS_\"      # string offset=8441"
    },
    {
      "labels": [],
      "source": null,
      "text": ".Linfo_string541:"
    },
    {
      "labels": [],
      "source": null,
      "text": "        .asciz  \"~string\"               # string offset=8458"
    },
    {
      "labels": [],
      "source": null,
      "text": ".Linfo_string542:"
    },
    {
      "labels": [],
      "source": null,
      "text": "        .asciz  \"_ZN6string6assignEPKcm\" # string offset=8466"
    },
    {
      "labels": [],
      "source": null,
      "text": ".Linfo_string543:"
    },
    {
      "labels": [],
      "source": null,
      "text": "        .asciz  \"assign\"                # string offset=8489"
    },
    {
      "labels": [],
      "source": null,
      "text": ".Linfo_string544:"
    },
    {
      "labels": [],
      "source": null,
      "text": "        .asciz  \"_ZN4absl17optional_internal23optional_data_dtor_baseI6stringLb0EE8destructEv\" # string offset=8496"
    },
    {
      "labels": [],
      "source": null,
      "text": ".Linfo_string545:"
    },
    {
      "labels": [],
      "source": null,
      "text": "        .asciz  \"~optional_data_dtor_base\" # string offset=8573"
    },
    {
      "labels": [],
      "source": null,
      "text": ".Linfo_string546:"
    },
    {
      "labels": [],
      "source": null,
      "text": "        .asciz  \"optional_data_dtor_base<string, false>\" # string offset=8598"
    },
    {
      "labels": [],
      "source": null,
      "text": ".Linfo_string547:"
    },
    {
      "labels": [],
      "source": null,
      "text": "        .asciz  \"optional_data_base<string>\" # string offset=8637"
    },
    {
      "labels": [],
      "source": null,
      "text": ".Linfo_string548:"
    },
    {
      "labels": [],
      "source": null,
      "text": "        .asciz  \"optional_data\"         # string offset=8664"
    },
    {
      "labels": [],
      "source": null,
      "text": ".Linfo_string549:"
    },
    {
      "labels": [],
      "source": null,
      "text": "        .asciz  \"_ZN4absl17optional_internal13optional_dataI6stringLb0EEaSERKS3_\" # string offset=8678"
    },
    {
      "labels": [],
      "source": null,
      "text": ".Linfo_string550:"
    },
    {
      "labels": [],
      "source": null,
      "text": "        .asciz  \"_ZN4absl17optional_internal13optional_dataI6stringLb0EEaSEOS3_\" # string offset=8742"
    },
    {
      "labels": [],
      "source": null,
      "text": ".Linfo_string551:"
    },
    {
      "labels": [],
      "source": null,
      "text": "        .asciz  \"optional_data<string, false>\" # string offset=8805"
    },
    {
      "labels": [],
      "source": null,
      "text": ".Linfo_string552:"
    },
    {
      "labels": [],
      "source": null,
      "text": "        .asciz  \"_ZN4absl17optional_internal20optional_assign_baseILNS0_11copy_traitsE1EEaSERKS3_\" # string offset=8834"
    },
    {
      "labels": [],
      "source": null,
      "text": ".Linfo_string553:"
    },
    {
      "labels": [],
      "source": null,
      "text": "        .asciz  \"_ZN4absl17optional_internal20optional_assign_baseILNS0_11copy_traitsE1EEaSEOS3_\" # string offset=8915"
    },
    {
      "labels": [],
      "source": null,
      "text": ".Linfo_string554:"
    },
    {
      "labels": [],
      "source": null,
      "text": "        .asciz  \"optional_assign_base<absl::optional_internal::copy_traits::movable>\" # string offset=8995"
    },
    {
      "labels": [],
      "source": null,
      "text": ".Linfo_string555:"
    },
    {
      "labels": [],
      "source": null,
      "text": "        .asciz  \"_ZN4absl8optionalI6stringEaSENS_9nullopt_tE\" # string offset=9063"
    },
    {
      "labels": [],
      "source": null,
      "text": ".Linfo_string556:"
    },
    {
      "labels": [],
      "source": null,
      "text": "        .asciz  \"_ZN4absl8optionalI6stringEaSERKS2_\" # string offset=9107"
    },
    {
      "labels": [],
      "source": null,
      "text": ".Linfo_string557:"
    },
    {
      "labels": [],
      "source": null,
      "text": "        .asciz  \"_ZN4absl8optionalI6stringEaSEOS2_\" # string offset=9142"
    },
    {
      "labels": [],
      "source": null,
      "text": ".Linfo_string558:"
    },
    {
      "labels": [],
      "source": null,
      "text": "        .asciz  \"_ZN4absl8optionalI6stringE5resetEv\" # string offset=9176"
    },
    {
      "labels": [],
      "source": null,
      "text": ".Linfo_string559:"
    },
    {
      "labels": [],
      "source": null,
      "text": "        .asciz  \"_ZN4absl8optionalI6stringE4swapERS2_\" # string offset=9211"
    },
    {
      "labels": [],
      "source": null,
      "text": ".Linfo_string560:"
    },
    {
      "labels": [],
      "source": null,
      "text": "        .asciz  \"_ZNK4absl8optionalI6stringEptEv\" # string offset=9248"
    },
    {
      "labels": [],
      "source": null,
      "text": ".Linfo_string561:"
    },
    {
      "labels": [],
      "source": null,
      "text": "        .asciz  \"_ZN4absl8optionalI6stringEptEv\" # string offset=9280"
    },
    {
      "labels": [],
      "source": null,
      "text": ".Linfo_string562:"
    },
    {
      "labels": [],
      "source": null,
      "text": "        .asciz  \"_ZNKR4absl8optionalI6stringEdeEv\" # string offset=9311"
    },
    {
      "labels": [],
      "source": null,
      "text": ".Linfo_string563:"
    },
    {
      "labels": [],
      "source": null,
      "text": "        .asciz  \"_ZNR4absl8optionalI6stringEdeEv\" # string offset=9344"
    },
    {
      "labels": [],
      "source": null,
      "text": ".Linfo_string564:"
    },
    {
      "labels": [],
      "source": null,
      "text": "        .asciz  \"_ZNKO4absl8optionalI6stringEdeEv\" # string offset=9376"
    },
    {
      "labels": [],
      "source": null,
      "text": ".Linfo_string565:"
    },
    {
      "labels": [],
      "source": null,
      "text": "        .asciz  \"_ZNO4absl8optionalI6stringEdeEv\" # string offset=9409"
    },
    {
      "labels": [],
      "source": null,
      "text": ".Linfo_string566:"
    },
    {
      "labels": [],
      "source": null,
      "text": "        .asciz  \"_ZNK4absl8optionalI6stringEcvbEv\" # string offset=9441"
    },
    {
      "labels": [],
      "source": null,
      "text": ".Linfo_string567:"
    },
    {
      "labels": [],
      "source": null,
      "text": "        .asciz  \"_ZNK4absl8optionalI6stringE9has_valueEv\" # string offset=9474"
    },
    {
      "labels": [],
      "source": null,
      "text": ".Linfo_string568:"
    },
    {
      "labels": [],
      "source": null,
      "text": "        .asciz  \"_ZNKR4absl8optionalI6stringE5valueEv\" # string offset=9514"
    },
    {
      "labels": [],
      "source": null,
      "text": ".Linfo_string569:"
    },
    {
      "labels": [],
      "source": null,
      "text": "        .asciz  \"_ZNR4absl8optionalI6stringE5valueEv\" # string offset=9551"
    },
    {
      "labels": [],
      "source": null,
      "text": ".Linfo_string570:"
    },
    {
      "labels": [],
      "source": null,
      "text": "        .asciz  \"_ZNO4absl8optionalI6stringE5valueEv\" # string offset=9587"
    },
    {
      "labels": [],
      "source": null,
      "text": ".Linfo_string571:"
    },
    {
      "labels": [],
      "source": null,
      "text": "        .asciz  \"_ZNKO4absl8optionalI6stringE5valueEv\" # string offset=9623"
    },
    {
      "labels": [],
      "source": null,
      "text": ".Linfo_string572:"
    },
    {
      "labels": [],
      "source": null,
      "text": "        .asciz  \"_ZNK4absl8optionalI6stringE9referenceEv\" # string offset=9660"
    },
    {
      "labels": [],
      "source": null,
      "text": ".Linfo_string573:"
    },
    {
      "labels": [],
      "source": null,
      "text": "        .asciz  \"_ZN4absl8optionalI6stringE9referenceEv\" # string offset=9700"
    },
    {
      "labels": [],
      "source": null,
      "text": ".Linfo_string574:"
    },
    {
      "labels": [],
      "source": null,
      "text": "        .asciz  \"optional<string>\"      # string offset=9739"
    },
    {
      "labels": [],
      "source": null,
      "text": ".Linfo_string575:"
    },
    {
      "labels": [],
      "source": null,
      "text": "        .asciz  \"Args\"                  # string offset=9756"
    },
    {
      "labels": [],
      "source": null,
      "text": ".Linfo_string576:"
    },
    {
      "labels": [],
      "source": null,
      "text": "        .asciz  \"_ZN4absl17optional_internal18optional_data_baseI6stringE9constructIJRNS_11string_viewEEEEvDpOT_\" # string offset=9761"
    },
    {
      "labels": [],
      "source": null,
      "text": ".Linfo_string577:"
    },
    {
      "labels": [],
      "source": null,
      "text": "        .asciz  \"construct<absl::string_view &>\" # string offset=9857"
    },
    {
      "labels": [],
      "source": null,
      "text": ".Linfo_string578:"
    },
    {
      "labels": [],
      "source": null,
      "text": "        .asciz  \"args\"                  # string offset=9888"
    },
    {
      "labels": [],
      "source": null,
      "text": ".Linfo_string579:"
    },
    {
      "labels": [],
      "source": null,
      "text": "        .asciz  \"_ZN4absl8optionalI6stringE7emplaceIJRNS_11string_viewEEvEERS1_DpOT_\" # string offset=9893"
    },
    {
      "labels": [],
      "source": null,
      "text": ".Linfo_string580:"
    },
    {
      "labels": [],
      "source": null,
      "text": "        .asciz  \"emplace<absl::string_view &, void>\" # string offset=9961"
    },
    {
      "labels": [],
      "source": null,
      "text": ".Linfo_string581:"
    },
    {
      "labels": [],
      "source": null,
      "text": "        .asciz  \"value_\"                # string offset=9996"
    },
    {
      "labels": [],
      "source": null,
      "text": ".Linfo_string582:"
    },
    {
      "labels": [
        {
          "name": "_ZN1C8SetValueEN4absl8optionalINS0_11string_viewEEE",
          "range": {
            "endCol": 69,
            "startCol": 18
          }
        }
      ],
      "source": null,
      "text": "        .asciz  \"_ZN1C8SetValueEN4absl8optionalINS0_11string_viewEEE\" # string offset=10003"
    },
    {
      "labels": [],
      "source": null,
      "text": ".Linfo_string583:"
    },
    {
      "labels": [],
      "source": null,
      "text": "        .asciz  \"SetValue\"              # string offset=10055"
    },
    {
      "labels": [],
      "source": null,
      "text": ".Linfo_string584:"
    },
    {
      "labels": [],
      "source": null,
      "text": "        .asciz  \"C\"                     # string offset=10064"
    },
    {
      "labels": [],
      "source": null,
      "text": "        .section        .debug_loc,\"\",@progbits"
    },
    {
      "labels": [],
      "source": null,
      "text": ".Ldebug_loc0:"
    },
    {
      "labels": [
        {
          "name": ".Lfunc_begin0",
          "range": {
            "endCol": 30,
            "startCol": 17
          }
        },
        {
          "name": ".Lfunc_begin0",
          "range": {
            "endCol": 44,
            "startCol": 31
          }
        }
      ],
      "source": null,
      "text": "        .quad   .Lfunc_begin0-.Lfunc_begin0"
    },
    {
      "labels": [
        {
          "name": ".Ltmp1",
          "range": {
            "endCol": 23,
            "startCol": 17
          }
        },
        {
          "name": ".Lfunc_begin0",
          "range": {
            "endCol": 37,
            "startCol": 24
          }
        }
      ],
      "source": null,
      "text": "        .quad   .Ltmp1-.Lfunc_begin0"
    },
    {
      "labels": [],
      "source": null,
      "text": "        .short  1                       # Loc expr size"
    },
    {
      "labels": [],
      "source": null,
      "text": "        .byte   85                      # DW_OP_reg5"
    },
    {
      "labels": [
        {
          "name": ".Ltmp1",
          "range": {
            "endCol": 23,
            "startCol": 17
          }
        },
        {
          "name": ".Lfunc_begin0",
          "range": {
            "endCol": 37,
            "startCol": 24
          }
        }
      ],
      "source": null,
      "text": "        .quad   .Ltmp1-.Lfunc_begin0"
    },
    {
      "labels": [
        {
          "name": ".Ltmp10",
          "range": {
            "endCol": 24,
            "startCol": 17
          }
        },
        {
          "name": ".Lfunc_begin0",
          "range": {
            "endCol": 38,
            "startCol": 25
          }
        }
      ],
      "source": null,
      "text": "        .quad   .Ltmp10-.Lfunc_begin0"
    },
    {
      "labels": [],
      "source": null,
      "text": "        .short  1                       # Loc expr size"
    },
    {
      "labels": [],
      "source": null,
      "text": "        .byte   83                      # DW_OP_reg3"
    },
    {
      "labels": [
        {
          "name": ".Ltmp11",
          "range": {
            "endCol": 24,
            "startCol": 17
          }
        },
        {
          "name": ".Lfunc_begin0",
          "range": {
            "endCol": 38,
            "startCol": 25
          }
        }
      ],
      "source": null,
      "text": "        .quad   .Ltmp11-.Lfunc_begin0"
    },
    {
      "labels": [
        {
          "name": ".Ltmp15",
          "range": {
            "endCol": 24,
            "startCol": 17
          }
        },
        {
          "name": ".Lfunc_begin0",
          "range": {
            "endCol": 38,
            "startCol": 25
          }
        }
      ],
      "source": null,
      "text": "        .quad   .Ltmp15-.Lfunc_begin0"
    },
    {
      "labels": [],
      "source": null,
      "text": "        .short  1                       # Loc expr size"
    },
    {
      "labels": [],
      "source": null,
      "text": "        .byte   83                      # DW_OP_reg3"
    },
    {
      "labels": [
        {
          "name": ".Ltmp16",
          "range": {
            "endCol": 24,
            "startCol": 17
          }
        },
        {
          "name": ".Lfunc_begin0",
          "range": {
            "endCol": 38,
            "startCol": 25
          }
        }
      ],
      "source": null,
      "text": "        .quad   .Ltmp16-.Lfunc_begin0"
    },
    {
      "labels": [
        {
          "name": ".Ltmp18",
          "range": {
            "endCol": 24,
            "startCol": 17
          }
        },
        {
          "name": ".Lfunc_begin0",
          "range": {
            "endCol": 38,
            "startCol": 25
          }
        }
      ],
      "source": null,
      "text": "        .quad   .Ltmp18-.Lfunc_begin0"
    },
    {
      "labels": [],
      "source": null,
      "text": "        .short  1                       # Loc expr size"
    },
    {
      "labels": [],
      "source": null,
      "text": "        .byte   83                      # DW_OP_reg3"
    },
    {
      "labels": [],
      "source": null,
      "text": "        .quad   0"
    },
    {
      "labels": [],
      "source": null,
      "text": "        .quad   0"
    },
    {
      "labels": [],
      "source": null,
      "text": ".Ldebug_loc1:"
    },
    {
      "labels": [
        {
          "name": ".Ltmp0",
          "range": {
            "endCol": 23,
            "startCol": 17
          }
        },
        {
          "name": ".Lfunc_begin0",
          "range": {
            "endCol": 37,
            "startCol": 24
          }
        }
      ],
      "source": null,
      "text": "        .quad   .Ltmp0-.Lfunc_begin0"
    },
    {
      "labels": [
        {
          "name": ".Ltmp1",
          "range": {
            "endCol": 23,
            "startCol": 17
          }
        },
        {
          "name": ".Lfunc_begin0",
          "range": {
            "endCol": 37,
            "startCol": 24
          }
        }
      ],
      "source": null,
      "text": "        .quad   .Ltmp1-.Lfunc_begin0"
    },
    {
      "labels": [],
      "source": null,
      "text": "        .short  1                       # Loc expr size"
    },
    {
      "labels": [],
      "source": null,
      "text": "        .byte   85                      # DW_OP_reg5"
    },
    {
      "labels": [
        {
          "name": ".Ltmp1",
          "range": {
            "endCol": 23,
            "startCol": 17
          }
        },
        {
          "name": ".Lfunc_begin0",
          "range": {
            "endCol": 37,
            "startCol": 24
          }
        }
      ],
      "source": null,
      "text": "        .quad   .Ltmp1-.Lfunc_begin0"
    },
    {
      "labels": [
        {
          "name": ".Ltmp4",
          "range": {
            "endCol": 23,
            "startCol": 17
          }
        },
        {
          "name": ".Lfunc_begin0",
          "range": {
            "endCol": 37,
            "startCol": 24
          }
        }
      ],
      "source": null,
      "text": "        .quad   .Ltmp4-.Lfunc_begin0"
    },
    {
      "labels": [],
      "source": null,
      "text": "        .short  1                       # Loc expr size"
    },
    {
      "labels": [],
      "source": null,
      "text": "        .byte   83                      # DW_OP_reg3"
    },
    {
      "labels": [],
      "source": null,
      "text": "        .quad   0"
    },
    {
      "labels": [],
      "source": null,
      "text": "        .quad   0"
    },
    {
      "labels": [],
      "source": null,
      "text": ".Ldebug_loc2:"
    },
    {
      "labels": [
        {
          "name": ".Ltmp0",
          "range": {
            "endCol": 23,
            "startCol": 17
          }
        },
        {
          "name": ".Lfunc_begin0",
          "range": {
            "endCol": 37,
            "startCol": 24
          }
        }
      ],
      "source": null,
      "text": "        .quad   .Ltmp0-.Lfunc_begin0"
    },
    {
      "labels": [
        {
          "name": ".Ltmp1",
          "range": {
            "endCol": 23,
            "startCol": 17
          }
        },
        {
          "name": ".Lfunc_begin0",
          "range": {
            "endCol": 37,
            "startCol": 24
          }
        }
      ],
      "source": null,
      "text": "        .quad   .Ltmp1-.Lfunc_begin0"
    },
    {
      "labels": [],
      "source": null,
      "text": "        .short  1                       # Loc expr size"
    },
    {
      "labels": [],
      "source": null,
      "text": "        .byte   85                      # DW_OP_reg5"
    },
    {
      "labels": [
        {
          "name": ".Ltmp1",
          "range": {
            "endCol": 23,
            "startCol": 17
          }
        },
        {
          "name": ".Lfunc_begin0",
          "range": {
            "endCol": 37,
            "startCol": 24
          }
        }
      ],
      "source": null,
      "text": "        .quad   .Ltmp1-.Lfunc_begin0"
    },
    {
      "labels": [
        {
          "name": ".Ltmp4",
          "range": {
            "endCol": 23,
            "startCol": 17
          }
        },
        {
          "name": ".Lfunc_begin0",
          "range": {
            "endCol": 37,
            "startCol": 24
          }
        }
      ],
      "source": null,
      "text": "        .quad   .Ltmp4-.Lfunc_begin0"
    },
    {
      "labels": [],
      "source": null,
      "text": "        .short  1                       # Loc expr size"
    },
    {
      "labels": [],
      "source": null,
      "text": "        .byte   83                      # DW_OP_reg3"
    },
    {
      "labels": [],
      "source": null,
      "text": "        .quad   0"
    },
    {
      "labels": [],
      "source": null,
      "text": "        .quad   0"
    },
    {
      "labels": [],
      "source": null,
      "text": ".Ldebug_loc3:"
    },
    {
      "labels": [
        {
          "name": ".Ltmp0",
          "range": {
            "endCol": 23,
            "startCol": 17
          }
        },
        {
          "name": ".Lfunc_begin0",
          "range": {
            "endCol": 37,
            "startCol": 24
          }
        }
      ],
      "source": null,
      "text": "        .quad   .Ltmp0-.Lfunc_begin0"
    },
    {
      "labels": [
        {
          "name": ".Ltmp1",
          "range": {
            "endCol": 23,
            "startCol": 17
          }
        },
        {
          "name": ".Lfunc_begin0",
          "range": {
            "endCol": 37,
            "startCol": 24
          }
        }
      ],
      "source": null,
      "text": "        .quad   .Ltmp1-.Lfunc_begin0"
    },
    {
      "labels": [],
      "source": null,
      "text": "        .short  1                       # Loc expr size"
    },
    {
      "labels": [],
      "source": null,
      "text": "        .byte   85                      # DW_OP_reg5"
    },
    {
      "labels": [
        {
          "name": ".Ltmp1",
          "range": {
            "endCol": 23,
            "startCol": 17
          }
        },
        {
          "name": ".Lfunc_begin0",
          "range": {
            "endCol": 37,
            "startCol": 24
          }
        }
      ],
      "source": null,
      "text": "        .quad   .Ltmp1-.Lfunc_begin0"
    },
    {
      "labels": [
        {
          "name": ".Ltmp4",
          "range": {
            "endCol": 23,
            "startCol": 17
          }
        },
        {
          "name": ".Lfunc_begin0",
          "range": {
            "endCol": 37,
            "startCol": 24
          }
        }
      ],
      "source": null,
      "text": "        .quad   .Ltmp4-.Lfunc_begin0"
    },
    {
      "labels": [],
      "source": null,
      "text": "        .short  1                       # Loc expr size"
    },
    {
      "labels": [],
      "source": null,
      "text": "        .byte   83                      # DW_OP_reg3"
    },
    {
      "labels": [
        {
          "name": ".Ltmp11",
          "range": {
            "endCol": 24,
            "startCol": 17
          }
        },
        {
          "name": ".Lfunc_begin0",
          "range": {
            "endCol": 38,
            "startCol": 25
          }
        }
      ],
      "source": null,
      "text": "        .quad   .Ltmp11-.Lfunc_begin0"
    },
    {
      "labels": [
        {
          "name": ".Ltmp14",
          "range": {
            "endCol": 24,
            "startCol": 17
          }
        },
        {
          "name": ".Lfunc_begin0",
          "range": {
            "endCol": 38,
            "startCol": 25
          }
        }
      ],
      "source": null,
      "text": "        .quad   .Ltmp14-.Lfunc_begin0"
    },
    {
      "labels": [],
      "source": null,
      "text": "        .short  1                       # Loc expr size"
    },
    {
      "labels": [],
      "source": null,
      "text": "        .byte   83                      # DW_OP_reg3"
    },
    {
      "labels": [],
      "source": null,
      "text": "        .quad   0"
    },
    {
      "labels": [],
      "source": null,
      "text": "        .quad   0"
    },
    {
      "labels": [],
      "source": null,
      "text": ".Ldebug_loc4:"
    },
    {
      "labels": [
        {
          "name": ".Ltmp0",
          "range": {
            "endCol": 23,
            "startCol": 17
          }
        },
        {
          "name": ".Lfunc_begin0",
          "range": {
            "endCol": 37,
            "startCol": 24
          }
        }
      ],
      "source": null,
      "text": "        .quad   .Ltmp0-.Lfunc_begin0"
    },
    {
      "labels": [
        {
          "name": ".Ltmp1",
          "range": {
            "endCol": 23,
            "startCol": 17
          }
        },
        {
          "name": ".Lfunc_begin0",
          "range": {
            "endCol": 37,
            "startCol": 24
          }
        }
      ],
      "source": null,
      "text": "        .quad   .Ltmp1-.Lfunc_begin0"
    },
    {
      "labels": [],
      "source": null,
      "text": "        .short  1                       # Loc expr size"
    },
    {
      "labels": [],
      "source": null,
      "text": "        .byte   85                      # DW_OP_reg5"
    },
    {
      "labels": [
        {
          "name": ".Ltmp1",
          "range": {
            "endCol": 23,
            "startCol": 17
          }
        },
        {
          "name": ".Lfunc_begin0",
          "range": {
            "endCol": 37,
            "startCol": 24
          }
        }
      ],
      "source": null,
      "text": "        .quad   .Ltmp1-.Lfunc_begin0"
    },
    {
      "labels": [
        {
          "name": ".Ltmp4",
          "range": {
            "endCol": 23,
            "startCol": 17
          }
        },
        {
          "name": ".Lfunc_begin0",
          "range": {
            "endCol": 37,
            "startCol": 24
          }
        }
      ],
      "source": null,
      "text": "        .quad   .Ltmp4-.Lfunc_begin0"
    },
    {
      "labels": [],
      "source": null,
      "text": "        .short  1                       # Loc expr size"
    },
    {
      "labels": [],
      "source": null,
      "text": "        .byte   83                      # DW_OP_reg3"
    },
    {
      "labels": [
        {
          "name": ".Ltmp11",
          "range": {
            "endCol": 24,
            "startCol": 17
          }
        },
        {
          "name": ".Lfunc_begin0",
          "range": {
            "endCol": 38,
            "startCol": 25
          }
        }
      ],
      "source": null,
      "text": "        .quad   .Ltmp11-.Lfunc_begin0"
    },
    {
      "labels": [
        {
          "name": ".Ltmp14",
          "range": {
            "endCol": 24,
            "startCol": 17
          }
        },
        {
          "name": ".Lfunc_begin0",
          "range": {
            "endCol": 38,
            "startCol": 25
          }
        }
      ],
      "source": null,
      "text": "        .quad   .Ltmp14-.Lfunc_begin0"
    },
    {
      "labels": [],
      "source": null,
      "text": "        .short  1                       # Loc expr size"
    },
    {
      "labels": [],
      "source": null,
      "text": "        .byte   83                      # DW_OP_reg3"
    },
    {
      "labels": [],
      "source": null,
      "text": "        .quad   0"
    },
    {
      "labels": [],
      "source": null,
      "text": "        .quad   0"
    },
    {
      "labels": [],
      "source": null,
      "text": ".Ldebug_loc5:"
    },
    {
      "labels": [
        {
          "name": ".Ltmp1",
          "range": {
            "endCol": 23,
            "startCol": 17
          }
        },
        {
          "name": ".Lfunc_begin0",
          "range": {
            "endCol": 37,
            "startCol": 24
          }
        }
      ],
      "source": null,
      "text": "        .quad   .Ltmp1-.Lfunc_begin0"
    },
    {
      "labels": [
        {
          "name": ".Ltmp4",
          "range": {
            "endCol": 23,
            "startCol": 17
          }
        },
        {
          "name": ".Lfunc_begin0",
          "range": {
            "endCol": 37,
            "startCol": 24
          }
        }
      ],
      "source": null,
      "text": "        .quad   .Ltmp4-.Lfunc_begin0"
    },
    {
      "labels": [],
      "source": null,
      "text": "        .short  2                       # Loc expr size"
    },
    {
      "labels": [],
      "source": null,
      "text": "        .byte   119                     # DW_OP_breg7"
    },
    {
      "labels": [],
      "source": null,
      "text": "        .byte   16                      # 16"
    },
    {
      "labels": [],
      "source": null,
      "text": "        .quad   0"
    },
    {
      "labels": [],
      "source": null,
      "text": "        .quad   0"
    },
    {
      "labels": [],
      "source": null,
      "text": "        .section        .debug_abbrev,\"\",@progbits"
    },
    {
      "labels": [],
      "source": null,
      "text": "        .byte   1                       # Abbreviation Code"
    },
    {
      "labels": [],
      "source": null,
      "text": "        .byte   17                      # DW_TAG_compile_unit"
    },
    {
      "labels": [],
      "source": null,
      "text": "        .byte   1                       # DW_CHILDREN_yes"
    },
    {
      "labels": [],
      "source": null,
      "text": "        .byte   37                      # DW_AT_producer"
    },
    {
      "labels": [],
      "source": null,
      "text": "        .byte   14                      # DW_FORM_strp"
    },
    {
      "labels": [],
      "source": null,
      "text": "        .byte   19                      # DW_AT_language"
    },
    {
      "labels": [],
      "source": null,
      "text": "        .byte   5                       # DW_FORM_data2"
    },
    {
      "labels": [],
      "source": null,
      "text": "        .byte   3                       # DW_AT_name"
    },
    {
      "labels": [],
      "source": null,
      "text": "        .byte   14                      # DW_FORM_strp"
    },
    {
      "labels": [],
      "source": null,
      "text": "        .byte   16                      # DW_AT_stmt_list"
    },
    {
      "labels": [],
      "source": null,
      "text": "        .byte   23                      # DW_FORM_sec_offset"
    },
    {
      "labels": [],
      "source": null,
      "text": "        .byte   27                      # DW_AT_comp_dir"
    },
    {
      "labels": [],
      "source": null,
      "text": "        .byte   14                      # DW_FORM_strp"
    },
    {
      "labels": [],
      "source": null,
      "text": "        .byte   17                      # DW_AT_low_pc"
    },
    {
      "labels": [],
      "source": null,
      "text": "        .byte   1                       # DW_FORM_addr"
    },
    {
      "labels": [],
      "source": null,
      "text": "        .byte   18                      # DW_AT_high_pc"
    },
    {
      "labels": [],
      "source": null,
      "text": "        .byte   6                       # DW_FORM_data4"
    },
    {
      "labels": [],
      "source": null,
      "text": "        .byte   0                       # EOM(1)"
    },
    {
      "labels": [],
      "source": null,
      "text": "        .byte   0                       # EOM(2)"
    },
    {
      "labels": [],
      "source": null,
      "text": "        .byte   2                       # Abbreviation Code"
    },
    {
      "labels": [],
      "source": null,
      "text": "        .byte   57                      # DW_TAG_namespace"
    },
    {
      "labels": [],
      "source": null,
      "text": "        .byte   1                       # DW_CHILDREN_yes"
    },
    {
      "labels": [],
      "source": null,
      "text": "        .byte   3                       # DW_AT_name"
    },
    {
      "labels": [],
      "source": null,
      "text": "        .byte   14                      # DW_FORM_strp"
    },
    {
      "labels": [],
      "source": null,
      "text": "        .byte   0                       # EOM(1)"
    },
    {
      "labels": [],
      "source": null,
      "text": "        .byte   0                       # EOM(2)"
    },
    {
      "labels": [],
      "source": null,
      "text": "        .byte   3                       # Abbreviation Code"
    },
    {
      "labels": [],
      "source": null,
      "text": "        .byte   52                      # DW_TAG_variable"
    },
    {
      "labels": [],
      "source": null,
      "text": "        .byte   0                       # DW_CHILDREN_no"
    },
    {
      "labels": [],
      "source": null,
      "text": "        .byte   71                      # DW_AT_specification"
    },
    {
      "labels": [],
      "source": null,
      "text": "        .byte   19                      # DW_FORM_ref4"
    },
    {
      "labels": [],
      "source": null,
      "text": "        .byte   110                     # DW_AT_linkage_name"
    },
    {
      "labels": [],
      "source": null,
      "text": "        .byte   14                      # DW_FORM_strp"
    },
    {
      "labels": [],
      "source": null,
      "text": "        .byte   0                       # EOM(1)"
    },
    {
      "labels": [],
      "source": null,
      "text": "        .byte   0                       # EOM(2)"
    },
    {
      "labels": [],
      "source": null,
      "text": "        .byte   4                       # Abbreviation Code"
    },
    {
      "labels": [],
      "source": null,
      "text": "        .byte   19                      # DW_TAG_structure_type"
    },
    {
      "labels": [],
      "source": null,
      "text": "        .byte   1                       # DW_CHILDREN_yes"
    },
    {
      "labels": [],
      "source": null,
      "text": "        .byte   54                      # DW_AT_calling_convention"
    },
    {
      "labels": [],
      "source": null,
      "text": "        .byte   11                      # DW_FORM_data1"
    },
    {
      "labels": [],
      "source": null,
      "text": "        .byte   3                       # DW_AT_name"
    },
    {
      "labels": [],
      "source": null,
      "text": "        .byte   14                      # DW_FORM_strp"
    },
    {
      "labels": [],
      "source": null,
      "text": "        .byte   11                      # DW_AT_byte_size"
    },
    {
      "labels": [],
      "source": null,
      "text": "        .byte   11                      # DW_FORM_data1"
    },
    {
      "labels": [],
      "source": null,
      "text": "        .byte   58                      # DW_AT_decl_file"
    },
    {
      "labels": [],
      "source": null,
      "text": "        .byte   11                      # DW_FORM_data1"
    },
    {
      "labels": [],
      "source": null,
      "text": "        .byte   59                      # DW_AT_decl_line"
    },
    {
      "labels": [],
      "source": null,
      "text": "        .byte   11                      # DW_FORM_data1"
    },
    {
      "labels": [],
      "source": null,
      "text": "        .byte   0                       # EOM(1)"
    },
    {
      "labels": [],
      "source": null,
      "text": "        .byte   0                       # EOM(2)"
    },
    {
      "labels": [],
      "source": null,
      "text": "        .byte   5                       # Abbreviation Code"
    },
    {
      "labels": [],
      "source": null,
      "text": "        .byte   13                      # DW_TAG_member"
    },
    {
      "labels": [],
      "source": null,
      "text": "        .byte   0                       # DW_CHILDREN_no"
    },
    {
      "labels": [],
      "source": null,
      "text": "        .byte   3                       # DW_AT_name"
    },
    {
      "labels": [],
      "source": null,
      "text": "        .byte   14                      # DW_FORM_strp"
    },
    {
      "labels": [],
      "source": null,
      "text": "        .byte   73                      # DW_AT_type"
    },
    {
      "labels": [],
      "source": null,
      "text": "        .byte   19                      # DW_FORM_ref4"
    },
    {
      "labels": [],
      "source": null,
      "text": "        .byte   58                      # DW_AT_decl_file"
    },
    {
      "labels": [],
      "source": null,
      "text": "        .byte   11                      # DW_FORM_data1"
    },
    {
      "labels": [],
      "source": null,
      "text": "        .byte   59                      # DW_AT_decl_line"
    },
    {
      "labels": [],
      "source": null,
      "text": "        .byte   11                      # DW_FORM_data1"
    },
    {
      "labels": [],
      "source": null,
      "text": "        .byte   63                      # DW_AT_external"
    },
    {
      "labels": [],
      "source": null,
      "text": "        .byte   25                      # DW_FORM_flag_present"
    },
    {
      "labels": [],
      "source": null,
      "text": "        .byte   60                      # DW_AT_declaration"
    },
    {
      "labels": [],
      "source": null,
      "text": "        .byte   25                      # DW_FORM_flag_present"
    },
    {
      "labels": [],
      "source": null,
      "text": "        .byte   0                       # EOM(1)"
    },
    {
      "labels": [],
      "source": null,
      "text": "        .byte   0                       # EOM(2)"
    },
    {
      "labels": [],
      "source": null,
      "text": "        .byte   6                       # Abbreviation Code"
    },
    {
      "labels": [],
      "source": null,
      "text": "        .byte   47                      # DW_TAG_template_type_parameter"
    },
    {
      "labels": [],
      "source": null,
      "text": "        .byte   0                       # DW_CHILDREN_no"
    },
    {
      "labels": [],
      "source": null,
      "text": "        .byte   0                       # EOM(1)"
    },
    {
      "labels": [],
      "source": null,
      "text": "        .byte   0                       # EOM(2)"
    },
    {
      "labels": [],
      "source": null,
      "text": "        .byte   7                       # Abbreviation Code"
    },
    {
      "labels": [],
      "source": null,
      "text": "        .byte   22                      # DW_TAG_typedef"
    },
    {
      "labels": [],
      "source": null,
      "text": "        .byte   0                       # DW_CHILDREN_no"
    },
    {
      "labels": [],
      "source": null,
      "text": "        .byte   73                      # DW_AT_type"
    },
    {
      "labels": [],
      "source": null,
      "text": "        .byte   19                      # DW_FORM_ref4"
    },
    {
      "labels": [],
      "source": null,
      "text": "        .byte   3                       # DW_AT_name"
    },
    {
      "labels": [],
      "source": null,
      "text": "        .byte   14                      # DW_FORM_strp"
    },
    {
      "labels": [],
      "source": null,
      "text": "        .byte   58                      # DW_AT_decl_file"
    },
    {
      "labels": [],
      "source": null,
      "text": "        .byte   11                      # DW_FORM_data1"
    },
    {
      "labels": [],
      "source": null,
      "text": "        .byte   59                      # DW_AT_decl_line"
    },
    {
      "labels": [],
      "source": null,
      "text": "        .byte   11                      # DW_FORM_data1"
    },
    {
      "labels": [],
      "source": null,
      "text": "        .byte   0                       # EOM(1)"
    },
    {
      "labels": [],
      "source": null,
      "text": "        .byte   0                       # EOM(2)"
    },
    {
      "labels": [],
      "source": null,
      "text": "        .byte   8                       # Abbreviation Code"
    },
    {
      "labels": [],
      "source": null,
      "text": "        .byte   47                      # DW_TAG_template_type_parameter"
    },
    {
      "labels": [],
      "source": null,
      "text": "        .byte   0                       # DW_CHILDREN_no"
    },
    {
      "labels": [],
      "source": null,
      "text": "        .byte   73                      # DW_AT_type"
    },
    {
      "labels": [],
      "source": null,
      "text": "        .byte   19                      # DW_FORM_ref4"
    },
    {
      "labels": [],
      "source": null,
      "text": "        .byte   3                       # DW_AT_name"
    },
    {
      "labels": [],
      "source": null,
      "text": "        .byte   14                      # DW_FORM_strp"
    },
    {
      "labels": [],
      "source": null,
      "text": "        .byte   0                       # EOM(1)"
    },
    {
      "labels": [],
      "source": null,
      "text": "        .byte   0                       # EOM(2)"
    },
    {
      "labels": [],
      "source": null,
      "text": "        .byte   9                       # Abbreviation Code"
    },
    {
      "labels": [],
      "source": null,
      "text": "        .byte   46                      # DW_TAG_subprogram"
    },
    {
      "labels": [],
      "source": null,
      "text": "        .byte   1                       # DW_CHILDREN_yes"
    },
    {
      "labels": [],
      "source": null,
      "text": "        .byte   3                       # DW_AT_name"
    },
    {
      "labels": [],
      "source": null,
      "text": "        .byte   14                      # DW_FORM_strp"
    },
    {
      "labels": [],
      "source": null,
      "text": "        .byte   58                      # DW_AT_decl_file"
    },
    {
      "labels": [],
      "source": null,
      "text": "        .byte   11                      # DW_FORM_data1"
    },
    {
      "labels": [],
      "source": null,
      "text": "        .byte   59                      # DW_AT_decl_line"
    },
    {
      "labels": [],
      "source": null,
      "text": "        .byte   11                      # DW_FORM_data1"
    },
    {
      "labels": [],
      "source": null,
      "text": "        .byte   60                      # DW_AT_declaration"
    },
    {
      "labels": [],
      "source": null,
      "text": "        .byte   25                      # DW_FORM_flag_present"
    },
    {
      "labels": [],
      "source": null,
      "text": "        .byte   63                      # DW_AT_external"
    },
    {
      "labels": [],
      "source": null,
      "text": "        .byte   25                      # DW_FORM_flag_present"
    },
    {
      "labels": [],
      "source": null,
      "text": "        .byte   99                      # DW_AT_explicit"
    },
    {
      "labels": [],
      "source": null,
      "text": "        .byte   25                      # DW_FORM_flag_present"
    },
    {
      "labels": [],
      "source": null,
      "text": "        .byte   0                       # EOM(1)"
    },
    {
      "labels": [],
      "source": null,
      "text": "        .byte   0                       # EOM(2)"
    },
    {
      "labels": [],
      "source": null,
      "text": "        .byte   10                      # Abbreviation Code"
    },
    {
      "labels": [],
      "source": null,
      "text": "        .byte   5                       # DW_TAG_formal_parameter"
    },
    {
      "labels": [],
      "source": null,
      "text": "        .byte   0                       # DW_CHILDREN_no"
    },
    {
      "labels": [],
      "source": null,
      "text": "        .byte   73                      # DW_AT_type"
    },
    {
      "labels": [],
      "source": null,
      "text": "        .byte   19                      # DW_FORM_ref4"
    },
    {
      "labels": [],
      "source": null,
      "text": "        .byte   52                      # DW_AT_artificial"
    },
    {
      "labels": [],
      "source": null,
      "text": "        .byte   25                      # DW_FORM_flag_present"
    },
    {
      "labels": [],
      "source": null,
      "text": "        .byte   0                       # EOM(1)"
    },
    {
      "labels": [],
      "source": null,
      "text": "        .byte   0                       # EOM(2)"
    },
    {
      "labels": [],
      "source": null,
      "text": "        .byte   11                      # Abbreviation Code"
    },
    {
      "labels": [],
      "source": null,
      "text": "        .byte   5                       # DW_TAG_formal_parameter"
    },
    {
      "labels": [],
      "source": null,
      "text": "        .byte   0                       # DW_CHILDREN_no"
    },
    {
      "labels": [],
      "source": null,
      "text": "        .byte   73                      # DW_AT_type"
    },
    {
      "labels": [],
      "source": null,
      "text": "        .byte   19                      # DW_FORM_ref4"
    },
    {
      "labels": [],
      "source": null,
      "text": "        .byte   0                       # EOM(1)"
    },
    {
      "labels": [],
      "source": null,
      "text": "        .byte   0                       # EOM(2)"
    },
    {
      "labels": [],
      "source": null,
      "text": "        .byte   12                      # Abbreviation Code"
    },
    {
      "labels": [],
      "source": null,
      "text": "        .byte   4                       # DW_TAG_enumeration_type"
    },
    {
      "labels": [],
      "source": null,
      "text": "        .byte   1                       # DW_CHILDREN_yes"
    },
    {
      "labels": [],
      "source": null,
      "text": "        .byte   73                      # DW_AT_type"
    },
    {
      "labels": [],
      "source": null,
      "text": "        .byte   19                      # DW_FORM_ref4"
    },
    {
      "labels": [],
      "source": null,
      "text": "        .byte   109                     # DW_AT_enum_class"
    },
    {
      "labels": [],
      "source": null,
      "text": "        .byte   25                      # DW_FORM_flag_present"
    },
    {
      "labels": [],
      "source": null,
      "text": "        .byte   3                       # DW_AT_name"
    },
    {
      "labels": [],
      "source": null,
      "text": "        .byte   14                      # DW_FORM_strp"
    },
    {
      "labels": [],
      "source": null,
      "text": "        .byte   11                      # DW_AT_byte_size"
    },
    {
      "labels": [],
      "source": null,
      "text": "        .byte   11                      # DW_FORM_data1"
    },
    {
      "labels": [],
      "source": null,
      "text": "        .byte   58                      # DW_AT_decl_file"
    },
    {
      "labels": [],
      "source": null,
      "text": "        .byte   11                      # DW_FORM_data1"
    },
    {
      "labels": [],
      "source": null,
      "text": "        .byte   59                      # DW_AT_decl_line"
    },
    {
      "labels": [],
      "source": null,
      "text": "        .byte   11                      # DW_FORM_data1"
    },
    {
      "labels": [],
      "source": null,
      "text": "        .byte   0                       # EOM(1)"
    },
    {
      "labels": [],
      "source": null,
      "text": "        .byte   0                       # EOM(2)"
    },
    {
      "labels": [],
      "source": null,
      "text": "        .byte   13                      # Abbreviation Code"
    },
    {
      "labels": [],
      "source": null,
      "text": "        .byte   40                      # DW_TAG_enumerator"
    },
    {
      "labels": [],
      "source": null,
      "text": "        .byte   0                       # DW_CHILDREN_no"
    },
    {
      "labels": [],
      "source": null,
      "text": "        .byte   3                       # DW_AT_name"
    },
    {
      "labels": [],
      "source": null,
      "text": "        .byte   14                      # DW_FORM_strp"
    },
    {
      "labels": [],
      "source": null,
      "text": "        .byte   28                      # DW_AT_const_value"
    },
    {
      "labels": [],
      "source": null,
      "text": "        .byte   13                      # DW_FORM_sdata"
    },
    {
      "labels": [],
      "source": null,
      "text": "        .byte   0                       # EOM(1)"
    },
    {
      "labels": [],
      "source": null,
      "text": "        .byte   0                       # EOM(2)"
    },
    {
      "labels": [],
      "source": null,
      "text": "        .byte   14                      # Abbreviation Code"
    },
    {
      "labels": [],
      "source": null,
      "text": "        .byte   2                       # DW_TAG_class_type"
    },
    {
      "labels": [],
      "source": null,
      "text": "        .byte   1                       # DW_CHILDREN_yes"
    },
    {
      "labels": [],
      "source": null,
      "text": "        .byte   54                      # DW_AT_calling_convention"
    },
    {
      "labels": [],
      "source": null,
      "text": "        .byte   11                      # DW_FORM_data1"
    },
    {
      "labels": [],
      "source": null,
      "text": "        .byte   3                       # DW_AT_name"
    },
    {
      "labels": [],
      "source": null,
      "text": "        .byte   14                      # DW_FORM_strp"
    },
    {
      "labels": [],
      "source": null,
      "text": "        .byte   11                      # DW_AT_byte_size"
    },
    {
      "labels": [],
      "source": null,
      "text": "        .byte   11                      # DW_FORM_data1"
    },
    {
      "labels": [],
      "source": null,
      "text": "        .byte   58                      # DW_AT_decl_file"
    },
    {
      "labels": [],
      "source": null,
      "text": "        .byte   11                      # DW_FORM_data1"
    },
    {
      "labels": [],
      "source": null,
      "text": "        .byte   59                      # DW_AT_decl_line"
    },
    {
      "labels": [],
      "source": null,
      "text": "        .byte   11                      # DW_FORM_data1"
    },
    {
      "labels": [],
      "source": null,
      "text": "        .byte   0                       # EOM(1)"
    },
    {
      "labels": [],
      "source": null,
      "text": "        .byte   0                       # EOM(2)"
    },
    {
      "labels": [],
      "source": null,
      "text": "        .byte   15                      # Abbreviation Code"
    },
    {
      "labels": [],
      "source": null,
      "text": "        .byte   28                      # DW_TAG_inheritance"
    },
    {
      "labels": [],
      "source": null,
      "text": "        .byte   0                       # DW_CHILDREN_no"
    },
    {
      "labels": [],
      "source": null,
      "text": "        .byte   73                      # DW_AT_type"
    },
    {
      "labels": [],
      "source": null,
      "text": "        .byte   19                      # DW_FORM_ref4"
    },
    {
      "labels": [],
      "source": null,
      "text": "        .byte   56                      # DW_AT_data_member_location"
    },
    {
      "labels": [],
      "source": null,
      "text": "        .byte   11                      # DW_FORM_data1"
    },
    {
      "labels": [],
      "source": null,
      "text": "        .byte   50                      # DW_AT_accessibility"
    },
    {
      "labels": [],
      "source": null,
      "text": "        .byte   11                      # DW_FORM_data1"
    },
    {
      "labels": [],
      "source": null,
      "text": "        .byte   0                       # EOM(1)"
    },
    {
      "labels": [],
      "source": null,
      "text": "        .byte   0                       # EOM(2)"
    },
    {
      "labels": [],
      "source": null,
      "text": "        .byte   16                      # Abbreviation Code"
    },
    {
      "labels": [],
      "source": null,
      "text": "        .byte   48                      # DW_TAG_template_value_parameter"
    },
    {
      "labels": [],
      "source": null,
      "text": "        .byte   0                       # DW_CHILDREN_no"
    },
    {
      "labels": [],
      "source": null,
      "text": "        .byte   73                      # DW_AT_type"
    },
    {
      "labels": [],
      "source": null,
      "text": "        .byte   19                      # DW_FORM_ref4"
    },
    {
      "labels": [],
      "source": null,
      "text": "        .byte   3                       # DW_AT_name"
    },
    {
      "labels": [],
      "source": null,
      "text": "        .byte   14                      # DW_FORM_strp"
    },
    {
      "labels": [],
      "source": null,
      "text": "        .byte   28                      # DW_AT_const_value"
    },
    {
      "labels": [],
      "source": null,
      "text": "        .byte   15                      # DW_FORM_udata"
    },
    {
      "labels": [],
      "source": null,
      "text": "        .byte   0                       # EOM(1)"
    },
    {
      "labels": [],
      "source": null,
      "text": "        .byte   0                       # EOM(2)"
    },
    {
      "labels": [],
      "source": null,
      "text": "        .byte   17                      # Abbreviation Code"
    },
    {
      "labels": [],
      "source": null,
      "text": "        .byte   13                      # DW_TAG_member"
    },
    {
      "labels": [],
      "source": null,
      "text": "        .byte   0                       # DW_CHILDREN_no"
    },
    {
      "labels": [],
      "source": null,
      "text": "        .byte   3                       # DW_AT_name"
    },
    {
      "labels": [],
      "source": null,
      "text": "        .byte   14                      # DW_FORM_strp"
    },
    {
      "labels": [],
      "source": null,
      "text": "        .byte   73                      # DW_AT_type"
    },
    {
      "labels": [],
      "source": null,
      "text": "        .byte   19                      # DW_FORM_ref4"
    },
    {
      "labels": [],
      "source": null,
      "text": "        .byte   58                      # DW_AT_decl_file"
    },
    {
      "labels": [],
      "source": null,
      "text": "        .byte   11                      # DW_FORM_data1"
    },
    {
      "labels": [],
      "source": null,
      "text": "        .byte   59                      # DW_AT_decl_line"
    },
    {
      "labels": [],
      "source": null,
      "text": "        .byte   11                      # DW_FORM_data1"
    },
    {
      "labels": [],
      "source": null,
      "text": "        .byte   56                      # DW_AT_data_member_location"
    },
    {
      "labels": [],
      "source": null,
      "text": "        .byte   11                      # DW_FORM_data1"
    },
    {
      "labels": [],
      "source": null,
      "text": "        .byte   50                      # DW_AT_accessibility"
    },
    {
      "labels": [],
      "source": null,
      "text": "        .byte   11                      # DW_FORM_data1"
    },
    {
      "labels": [],
      "source": null,
      "text": "        .byte   0                       # EOM(1)"
    },
    {
      "labels": [],
      "source": null,
      "text": "        .byte   0                       # EOM(2)"
    },
    {
      "labels": [],
      "source": null,
      "text": "        .byte   18                      # Abbreviation Code"
    },
    {
      "labels": [],
      "source": null,
      "text": "        .byte   13                      # DW_TAG_member"
    },
    {
      "labels": [],
      "source": null,
      "text": "        .byte   0                       # DW_CHILDREN_no"
    },
    {
      "labels": [],
      "source": null,
      "text": "        .byte   73                      # DW_AT_type"
    },
    {
      "labels": [],
      "source": null,
      "text": "        .byte   19                      # DW_FORM_ref4"
    },
    {
      "labels": [],
      "source": null,
      "text": "        .byte   58                      # DW_AT_decl_file"
    },
    {
      "labels": [],
      "source": null,
      "text": "        .byte   11                      # DW_FORM_data1"
    },
    {
      "labels": [],
      "source": null,
      "text": "        .byte   59                      # DW_AT_decl_line"
    },
    {
      "labels": [],
      "source": null,
      "text": "        .byte   11                      # DW_FORM_data1"
    },
    {
      "labels": [],
      "source": null,
      "text": "        .byte   56                      # DW_AT_data_member_location"
    },
    {
      "labels": [],
      "source": null,
      "text": "        .byte   11                      # DW_FORM_data1"
    },
    {
      "labels": [],
      "source": null,
      "text": "        .byte   50                      # DW_AT_accessibility"
    },
    {
      "labels": [],
      "source": null,
      "text": "        .byte   11                      # DW_FORM_data1"
    },
    {
      "labels": [],
      "source": null,
      "text": "        .byte   0                       # EOM(1)"
    },
    {
      "labels": [],
      "source": null,
      "text": "        .byte   0                       # EOM(2)"
    },
    {
      "labels": [],
      "source": null,
      "text": "        .byte   19                      # Abbreviation Code"
    },
    {
      "labels": [],
      "source": null,
      "text": "        .byte   23                      # DW_TAG_union_type"
    },
    {
      "labels": [],
      "source": null,
      "text": "        .byte   1                       # DW_CHILDREN_yes"
    },
    {
      "labels": [],
      "source": null,
      "text": "        .byte   54                      # DW_AT_calling_convention"
    },
    {
      "labels": [],
      "source": null,
      "text": "        .byte   11                      # DW_FORM_data1"
    },
    {
      "labels": [],
      "source": null,
      "text": "        .byte   11                      # DW_AT_byte_size"
    },
    {
      "labels": [],
      "source": null,
      "text": "        .byte   11                      # DW_FORM_data1"
    },
    {
      "labels": [],
      "source": null,
      "text": "        .byte   58                      # DW_AT_decl_file"
    },
    {
      "labels": [],
      "source": null,
      "text": "        .byte   11                      # DW_FORM_data1"
    },
    {
      "labels": [],
      "source": null,
      "text": "        .byte   59                      # DW_AT_decl_line"
    },
    {
      "labels": [],
      "source": null,
      "text": "        .byte   11                      # DW_FORM_data1"
    },
    {
      "labels": [],
      "source": null,
      "text": "        .byte   0                       # EOM(1)"
    },
    {
      "labels": [],
      "source": null,
      "text": "        .byte   0                       # EOM(2)"
    },
    {
      "labels": [],
      "source": null,
      "text": "        .byte   20                      # Abbreviation Code"
    },
    {
      "labels": [],
      "source": null,
      "text": "        .byte   13                      # DW_TAG_member"
    },
    {
      "labels": [],
      "source": null,
      "text": "        .byte   0                       # DW_CHILDREN_no"
    },
    {
      "labels": [],
      "source": null,
      "text": "        .byte   3                       # DW_AT_name"
    },
    {
      "labels": [],
      "source": null,
      "text": "        .byte   14                      # DW_FORM_strp"
    },
    {
      "labels": [],
      "source": null,
      "text": "        .byte   73                      # DW_AT_type"
    },
    {
      "labels": [],
      "source": null,
      "text": "        .byte   19                      # DW_FORM_ref4"
    },
    {
      "labels": [],
      "source": null,
      "text": "        .byte   58                      # DW_AT_decl_file"
    },
    {
      "labels": [],
      "source": null,
      "text": "        .byte   11                      # DW_FORM_data1"
    },
    {
      "labels": [],
      "source": null,
      "text": "        .byte   59                      # DW_AT_decl_line"
    },
    {
      "labels": [],
      "source": null,
      "text": "        .byte   11                      # DW_FORM_data1"
    },
    {
      "labels": [],
      "source": null,
      "text": "        .byte   56                      # DW_AT_data_member_location"
    },
    {
      "labels": [],
      "source": null,
      "text": "        .byte   11                      # DW_FORM_data1"
    },
    {
      "labels": [],
      "source": null,
      "text": "        .byte   0                       # EOM(1)"
    },
    {
      "labels": [],
      "source": null,
      "text": "        .byte   0                       # EOM(2)"
    },
    {
      "labels": [],
      "source": null,
      "text": "        .byte   21                      # Abbreviation Code"
    },
    {
      "labels": [],
      "source": null,
      "text": "        .byte   46                      # DW_TAG_subprogram"
    },
    {
      "labels": [],
      "source": null,
      "text": "        .byte   1                       # DW_CHILDREN_yes"
    },
    {
      "labels": [],
      "source": null,
      "text": "        .byte   110                     # DW_AT_linkage_name"
    },
    {
      "labels": [],
      "source": null,
      "text": "        .byte   14                      # DW_FORM_strp"
    },
    {
      "labels": [],
      "source": null,
      "text": "        .byte   3                       # DW_AT_name"
    },
    {
      "labels": [],
      "source": null,
      "text": "        .byte   14                      # DW_FORM_strp"
    },
    {
      "labels": [],
      "source": null,
      "text": "        .byte   58                      # DW_AT_decl_file"
    },
    {
      "labels": [],
      "source": null,
      "text": "        .byte   11                      # DW_FORM_data1"
    },
    {
      "labels": [],
      "source": null,
      "text": "        .byte   59                      # DW_AT_decl_line"
    },
    {
      "labels": [],
      "source": null,
      "text": "        .byte   11                      # DW_FORM_data1"
    },
    {
      "labels": [],
      "source": null,
      "text": "        .byte   60                      # DW_AT_declaration"
    },
    {
      "labels": [],
      "source": null,
      "text": "        .byte   25                      # DW_FORM_flag_present"
    },
    {
      "labels": [],
      "source": null,
      "text": "        .byte   63                      # DW_AT_external"
    },
    {
      "labels": [],
      "source": null,
      "text": "        .byte   25                      # DW_FORM_flag_present"
    },
    {
      "labels": [],
      "source": null,
      "text": "        .byte   50                      # DW_AT_accessibility"
    },
    {
      "labels": [],
      "source": null,
      "text": "        .byte   11                      # DW_FORM_data1"
    },
    {
      "labels": [],
      "source": null,
      "text": "        .byte   0                       # EOM(1)"
    },
    {
      "labels": [],
      "source": null,
      "text": "        .byte   0                       # EOM(2)"
    },
    {
      "labels": [],
      "source": null,
      "text": "        .byte   22                      # Abbreviation Code"
    },
    {
      "labels": [],
      "source": null,
      "text": "        .byte   46                      # DW_TAG_subprogram"
    },
    {
      "labels": [],
      "source": null,
      "text": "        .byte   1                       # DW_CHILDREN_yes"
    },
    {
      "labels": [],
      "source": null,
      "text": "        .byte   3                       # DW_AT_name"
    },
    {
      "labels": [],
      "source": null,
      "text": "        .byte   14                      # DW_FORM_strp"
    },
    {
      "labels": [],
      "source": null,
      "text": "        .byte   58                      # DW_AT_decl_file"
    },
    {
      "labels": [],
      "source": null,
      "text": "        .byte   11                      # DW_FORM_data1"
    },
    {
      "labels": [],
      "source": null,
      "text": "        .byte   59                      # DW_AT_decl_line"
    },
    {
      "labels": [],
      "source": null,
      "text": "        .byte   11                      # DW_FORM_data1"
    },
    {
      "labels": [],
      "source": null,
      "text": "        .byte   60                      # DW_AT_declaration"
    },
    {
      "labels": [],
      "source": null,
      "text": "        .byte   25                      # DW_FORM_flag_present"
    },
    {
      "labels": [],
      "source": null,
      "text": "        .byte   63                      # DW_AT_external"
    },
    {
      "labels": [],
      "source": null,
      "text": "        .byte   25                      # DW_FORM_flag_present"
    },
    {
      "labels": [],
      "source": null,
      "text": "        .byte   50                      # DW_AT_accessibility"
    },
    {
      "labels": [],
      "source": null,
      "text": "        .byte   11                      # DW_FORM_data1"
    },
    {
      "labels": [],
      "source": null,
      "text": "        .byte   0                       # EOM(1)"
    },
    {
      "labels": [],
      "source": null,
      "text": "        .byte   0                       # EOM(2)"
    },
    {
      "labels": [],
      "source": null,
      "text": "        .byte   23                      # Abbreviation Code"
    },
    {
      "labels": [],
      "source": null,
      "text": "        .byte   19                      # DW_TAG_structure_type"
    },
    {
      "labels": [],
      "source": null,
      "text": "        .byte   0                       # DW_CHILDREN_no"
    },
    {
      "labels": [],
      "source": null,
      "text": "        .byte   54                      # DW_AT_calling_convention"
    },
    {
      "labels": [],
      "source": null,
      "text": "        .byte   11                      # DW_FORM_data1"
    },
    {
      "labels": [],
      "source": null,
      "text": "        .byte   3                       # DW_AT_name"
    },
    {
      "labels": [],
      "source": null,
      "text": "        .byte   14                      # DW_FORM_strp"
    },
    {
      "labels": [],
      "source": null,
      "text": "        .byte   11                      # DW_AT_byte_size"
    },
    {
      "labels": [],
      "source": null,
      "text": "        .byte   11                      # DW_FORM_data1"
    },
    {
      "labels": [],
      "source": null,
      "text": "        .byte   58                      # DW_AT_decl_file"
    },
    {
      "labels": [],
      "source": null,
      "text": "        .byte   11                      # DW_FORM_data1"
    },
    {
      "labels": [],
      "source": null,
      "text": "        .byte   59                      # DW_AT_decl_line"
    },
    {
      "labels": [],
      "source": null,
      "text": "        .byte   11                      # DW_FORM_data1"
    },
    {
      "labels": [],
      "source": null,
      "text": "        .byte   0                       # EOM(1)"
    },
    {
      "labels": [],
      "source": null,
      "text": "        .byte   0                       # EOM(2)"
    },
    {
      "labels": [],
      "source": null,
      "text": "        .byte   24                      # Abbreviation Code"
    },
    {
      "labels": [],
      "source": null,
      "text": "        .byte   46                      # DW_TAG_subprogram"
    },
    {
      "labels": [],
      "source": null,
      "text": "        .byte   1                       # DW_CHILDREN_yes"
    },
    {
      "labels": [],
      "source": null,
      "text": "        .byte   110                     # DW_AT_linkage_name"
    },
    {
      "labels": [],
      "source": null,
      "text": "        .byte   14                      # DW_FORM_strp"
    },
    {
      "labels": [],
      "source": null,
      "text": "        .byte   3                       # DW_AT_name"
    },
    {
      "labels": [],
      "source": null,
      "text": "        .byte   14                      # DW_FORM_strp"
    },
    {
      "labels": [],
      "source": null,
      "text": "        .byte   58                      # DW_AT_decl_file"
    },
    {
      "labels": [],
      "source": null,
      "text": "        .byte   11                      # DW_FORM_data1"
    },
    {
      "labels": [],
      "source": null,
      "text": "        .byte   59                      # DW_AT_decl_line"
    },
    {
      "labels": [],
      "source": null,
      "text": "        .byte   5                       # DW_FORM_data2"
    },
    {
      "labels": [],
      "source": null,
      "text": "        .byte   73                      # DW_AT_type"
    },
    {
      "labels": [],
      "source": null,
      "text": "        .byte   19                      # DW_FORM_ref4"
    },
    {
      "labels": [],
      "source": null,
      "text": "        .byte   60                      # DW_AT_declaration"
    },
    {
      "labels": [],
      "source": null,
      "text": "        .byte   25                      # DW_FORM_flag_present"
    },
    {
      "labels": [],
      "source": null,
      "text": "        .byte   63                      # DW_AT_external"
    },
    {
      "labels": [],
      "source": null,
      "text": "        .byte   25                      # DW_FORM_flag_present"
    },
    {
      "labels": [],
      "source": null,
      "text": "        .byte   50                      # DW_AT_accessibility"
    },
    {
      "labels": [],
      "source": null,
      "text": "        .byte   11                      # DW_FORM_data1"
    },
    {
      "labels": [],
      "source": null,
      "text": "        .byte   0                       # EOM(1)"
    },
    {
      "labels": [],
      "source": null,
      "text": "        .byte   0                       # EOM(2)"
    },
    {
      "labels": [],
      "source": null,
      "text": "        .byte   25                      # Abbreviation Code"
    },
    {
      "labels": [],
      "source": null,
      "text": "        .byte   48                      # DW_TAG_template_value_parameter"
    },
    {
      "labels": [],
      "source": null,
      "text": "        .byte   0                       # DW_CHILDREN_no"
    },
    {
      "labels": [],
      "source": null,
      "text": "        .byte   73                      # DW_AT_type"
    },
    {
      "labels": [],
      "source": null,
      "text": "        .byte   19                      # DW_FORM_ref4"
    },
    {
      "labels": [],
      "source": null,
      "text": "        .byte   28                      # DW_AT_const_value"
    },
    {
      "labels": [],
      "source": null,
      "text": "        .byte   13                      # DW_FORM_sdata"
    },
    {
      "labels": [],
      "source": null,
      "text": "        .byte   0                       # EOM(1)"
    },
    {
      "labels": [],
      "source": null,
      "text": "        .byte   0                       # EOM(2)"
    },
    {
      "labels": [],
      "source": null,
      "text": "        .byte   26                      # Abbreviation Code"
    },
    {
      "labels": [],
      "source": null,
      "text": "        .byte   2                       # DW_TAG_class_type"
    },
    {
      "labels": [],
      "source": null,
      "text": "        .byte   1                       # DW_CHILDREN_yes"
    },
    {
      "labels": [],
      "source": null,
      "text": "        .byte   54                      # DW_AT_calling_convention"
    },
    {
      "labels": [],
      "source": null,
      "text": "        .byte   11                      # DW_FORM_data1"
    },
    {
      "labels": [],
      "source": null,
      "text": "        .byte   3                       # DW_AT_name"
    },
    {
      "labels": [],
      "source": null,
      "text": "        .byte   14                      # DW_FORM_strp"
    },
    {
      "labels": [],
      "source": null,
      "text": "        .byte   11                      # DW_AT_byte_size"
    },
    {
      "labels": [],
      "source": null,
      "text": "        .byte   11                      # DW_FORM_data1"
    },
    {
      "labels": [],
      "source": null,
      "text": "        .byte   58                      # DW_AT_decl_file"
    },
    {
      "labels": [],
      "source": null,
      "text": "        .byte   11                      # DW_FORM_data1"
    },
    {
      "labels": [],
      "source": null,
      "text": "        .byte   59                      # DW_AT_decl_line"
    },
    {
      "labels": [],
      "source": null,
      "text": "        .byte   5                       # DW_FORM_data2"
    },
    {
      "labels": [],
      "source": null,
      "text": "        .byte   0                       # EOM(1)"
    },
    {
      "labels": [],
      "source": null,
      "text": "        .byte   0                       # EOM(2)"
    },
    {
      "labels": [],
      "source": null,
      "text": "        .byte   27                      # Abbreviation Code"
    },
    {
      "labels": [],
      "source": null,
      "text": "        .byte   46                      # DW_TAG_subprogram"
    },
    {
      "labels": [],
      "source": null,
      "text": "        .byte   1                       # DW_CHILDREN_yes"
    },
    {
      "labels": [],
      "source": null,
      "text": "        .byte   3                       # DW_AT_name"
    },
    {
      "labels": [],
      "source": null,
      "text": "        .byte   14                      # DW_FORM_strp"
    },
    {
      "labels": [],
      "source": null,
      "text": "        .byte   58                      # DW_AT_decl_file"
    },
    {
      "labels": [],
      "source": null,
      "text": "        .byte   11                      # DW_FORM_data1"
    },
    {
      "labels": [],
      "source": null,
      "text": "        .byte   59                      # DW_AT_decl_line"
    },
    {
      "labels": [],
      "source": null,
      "text": "        .byte   5                       # DW_FORM_data2"
    },
    {
      "labels": [],
      "source": null,
      "text": "        .byte   60                      # DW_AT_declaration"
    },
    {
      "labels": [],
      "source": null,
      "text": "        .byte   25                      # DW_FORM_flag_present"
    },
    {
      "labels": [],
      "source": null,
      "text": "        .byte   63                      # DW_AT_external"
    },
    {
      "labels": [],
      "source": null,
      "text": "        .byte   25                      # DW_FORM_flag_present"
    },
    {
      "labels": [],
      "source": null,
      "text": "        .byte   50                      # DW_AT_accessibility"
    },
    {
      "labels": [],
      "source": null,
      "text": "        .byte   11                      # DW_FORM_data1"
    },
    {
      "labels": [],
      "source": null,
      "text": "        .byte   0                       # EOM(1)"
    },
    {
      "labels": [],
      "source": null,
      "text": "        .byte   0                       # EOM(2)"
    },
    {
      "labels": [],
      "source": null,
      "text": "        .byte   28                      # Abbreviation Code"
    },
    {
      "labels": [],
      "source": null,
      "text": "        .byte   46                      # DW_TAG_subprogram"
    },
    {
      "labels": [],
      "source": null,
      "text": "        .byte   1                       # DW_CHILDREN_yes"
    },
    {
      "labels": [],
      "source": null,
      "text": "        .byte   110                     # DW_AT_linkage_name"
    },
    {
      "labels": [],
      "source": null,
      "text": "        .byte   14                      # DW_FORM_strp"
    },
    {
      "labels": [],
      "source": null,
      "text": "        .byte   3                       # DW_AT_name"
    },
    {
      "labels": [],
      "source": null,
      "text": "        .byte   14                      # DW_FORM_strp"
    },
    {
      "labels": [],
      "source": null,
      "text": "        .byte   58                      # DW_AT_decl_file"
    },
    {
      "labels": [],
      "source": null,
      "text": "        .byte   11                      # DW_FORM_data1"
    },
    {
      "labels": [],
      "source": null,
      "text": "        .byte   59                      # DW_AT_decl_line"
    },
    {
      "labels": [],
      "source": null,
      "text": "        .byte   11                      # DW_FORM_data1"
    },
    {
      "labels": [],
      "source": null,
      "text": "        .byte   73                      # DW_AT_type"
    },
    {
      "labels": [],
      "source": null,
      "text": "        .byte   19                      # DW_FORM_ref4"
    },
    {
      "labels": [],
      "source": null,
      "text": "        .byte   60                      # DW_AT_declaration"
    },
    {
      "labels": [],
      "source": null,
      "text": "        .byte   25                      # DW_FORM_flag_present"
    },
    {
      "labels": [],
      "source": null,
      "text": "        .byte   63                      # DW_AT_external"
    },
    {
      "labels": [],
      "source": null,
      "text": "        .byte   25                      # DW_FORM_flag_present"
    },
    {
      "labels": [],
      "source": null,
      "text": "        .byte   50                      # DW_AT_accessibility"
    },
    {
      "labels": [],
      "source": null,
      "text": "        .byte   11                      # DW_FORM_data1"
    },
    {
      "labels": [],
      "source": null,
      "text": "        .byte   0                       # EOM(1)"
    },
    {
      "labels": [],
      "source": null,
      "text": "        .byte   0                       # EOM(2)"
    },
    {
      "labels": [],
      "source": null,
      "text": "        .byte   29                      # Abbreviation Code"
    },
    {
      "labels": [],
      "source": null,
      "text": "        .ascii  \"\\207\\202\\001\"          # DW_TAG_GNU_template_parameter_pack"
    },
    {
      "labels": [],
      "source": null,
      "text": "        .byte   1                       # DW_CHILDREN_yes"
    },
    {
      "labels": [],
      "source": null,
      "text": "        .byte   3                       # DW_AT_name"
    },
    {
      "labels": [],
      "source": null,
      "text": "        .byte   14                      # DW_FORM_strp"
    },
    {
      "labels": [],
      "source": null,
      "text": "        .byte   0                       # EOM(1)"
    },
    {
      "labels": [],
      "source": null,
      "text": "        .byte   0                       # EOM(2)"
    },
    {
      "labels": [],
      "source": null,
      "text": "        .byte   30                      # Abbreviation Code"
    },
    {
      "labels": [],
      "source": null,
      "text": "        .byte   47                      # DW_TAG_template_type_parameter"
    },
    {
      "labels": [],
      "source": null,
      "text": "        .byte   0                       # DW_CHILDREN_no"
    },
    {
      "labels": [],
      "source": null,
      "text": "        .byte   73                      # DW_AT_type"
    },
    {
      "labels": [],
      "source": null,
      "text": "        .byte   19                      # DW_FORM_ref4"
    },
    {
      "labels": [],
      "source": null,
      "text": "        .byte   0                       # EOM(1)"
    },
    {
      "labels": [],
      "source": null,
      "text": "        .byte   0                       # EOM(2)"
    },
    {
      "labels": [],
      "source": null,
      "text": "        .byte   31                      # Abbreviation Code"
    },
    {
      "labels": [],
      "source": null,
      "text": "        .byte   8                       # DW_TAG_imported_declaration"
    },
    {
      "labels": [],
      "source": null,
      "text": "        .byte   0                       # DW_CHILDREN_no"
    },
    {
      "labels": [],
      "source": null,
      "text": "        .byte   58                      # DW_AT_decl_file"
    },
    {
      "labels": [],
      "source": null,
      "text": "        .byte   11                      # DW_FORM_data1"
    },
    {
      "labels": [],
      "source": null,
      "text": "        .byte   59                      # DW_AT_decl_line"
    },
    {
      "labels": [],
      "source": null,
      "text": "        .byte   5                       # DW_FORM_data2"
    },
    {
      "labels": [],
      "source": null,
      "text": "        .byte   24                      # DW_AT_import"
    },
    {
      "labels": [],
      "source": null,
      "text": "        .byte   19                      # DW_FORM_ref4"
    },
    {
      "labels": [],
      "source": null,
      "text": "        .byte   0                       # EOM(1)"
    },
    {
      "labels": [],
      "source": null,
      "text": "        .byte   0                       # EOM(2)"
    },
    {
      "labels": [],
      "source": null,
      "text": "        .byte   32                      # Abbreviation Code"
    },
    {
      "labels": [],
      "source": null,
      "text": "        .byte   22                      # DW_TAG_typedef"
    },
    {
      "labels": [],
      "source": null,
      "text": "        .byte   0                       # DW_CHILDREN_no"
    },
    {
      "labels": [],
      "source": null,
      "text": "        .byte   73                      # DW_AT_type"
    },
    {
      "labels": [],
      "source": null,
      "text": "        .byte   19                      # DW_FORM_ref4"
    },
    {
      "labels": [],
      "source": null,
      "text": "        .byte   3                       # DW_AT_name"
    },
    {
      "labels": [],
      "source": null,
      "text": "        .byte   14                      # DW_FORM_strp"
    },
    {
      "labels": [],
      "source": null,
      "text": "        .byte   58                      # DW_AT_decl_file"
    },
    {
      "labels": [],
      "source": null,
      "text": "        .byte   11                      # DW_FORM_data1"
    },
    {
      "labels": [],
      "source": null,
      "text": "        .byte   59                      # DW_AT_decl_line"
    },
    {
      "labels": [],
      "source": null,
      "text": "        .byte   5                       # DW_FORM_data2"
    },
    {
      "labels": [],
      "source": null,
      "text": "        .byte   0                       # EOM(1)"
    },
    {
      "labels": [],
      "source": null,
      "text": "        .byte   0                       # EOM(2)"
    },
    {
      "labels": [],
      "source": null,
      "text": "        .byte   33                      # Abbreviation Code"
    },
    {
      "labels": [],
      "source": null,
      "text": "        .byte   19                      # DW_TAG_structure_type"
    },
    {
      "labels": [],
      "source": null,
      "text": "        .byte   0                       # DW_CHILDREN_no"
    },
    {
      "labels": [],
      "source": null,
      "text": "        .byte   3                       # DW_AT_name"
    },
    {
      "labels": [],
      "source": null,
      "text": "        .byte   14                      # DW_FORM_strp"
    },
    {
      "labels": [],
      "source": null,
      "text": "        .byte   60                      # DW_AT_declaration"
    },
    {
      "labels": [],
      "source": null,
      "text": "        .byte   25                      # DW_FORM_flag_present"
    },
    {
      "labels": [],
      "source": null,
      "text": "        .byte   0                       # EOM(1)"
    },
    {
      "labels": [],
      "source": null,
      "text": "        .byte   0                       # EOM(2)"
    },
    {
      "labels": [],
      "source": null,
      "text": "        .byte   34                      # Abbreviation Code"
    },
    {
      "labels": [],
      "source": null,
      "text": "        .byte   28                      # DW_TAG_inheritance"
    },
    {
      "labels": [],
      "source": null,
      "text": "        .byte   0                       # DW_CHILDREN_no"
    },
    {
      "labels": [],
      "source": null,
      "text": "        .byte   73                      # DW_AT_type"
    },
    {
      "labels": [],
      "source": null,
      "text": "        .byte   19                      # DW_FORM_ref4"
    },
    {
      "labels": [],
      "source": null,
      "text": "        .byte   56                      # DW_AT_data_member_location"
    },
    {
      "labels": [],
      "source": null,
      "text": "        .byte   11                      # DW_FORM_data1"
    },
    {
      "labels": [],
      "source": null,
      "text": "        .byte   0                       # EOM(1)"
    },
    {
      "labels": [],
      "source": null,
      "text": "        .byte   0                       # EOM(2)"
    },
    {
      "labels": [],
      "source": null,
      "text": "        .byte   35                      # Abbreviation Code"
    },
    {
      "labels": [],
      "source": null,
      "text": "        .byte   46                      # DW_TAG_subprogram"
    },
    {
      "labels": [],
      "source": null,
      "text": "        .byte   1                       # DW_CHILDREN_yes"
    },
    {
      "labels": [],
      "source": null,
      "text": "        .byte   110                     # DW_AT_linkage_name"
    },
    {
      "labels": [],
      "source": null,
      "text": "        .byte   14                      # DW_FORM_strp"
    },
    {
      "labels": [],
      "source": null,
      "text": "        .byte   3                       # DW_AT_name"
    },
    {
      "labels": [],
      "source": null,
      "text": "        .byte   14                      # DW_FORM_strp"
    },
    {
      "labels": [],
      "source": null,
      "text": "        .byte   58                      # DW_AT_decl_file"
    },
    {
      "labels": [],
      "source": null,
      "text": "        .byte   11                      # DW_FORM_data1"
    },
    {
      "labels": [],
      "source": null,
      "text": "        .byte   59                      # DW_AT_decl_line"
    },
    {
      "labels": [],
      "source": null,
      "text": "        .byte   5                       # DW_FORM_data2"
    },
    {
      "labels": [],
      "source": null,
      "text": "        .byte   60                      # DW_AT_declaration"
    },
    {
      "labels": [],
      "source": null,
      "text": "        .byte   25                      # DW_FORM_flag_present"
    },
    {
      "labels": [],
      "source": null,
      "text": "        .byte   63                      # DW_AT_external"
    },
    {
      "labels": [],
      "source": null,
      "text": "        .byte   25                      # DW_FORM_flag_present"
    },
    {
      "labels": [],
      "source": null,
      "text": "        .byte   50                      # DW_AT_accessibility"
    },
    {
      "labels": [],
      "source": null,
      "text": "        .byte   11                      # DW_FORM_data1"
    },
    {
      "labels": [],
      "source": null,
      "text": "        .byte   0                       # EOM(1)"
    },
    {
      "labels": [],
      "source": null,
      "text": "        .byte   0                       # EOM(2)"
    },
    {
      "labels": [],
      "source": null,
      "text": "        .byte   36                      # Abbreviation Code"
    },
    {
      "labels": [],
      "source": null,
      "text": "        .byte   46                      # DW_TAG_subprogram"
    },
    {
      "labels": [],
      "source": null,
      "text": "        .byte   1                       # DW_CHILDREN_yes"
    },
    {
      "labels": [],
      "source": null,
      "text": "        .byte   110                     # DW_AT_linkage_name"
    },
    {
      "labels": [],
      "source": null,
      "text": "        .byte   14                      # DW_FORM_strp"
    },
    {
      "labels": [],
      "source": null,
      "text": "        .byte   3                       # DW_AT_name"
    },
    {
      "labels": [],
      "source": null,
      "text": "        .byte   14                      # DW_FORM_strp"
    },
    {
      "labels": [],
      "source": null,
      "text": "        .byte   58                      # DW_AT_decl_file"
    },
    {
      "labels": [],
      "source": null,
      "text": "        .byte   11                      # DW_FORM_data1"
    },
    {
      "labels": [],
      "source": null,
      "text": "        .byte   59                      # DW_AT_decl_line"
    },
    {
      "labels": [],
      "source": null,
      "text": "        .byte   5                       # DW_FORM_data2"
    },
    {
      "labels": [],
      "source": null,
      "text": "        .byte   73                      # DW_AT_type"
    },
    {
      "labels": [],
      "source": null,
      "text": "        .byte   19                      # DW_FORM_ref4"
    },
    {
      "labels": [],
      "source": null,
      "text": "        .byte   60                      # DW_AT_declaration"
    },
    {
      "labels": [],
      "source": null,
      "text": "        .byte   25                      # DW_FORM_flag_present"
    },
    {
      "labels": [],
      "source": null,
      "text": "        .byte   63                      # DW_AT_external"
    },
    {
      "labels": [],
      "source": null,
      "text": "        .byte   25                      # DW_FORM_flag_present"
    },
    {
      "labels": [],
      "source": null,
      "text": "        .byte   119                     # DW_AT_reference"
    },
    {
      "labels": [],
      "source": null,
      "text": "        .byte   25                      # DW_FORM_flag_present"
    },
    {
      "labels": [],
      "source": null,
      "text": "        .byte   50                      # DW_AT_accessibility"
    },
    {
      "labels": [],
      "source": null,
      "text": "        .byte   11                      # DW_FORM_data1"
    },
    {
      "labels": [],
      "source": null,
      "text": "        .byte   0                       # EOM(1)"
    },
    {
      "labels": [],
      "source": null,
      "text": "        .byte   0                       # EOM(2)"
    },
    {
      "labels": [],
      "source": null,
      "text": "        .byte   37                      # Abbreviation Code"
    },
    {
      "labels": [],
      "source": null,
      "text": "        .byte   46                      # DW_TAG_subprogram"
    },
    {
      "labels": [],
      "source": null,
      "text": "        .byte   1                       # DW_CHILDREN_yes"
    },
    {
      "labels": [],
      "source": null,
      "text": "        .byte   110                     # DW_AT_linkage_name"
    },
    {
      "labels": [],
      "source": null,
      "text": "        .byte   14                      # DW_FORM_strp"
    },
    {
      "labels": [],
      "source": null,
      "text": "        .byte   3                       # DW_AT_name"
    },
    {
      "labels": [],
      "source": null,
      "text": "        .byte   14                      # DW_FORM_strp"
    },
    {
      "labels": [],
      "source": null,
      "text": "        .byte   58                      # DW_AT_decl_file"
    },
    {
      "labels": [],
      "source": null,
      "text": "        .byte   11                      # DW_FORM_data1"
    },
    {
      "labels": [],
      "source": null,
      "text": "        .byte   59                      # DW_AT_decl_line"
    },
    {
      "labels": [],
      "source": null,
      "text": "        .byte   5                       # DW_FORM_data2"
    },
    {
      "labels": [],
      "source": null,
      "text": "        .byte   73                      # DW_AT_type"
    },
    {
      "labels": [],
      "source": null,
      "text": "        .byte   19                      # DW_FORM_ref4"
    },
    {
      "labels": [],
      "source": null,
      "text": "        .byte   60                      # DW_AT_declaration"
    },
    {
      "labels": [],
      "source": null,
      "text": "        .byte   25                      # DW_FORM_flag_present"
    },
    {
      "labels": [],
      "source": null,
      "text": "        .byte   63                      # DW_AT_external"
    },
    {
      "labels": [],
      "source": null,
      "text": "        .byte   25                      # DW_FORM_flag_present"
    },
    {
      "labels": [],
      "source": null,
      "text": "        .byte   120                     # DW_AT_rvalue_reference"
    },
    {
      "labels": [],
      "source": null,
      "text": "        .byte   25                      # DW_FORM_flag_present"
    },
    {
      "labels": [],
      "source": null,
      "text": "        .byte   50                      # DW_AT_accessibility"
    },
    {
      "labels": [],
      "source": null,
      "text": "        .byte   11                      # DW_FORM_data1"
    },
    {
      "labels": [],
      "source": null,
      "text": "        .byte   0                       # EOM(1)"
    },
    {
      "labels": [],
      "source": null,
      "text": "        .byte   0                       # EOM(2)"
    },
    {
      "labels": [],
      "source": null,
      "text": "        .byte   38                      # Abbreviation Code"
    },
    {
      "labels": [],
      "source": null,
      "text": "        .byte   46                      # DW_TAG_subprogram"
    },
    {
      "labels": [],
      "source": null,
      "text": "        .byte   1                       # DW_CHILDREN_yes"
    },
    {
      "labels": [],
      "source": null,
      "text": "        .byte   110                     # DW_AT_linkage_name"
    },
    {
      "labels": [],
      "source": null,
      "text": "        .byte   14                      # DW_FORM_strp"
    },
    {
      "labels": [],
      "source": null,
      "text": "        .byte   3                       # DW_AT_name"
    },
    {
      "labels": [],
      "source": null,
      "text": "        .byte   14                      # DW_FORM_strp"
    },
    {
      "labels": [],
      "source": null,
      "text": "        .byte   58                      # DW_AT_decl_file"
    },
    {
      "labels": [],
      "source": null,
      "text": "        .byte   11                      # DW_FORM_data1"
    },
    {
      "labels": [],
      "source": null,
      "text": "        .byte   59                      # DW_AT_decl_line"
    },
    {
      "labels": [],
      "source": null,
      "text": "        .byte   5                       # DW_FORM_data2"
    },
    {
      "labels": [],
      "source": null,
      "text": "        .byte   73                      # DW_AT_type"
    },
    {
      "labels": [],
      "source": null,
      "text": "        .byte   19                      # DW_FORM_ref4"
    },
    {
      "labels": [],
      "source": null,
      "text": "        .byte   60                      # DW_AT_declaration"
    },
    {
      "labels": [],
      "source": null,
      "text": "        .byte   25                      # DW_FORM_flag_present"
    },
    {
      "labels": [],
      "source": null,
      "text": "        .byte   63                      # DW_AT_external"
    },
    {
      "labels": [],
      "source": null,
      "text": "        .byte   25                      # DW_FORM_flag_present"
    },
    {
      "labels": [],
      "source": null,
      "text": "        .byte   50                      # DW_AT_accessibility"
    },
    {
      "labels": [],
      "source": null,
      "text": "        .byte   11                      # DW_FORM_data1"
    },
    {
      "labels": [],
      "source": null,
      "text": "        .byte   99                      # DW_AT_explicit"
    },
    {
      "labels": [],
      "source": null,
      "text": "        .byte   25                      # DW_FORM_flag_present"
    },
    {
      "labels": [],
      "source": null,
      "text": "        .byte   0                       # EOM(1)"
    },
    {
      "labels": [],
      "source": null,
      "text": "        .byte   0                       # EOM(2)"
    },
    {
      "labels": [],
      "source": null,
      "text": "        .byte   39                      # Abbreviation Code"
    },
    {
      "labels": [],
      "source": null,
      "text": "        .byte   46                      # DW_TAG_subprogram"
    },
    {
      "labels": [],
      "source": null,
      "text": "        .byte   1                       # DW_CHILDREN_yes"
    },
    {
      "labels": [],
      "source": null,
      "text": "        .byte   110                     # DW_AT_linkage_name"
    },
    {
      "labels": [],
      "source": null,
      "text": "        .byte   14                      # DW_FORM_strp"
    },
    {
      "labels": [],
      "source": null,
      "text": "        .byte   3                       # DW_AT_name"
    },
    {
      "labels": [],
      "source": null,
      "text": "        .byte   14                      # DW_FORM_strp"
    },
    {
      "labels": [],
      "source": null,
      "text": "        .byte   58                      # DW_AT_decl_file"
    },
    {
      "labels": [],
      "source": null,
      "text": "        .byte   11                      # DW_FORM_data1"
    },
    {
      "labels": [],
      "source": null,
      "text": "        .byte   59                      # DW_AT_decl_line"
    },
    {
      "labels": [],
      "source": null,
      "text": "        .byte   5                       # DW_FORM_data2"
    },
    {
      "labels": [],
      "source": null,
      "text": "        .byte   73                      # DW_AT_type"
    },
    {
      "labels": [],
      "source": null,
      "text": "        .byte   19                      # DW_FORM_ref4"
    },
    {
      "labels": [],
      "source": null,
      "text": "        .byte   60                      # DW_AT_declaration"
    },
    {
      "labels": [],
      "source": null,
      "text": "        .byte   25                      # DW_FORM_flag_present"
    },
    {
      "labels": [],
      "source": null,
      "text": "        .byte   63                      # DW_AT_external"
    },
    {
      "labels": [],
      "source": null,
      "text": "        .byte   25                      # DW_FORM_flag_present"
    },
    {
      "labels": [],
      "source": null,
      "text": "        .byte   0                       # EOM(1)"
    },
    {
      "labels": [],
      "source": null,
      "text": "        .byte   0                       # EOM(2)"
    },
    {
      "labels": [],
      "source": null,
      "text": "        .byte   40                      # Abbreviation Code"
    },
    {
      "labels": [],
      "source": null,
      "text": "        .byte   13                      # DW_TAG_member"
    },
    {
      "labels": [],
      "source": null,
      "text": "        .byte   0                       # DW_CHILDREN_no"
    },
    {
      "labels": [],
      "source": null,
      "text": "        .byte   3                       # DW_AT_name"
    },
    {
      "labels": [],
      "source": null,
      "text": "        .byte   14                      # DW_FORM_strp"
    },
    {
      "labels": [],
      "source": null,
      "text": "        .byte   73                      # DW_AT_type"
    },
    {
      "labels": [],
      "source": null,
      "text": "        .byte   19                      # DW_FORM_ref4"
    },
    {
      "labels": [],
      "source": null,
      "text": "        .byte   58                      # DW_AT_decl_file"
    },
    {
      "labels": [],
      "source": null,
      "text": "        .byte   11                      # DW_FORM_data1"
    },
    {
      "labels": [],
      "source": null,
      "text": "        .byte   59                      # DW_AT_decl_line"
    },
    {
      "labels": [],
      "source": null,
      "text": "        .byte   11                      # DW_FORM_data1"
    },
    {
      "labels": [],
      "source": null,
      "text": "        .byte   63                      # DW_AT_external"
    },
    {
      "labels": [],
      "source": null,
      "text": "        .byte   25                      # DW_FORM_flag_present"
    },
    {
      "labels": [],
      "source": null,
      "text": "        .byte   60                      # DW_AT_declaration"
    },
    {
      "labels": [],
      "source": null,
      "text": "        .byte   25                      # DW_FORM_flag_present"
    },
    {
      "labels": [],
      "source": null,
      "text": "        .byte   50                      # DW_AT_accessibility"
    },
    {
      "labels": [],
      "source": null,
      "text": "        .byte   11                      # DW_FORM_data1"
    },
    {
      "labels": [],
      "source": null,
      "text": "        .byte   28                      # DW_AT_const_value"
    },
    {
      "labels": [],
      "source": null,
      "text": "        .byte   15                      # DW_FORM_udata"
    },
    {
      "labels": [],
      "source": null,
      "text": "        .byte   0                       # EOM(1)"
    },
    {
      "labels": [],
      "source": null,
      "text": "        .byte   0                       # EOM(2)"
    },
    {
      "labels": [],
      "source": null,
      "text": "        .byte   41                      # Abbreviation Code"
    },
    {
      "labels": [],
      "source": null,
      "text": "        .byte   13                      # DW_TAG_member"
    },
    {
      "labels": [],
      "source": null,
      "text": "        .byte   0                       # DW_CHILDREN_no"
    },
    {
      "labels": [],
      "source": null,
      "text": "        .byte   3                       # DW_AT_name"
    },
    {
      "labels": [],
      "source": null,
      "text": "        .byte   14                      # DW_FORM_strp"
    },
    {
      "labels": [],
      "source": null,
      "text": "        .byte   73                      # DW_AT_type"
    },
    {
      "labels": [],
      "source": null,
      "text": "        .byte   19                      # DW_FORM_ref4"
    },
    {
      "labels": [],
      "source": null,
      "text": "        .byte   58                      # DW_AT_decl_file"
    },
    {
      "labels": [],
      "source": null,
      "text": "        .byte   11                      # DW_FORM_data1"
    },
    {
      "labels": [],
      "source": null,
      "text": "        .byte   59                      # DW_AT_decl_line"
    },
    {
      "labels": [],
      "source": null,
      "text": "        .byte   5                       # DW_FORM_data2"
    },
    {
      "labels": [],
      "source": null,
      "text": "        .byte   63                      # DW_AT_external"
    },
    {
      "labels": [],
      "source": null,
      "text": "        .byte   25                      # DW_FORM_flag_present"
    },
    {
      "labels": [],
      "source": null,
      "text": "        .byte   60                      # DW_AT_declaration"
    },
    {
      "labels": [],
      "source": null,
      "text": "        .byte   25                      # DW_FORM_flag_present"
    },
    {
      "labels": [],
      "source": null,
      "text": "        .byte   28                      # DW_AT_const_value"
    },
    {
      "labels": [],
      "source": null,
      "text": "        .byte   15                      # DW_FORM_udata"
    },
    {
      "labels": [],
      "source": null,
      "text": "        .byte   0                       # EOM(1)"
    },
    {
      "labels": [],
      "source": null,
      "text": "        .byte   0                       # EOM(2)"
    },
    {
      "labels": [],
      "source": null,
      "text": "        .byte   42                      # Abbreviation Code"
    },
    {
      "labels": [],
      "source": null,
      "text": "        .byte   13                      # DW_TAG_member"
    },
    {
      "labels": [],
      "source": null,
      "text": "        .byte   0                       # DW_CHILDREN_no"
    },
    {
      "labels": [],
      "source": null,
      "text": "        .byte   3                       # DW_AT_name"
    },
    {
      "labels": [],
      "source": null,
      "text": "        .byte   14                      # DW_FORM_strp"
    },
    {
