{
  "asm": [
    {
      "labels": [],
      "source": null,
      "text": "        .text"
    },
    {
      "labels": [],
      "source": null,
      "text": "        .intel_syntax noprefix"
    },
    {
      "labels": [],
      "source": null,
      "text": "        .file   \"example.cpp\""
    },
    {
      "labels": [],
      "source": null,
      "text": "        .file   1 \"/tmp/compiler-explorer-compiler1181120-2080-yfo6a1.y1o4e\" \"/opt/compiler-explorer/libs/ctre/master/include/ctll/fixed_string.hpp\""
    },
    {
      "labels": [],
      "source": null,
      "text": "        .file   2 \"/tmp/compiler-explorer-compiler1181120-2080-yfo6a1.y1o4e\" \"/opt/compiler-explorer/clang-trunk-20181013/lib/clang/8.0.0/include/stddef.h\""
    },
    {
      "labels": [],
      "source": null,
      "text": "        .file   3 \"/tmp/compiler-explorer-compiler1181120-2080-yfo6a1.y1o4e\" \"/tmp/compiler-explorer-compiler1181120-2080-yfo6a1.y1o4e/example.cpp\""
    },
    {
      "labels": [],
      "source": null,
      "text": "        .file   4 \"/tmp/compiler-explorer-compiler1181120-2080-yfo6a1.y1o4e\" \"/opt/compiler-explorer/libs/ctre/master/include/ctre/return_type.hpp\""
    },
    {
      "labels": [],
      "source": null,
      "text": "        .file   5 \"/tmp/compiler-explorer-compiler1181120-2080-yfo6a1.y1o4e\" \"/opt/compiler-explorer/libs/ctre/master/include/ctre/wrapper.hpp\""
    },
    {
      "labels": [],
      "source": null,
      "text": "        .file   6 \"/tmp/compiler-explorer-compiler1181120-2080-yfo6a1.y1o4e\" \"/opt/compiler-explorer/libs/ctre/master/include/ctre/atoms_characters.hpp\""
    },
    {
      "labels": [],
      "source": null,
      "text": "        .file   7 \"/tmp/compiler-explorer-compiler1181120-2080-yfo6a1.y1o4e\" \"/opt/compiler-explorer/libs/ctre/master/include/ctre/atoms.hpp\""
    },
    {
      "labels": [],
      "source": null,
      "text": "        .file   8 \"/tmp/compiler-explorer-compiler1181120-2080-yfo6a1.y1o4e\" \"/opt/compiler-explorer/clang-trunk-20181013/lib/clang/8.0.0/include/__stddef_max_align_t.h\""
    },
    {
      "labels": [],
      "source": null,
      "text": "        .file   9 \"/tmp/compiler-explorer-compiler1181120-2080-yfo6a1.y1o4e\" \"/opt/compiler-explorer/gcc-8.2.0/lib/gcc/x86_64-linux-gnu/8.2.0/../../../../include/c++/8.2.0/cstddef\""
    },
    {
      "labels": [],
      "source": null,
      "text": "        .file   10 \"/tmp/compiler-explorer-compiler1181120-2080-yfo6a1.y1o4e\" \"/usr/include/x86_64-linux-gnu/bits/types.h\""
    },
    {
      "labels": [],
      "source": null,
      "text": "        .file   11 \"/tmp/compiler-explorer-compiler1181120-2080-yfo6a1.y1o4e\" \"/usr/include/x86_64-linux-gnu/bits/stdint-intn.h\""
    },
    {
      "labels": [],
      "source": null,
      "text": "        .file   12 \"/tmp/compiler-explorer-compiler1181120-2080-yfo6a1.y1o4e\" \"/opt/compiler-explorer/gcc-8.2.0/lib/gcc/x86_64-linux-gnu/8.2.0/../../../../include/c++/8.2.0/cstdint\""
    },
    {
      "labels": [],
      "source": null,
      "text": "        .file   13 \"/tmp/compiler-explorer-compiler1181120-2080-yfo6a1.y1o4e\" \"/usr/include/stdint.h\""
    },
    {
      "labels": [],
      "source": null,
      "text": "        .file   14 \"/tmp/compiler-explorer-compiler1181120-2080-yfo6a1.y1o4e\" \"/usr/include/x86_64-linux-gnu/bits/stdint-uintn.h\""
    },
    {
      "labels": [],
      "source": null,
      "text": "        .file   15 \"/tmp/compiler-explorer-compiler1181120-2080-yfo6a1.y1o4e\" \"/opt/compiler-explorer/gcc-8.2.0/lib/gcc/x86_64-linux-gnu/8.2.0/../../../../include/c++/8.2.0/bits/exception_ptr.h\""
    },
    {
      "labels": [],
      "source": null,
      "text": "        .file   16 \"/tmp/compiler-explorer-compiler1181120-2080-yfo6a1.y1o4e\" \"/opt/compiler-explorer/gcc-8.2.0/lib/gcc/x86_64-linux-gnu/8.2.0/../../../../include/c++/8.2.0/x86_64-linux-gnu/bits/c++config.h\""
    },
    {
      "labels": [],
      "source": null,
      "text": "        .file   17 \"/tmp/compiler-explorer-compiler1181120-2080-yfo6a1.y1o4e\" \"/opt/compiler-explorer/gcc-8.2.0/lib/gcc/x86_64-linux-gnu/8.2.0/../../../../include/c++/8.2.0/debug/debug.h\""
    },
    {
      "labels": [],
      "source": null,
      "text": "        .file   18 \"/tmp/compiler-explorer-compiler1181120-2080-yfo6a1.y1o4e\" \"/usr/include/x86_64-linux-gnu/bits/types/__mbstate_t.h\""
    },
    {
      "labels": [],
      "source": null,
      "text": "        .file   19 \"/tmp/compiler-explorer-compiler1181120-2080-yfo6a1.y1o4e\" \"/usr/include/x86_64-linux-gnu/bits/types/mbstate_t.h\""
    },
    {
      "labels": [],
      "source": null,
      "text": "        .file   20 \"/tmp/compiler-explorer-compiler1181120-2080-yfo6a1.y1o4e\" \"/opt/compiler-explorer/gcc-8.2.0/lib/gcc/x86_64-linux-gnu/8.2.0/../../../../include/c++/8.2.0/cwchar\""
    },
    {
      "labels": [],
      "source": null,
      "text": "        .file   21 \"/tmp/compiler-explorer-compiler1181120-2080-yfo6a1.y1o4e\" \"/usr/include/x86_64-linux-gnu/bits/types/wint_t.h\""
    },
    {
      "labels": [],
      "source": null,
      "text": "        .file   22 \"/tmp/compiler-explorer-compiler1181120-2080-yfo6a1.y1o4e\" \"/usr/include/wchar.h\""
    },
    {
      "labels": [],
      "source": null,
      "text": "        .file   23 \"/tmp/compiler-explorer-compiler1181120-2080-yfo6a1.y1o4e\" \"/usr/include/x86_64-linux-gnu/bits/libio.h\""
    },
    {
      "labels": [],
      "source": null,
      "text": "        .file   24 \"/tmp/compiler-explorer-compiler1181120-2080-yfo6a1.y1o4e\" \"/usr/include/x86_64-linux-gnu/bits/types/__FILE.h\""
    },
    {
      "labels": [],
      "source": null,
      "text": "        .file   25 \"/tmp/compiler-explorer-compiler1181120-2080-yfo6a1.y1o4e\" \"/opt/compiler-explorer/gcc-8.2.0/lib/gcc/x86_64-linux-gnu/8.2.0/../../../../include/c++/8.2.0/ext/new_allocator.h\""
    },
    {
      "labels": [],
      "source": null,
      "text": "        .file   26 \"/tmp/compiler-explorer-compiler1181120-2080-yfo6a1.y1o4e\" \"/opt/compiler-explorer/gcc-8.2.0/lib/gcc/x86_64-linux-gnu/8.2.0/../../../../include/c++/8.2.0/clocale\""
    },
    {
      "labels": [],
      "source": null,
      "text": "        .file   27 \"/tmp/compiler-explorer-compiler1181120-2080-yfo6a1.y1o4e\" \"/usr/include/locale.h\""
    },
    {
      "labels": [],
      "source": null,
      "text": "        .file   28 \"/tmp/compiler-explorer-compiler1181120-2080-yfo6a1.y1o4e\" \"/usr/include/ctype.h\""
    },
    {
      "labels": [],
      "source": null,
      "text": "        .file   29 \"/tmp/compiler-explorer-compiler1181120-2080-yfo6a1.y1o4e\" \"/opt/compiler-explorer/gcc-8.2.0/lib/gcc/x86_64-linux-gnu/8.2.0/../../../../include/c++/8.2.0/cctype\""
    },
    {
      "labels": [],
      "source": null,
      "text": "        .file   30 \"/tmp/compiler-explorer-compiler1181120-2080-yfo6a1.y1o4e\" \"/usr/include/stdlib.h\""
    },
    {
      "labels": [],
      "source": null,
      "text": "        .file   31 \"/tmp/compiler-explorer-compiler1181120-2080-yfo6a1.y1o4e\" \"/opt/compiler-explorer/gcc-8.2.0/lib/gcc/x86_64-linux-gnu/8.2.0/../../../../include/c++/8.2.0/bits/std_abs.h\""
    },
    {
      "labels": [],
      "source": null,
      "text": "        .file   32 \"/tmp/compiler-explorer-compiler1181120-2080-yfo6a1.y1o4e\" \"/opt/compiler-explorer/gcc-8.2.0/lib/gcc/x86_64-linux-gnu/8.2.0/../../../../include/c++/8.2.0/cstdlib\""
    },
    {
      "labels": [],
      "source": null,
      "text": "        .file   33 \"/tmp/compiler-explorer-compiler1181120-2080-yfo6a1.y1o4e\" \"/usr/include/x86_64-linux-gnu/bits/stdlib-float.h\""
    },
    {
      "labels": [],
      "source": null,
      "text": "        .file   34 \"/tmp/compiler-explorer-compiler1181120-2080-yfo6a1.y1o4e\" \"/usr/include/x86_64-linux-gnu/bits/stdlib-bsearch.h\""
    },
    {
      "labels": [],
      "source": null,
      "text": "        .file   35 \"/tmp/compiler-explorer-compiler1181120-2080-yfo6a1.y1o4e\" \"/usr/include/x86_64-linux-gnu/bits/types/FILE.h\""
    },
    {
      "labels": [],
      "source": null,
      "text": "        .file   36 \"/tmp/compiler-explorer-compiler1181120-2080-yfo6a1.y1o4e\" \"/opt/compiler-explorer/gcc-8.2.0/lib/gcc/x86_64-linux-gnu/8.2.0/../../../../include/c++/8.2.0/cstdio\""
    },
    {
      "labels": [],
      "source": null,
      "text": "        .file   37 \"/tmp/compiler-explorer-compiler1181120-2080-yfo6a1.y1o4e\" \"/usr/include/x86_64-linux-gnu/bits/_G_config.h\""
    },
    {
      "labels": [],
      "source": null,
      "text": "        .file   38 \"/tmp/compiler-explorer-compiler1181120-2080-yfo6a1.y1o4e\" \"/usr/include/stdio.h\""
    },
    {
      "labels": [],
      "source": null,
      "text": "        .file   39 \"/tmp/compiler-explorer-compiler1181120-2080-yfo6a1.y1o4e\" \"/usr/include/x86_64-linux-gnu/bits/stdio.h\""
    },
    {
      "labels": [
        {
          "name": "_Z6myfuncv",
          "range": {
            "endCol": 27,
            "startCol": 17
          }
        }
      ],
      "source": null,
      "text": "        .globl  _Z6myfuncv              # -- Begin function _Z6myfuncv"
    },
    {
      "labels": [],
      "source": null,
      "text": "        .p2align        4, 0x90"
    },
    {
      "labels": [
        {
          "name": "_Z6myfuncv",
          "range": {
            "endCol": 27,
            "startCol": 17
          }
        }
      ],
      "source": null,
      "text": "        .type   _Z6myfuncv,@function"
    },
    {
      "labels": [],
      "source": null,
      "text": "_Z6myfuncv:                             # @_Z6myfuncv"
    },
    {
      "labels": [],
      "source": null,
      "text": ".Lfunc_begin0:"
    },
    {
      "labels": [],
      "source": null,
      "text": "        .loc    3 9 0                   # /tmp/compiler-explorer-compiler1181120-2080-yfo6a1.y1o4e/example.cpp:9:0"
    },
    {
      "labels": [],
      "source": null,
      "text": "        .cfi_startproc"
    },
    {
      "labels": [],
      "source": null,
      "text": "        .cfi_personality 3, __gxx_personality_v0"
    },
    {
      "labels": [
        {
          "name": ".Lexception0",
          "range": {
            "endCol": 34,
            "startCol": 22
          }
        }
      ],
      "source": null,
      "text": "        .cfi_lsda 3, .Lexception0"
    },
    {
      "labels": [],
      "source": null,
      "text": "# %bb.0:"
    },
    {
      "labels": [],
      "source": {
        "file": null,
        "line": 9
      },
      "text": "        sub     rsp, 88"
    },
    {
      "labels": [],
      "source": null,
      "text": "        .cfi_def_cfa_offset 96"
    },
    {
      "labels": [],
      "source": null,
      "text": ".Ltmp3:"
    },
    {
      "labels": [],
      "source": null,
      "text": "        #DEBUG_VALUE: match:sv <- [DW_OP_LLVM_fragment 0 64] 5"
    },
    {
      "labels": [],
      "source": null,
      "text": "        #DEBUG_VALUE: match:sv <- [DW_OP_deref] undef"
    },
    {
      "labels": [],
      "source": null,
      "text": "        #DEBUG_VALUE: regex_results:this <- undef"
    },
    {
      "labels": [],
      "source": null,
      "text": "        #DEBUG_VALUE: captures:this <- undef"
    },
    {
      "labels": [],
      "source": null,
      "text": "        #DEBUG_VALUE: storage:this <- undef"
    },
    {
      "labels": [],
      "source": null,
      "text": "        .loc    4 18 12 prologue_end    # /opt/compiler-explorer/libs/ctre/master/include/ctre/return_type.hpp:18:12"
    },
    {
      "labels": [],
      "source": {
        "column": 12,
        "file": "/tmp/compiler-explorer-compiler1181120-2080-yfo6a1.y1o4e//opt/compiler-explorer/libs/ctre/master/include/ctre/return_type.hpp",
        "line": 18
      },
      "text": "        mov     byte ptr [rsp + 32], 0"
    },
    {
      "labels": [],
      "source": {
        "column": 12,
        "file": "/tmp/compiler-explorer-compiler1181120-2080-yfo6a1.y1o4e//opt/compiler-explorer/libs/ctre/master/include/ctre/return_type.hpp",
        "line": 18
      },
      "text": "        mov     qword ptr [rsp + 24], 0"
    },
    {
      "labels": [],
      "source": null,
      "text": ".Ltmp4:"
    },
    {
      "labels": [],
      "source": null,
      "text": "        .file   40 \"/tmp/compiler-explorer-compiler1181120-2080-yfo6a1.y1o4e\" \"/opt/compiler-explorer/libs/ctre/master/include/ctre/evaluation.hpp\""
    },
    {
      "labels": [],
      "source": null,
      "text": "        .loc    40 64 55                # /opt/compiler-explorer/libs/ctre/master/include/ctre/evaluation.hpp:64:55"
    },
    {
      "labels": [],
      "source": {
        "column": 55,
        "file": "/tmp/compiler-explorer-compiler1181120-2080-yfo6a1.y1o4e//opt/compiler-explorer/libs/ctre/master/include/ctre/evaluation.hpp",
        "line": 64
      },
      "text": "        mov     qword ptr [rsp + 40], offset .L.str"
    },
    {
      "labels": [],
      "source": null,
      "text": ".Ltmp5:"
    },
    {
      "labels": [],
      "source": null,
      "text": "        #DEBUG_VALUE: evaluate<ctre::regex_results<const char *>, const char *, const char *, 0, 0, ctre::any, ctre::assert_end, ctre::end_mark, ctre::accept>:begin <- undef"
    },
    {
      "labels": [],
      "source": null,
      "text": "        #DEBUG_VALUE: evaluate<ctre::regex_results<const char *>, const char *, const char *, ctre::any, ctre::assert_end, ctre::end_mark, ctre::accept>:begin <- undef"
    },
    {
      "labels": [],
      "source": null,
      "text": "        #DEBUG_VALUE: evaluate<ctre::regex_results<const char *>, const char *, const char *, ctre::star<ctre::any>, ctre::assert_end, ctre::end_mark, ctre::accept>:begin <- undef"
    },
    {
      "labels": [],
      "source": null,
      "text": "        #DEBUG_VALUE: evaluate<ctre::regex_results<const char *>, const char *, const char *, ctre::character<'h'>, ctre::sequence<ctre::star<ctre::any> >, ctre::assert_end, ctre::end_mark, ctre::accept, void>:current <- undef"
    },
    {
      "labels": [],
      "source": null,
      "text": "        #DEBUG_VALUE: evaluate<ctre::regex_results<const char *>, const char *, const char *, ctre::character<'h'>, ctre::sequence<ctre::star<ctre::any> >, ctre::assert_end, ctre::end_mark, ctre::accept, void>:begin <- undef"
    },
    {
      "labels": [],
      "source": null,
      "text": "        #DEBUG_VALUE: evaluate<ctre::regex_results<const char *>, const char *, const char *, ctre::character<'h'>, ctre::star<ctre::any> , ctre::assert_end, ctre::end_mark, ctre::accept>:current <- undef"
    },
    {
      "labels": [],
      "source": null,
      "text": "        #DEBUG_VALUE: evaluate<ctre::regex_results<const char *>, const char *, const char *, ctre::character<'h'>, ctre::star<ctre::any> , ctre::assert_end, ctre::end_mark, ctre::accept>:begin <- undef"
    },
    {
      "labels": [],
      "source": null,
      "text": "        #DEBUG_VALUE: evaluate<ctre::regex_results<const char *>, const char *, const char *, ctre::sequence<ctre::character<'h'>, ctre::star<ctre::any> >, ctre::assert_end, ctre::end_mark, ctre::accept>:captures <- [DW_OP_LLVM_fragment 0 64] undef"
    },
    {
      "labels": [],
      "source": null,
      "text": "        #DEBUG_VALUE: evaluate<ctre::regex_results<const char *>, const char *, const char *, ctre::sequence<ctre::character<'h'>, ctre::star<ctre::any> >, ctre::assert_end, ctre::end_mark, ctre::accept>:current <- undef"
    },
    {
      "labels": [],
      "source": null,
      "text": "        #DEBUG_VALUE: evaluate<ctre::regex_results<const char *>, const char *, const char *, ctre::sequence<ctre::character<'h'>, ctre::star<ctre::any> >, ctre::assert_end, ctre::end_mark, ctre::accept>:begin <- undef"
    },
    {
      "labels": [],
      "source": null,
      "text": "        #DEBUG_VALUE: match_re<const char *, const char *, ctre::sequence<ctre::character<'h'>, ctre::star<ctre::any> > >:begin <- undef"
    },
    {
      "labels": [],
      "source": null,
      "text": "        #DEBUG_VALUE: match<const char *>:begin <- undef"
    },
    {
      "labels": [],
      "source": {
        "column": 55,
        "file": "/tmp/compiler-explorer-compiler1181120-2080-yfo6a1.y1o4e//opt/compiler-explorer/libs/ctre/master/include/ctre/evaluation.hpp",
        "line": 64
      },
      "text": "        mov     rax, qword ptr [rsp + 24]"
    },
    {
      "labels": [],
      "source": {
        "column": 55,
        "file": "/tmp/compiler-explorer-compiler1181120-2080-yfo6a1.y1o4e//opt/compiler-explorer/libs/ctre/master/include/ctre/evaluation.hpp",
        "line": 64
      },
      "text": "        mov     qword ptr [rsp + 48], rax"
    },
    {
      "labels": [],
      "source": {
        "column": 55,
        "file": "/tmp/compiler-explorer-compiler1181120-2080-yfo6a1.y1o4e//opt/compiler-explorer/libs/ctre/master/include/ctre/evaluation.hpp",
        "line": 64
      },
      "text": "        mov     al, byte ptr [rsp + 32]"
    },
    {
      "labels": [],
      "source": {
        "column": 55,
        "file": "/tmp/compiler-explorer-compiler1181120-2080-yfo6a1.y1o4e//opt/compiler-explorer/libs/ctre/master/include/ctre/evaluation.hpp",
        "line": 64
      },
      "text": "        mov     byte ptr [rsp + 56], al"
    },
    {
      "labels": [],
      "source": {
        "column": 55,
        "file": "/tmp/compiler-explorer-compiler1181120-2080-yfo6a1.y1o4e//opt/compiler-explorer/libs/ctre/master/include/ctre/evaluation.hpp",
        "line": 64
      },
      "text": "        mov     eax, dword ptr [rsp + 33]"
    },
    {
      "labels": [],
      "source": {
        "column": 55,
        "file": "/tmp/compiler-explorer-compiler1181120-2080-yfo6a1.y1o4e//opt/compiler-explorer/libs/ctre/master/include/ctre/evaluation.hpp",
        "line": 64
      },
      "text": "        mov     dword ptr [rsp + 57], eax"
    },
    {
      "labels": [],
      "source": {
        "column": 55,
        "file": "/tmp/compiler-explorer-compiler1181120-2080-yfo6a1.y1o4e//opt/compiler-explorer/libs/ctre/master/include/ctre/evaluation.hpp",
        "line": 64
      },
      "text": "        movzx   eax, word ptr [rsp + 37]"
    },
    {
      "labels": [],
      "source": {
        "column": 55,
        "file": "/tmp/compiler-explorer-compiler1181120-2080-yfo6a1.y1o4e//opt/compiler-explorer/libs/ctre/master/include/ctre/evaluation.hpp",
        "line": 64
      },
      "text": "        mov     word ptr [rsp + 61], ax"
    },
    {
      "labels": [],
      "source": {
        "column": 55,
        "file": "/tmp/compiler-explorer-compiler1181120-2080-yfo6a1.y1o4e//opt/compiler-explorer/libs/ctre/master/include/ctre/evaluation.hpp",
        "line": 64
      },
      "text": "        mov     al, byte ptr [rsp + 39]"
    },
    {
      "labels": [],
      "source": {
        "column": 55,
        "file": "/tmp/compiler-explorer-compiler1181120-2080-yfo6a1.y1o4e//opt/compiler-explorer/libs/ctre/master/include/ctre/evaluation.hpp",
        "line": 64
      },
      "text": "        mov     byte ptr [rsp + 63], al"
    },
    {
      "labels": [],
      "source": null,
      "text": ".Ltmp0:"
    },
    {
      "labels": [],
      "source": null,
      "text": ".Ltmp6:"
    },
    {
      "labels": [],
      "source": null,
      "text": "        #DEBUG_VALUE: evaluate<ctre::regex_results<const char *>, const char *, const char *, 0, 0, ctre::any, ctre::assert_end, ctre::end_mark, ctre::accept>:i <- 0"
    },
    {
      "labels": [],
      "source": null,
      "text": "        .loc    40 267 9                # /opt/compiler-explorer/libs/ctre/master/include/ctre/evaluation.hpp:267:9"
    },
    {
      "labels": [],
      "source": {
        "column": 9,
        "file": "/tmp/compiler-explorer-compiler1181120-2080-yfo6a1.y1o4e//opt/compiler-explorer/libs/ctre/master/include/ctre/evaluation.hpp",
        "line": 267
      },
      "text": "        mov     rax, qword ptr [rsp + 56]"
    },
    {
      "labels": [],
      "source": {
        "column": 9,
        "file": "/tmp/compiler-explorer-compiler1181120-2080-yfo6a1.y1o4e//opt/compiler-explorer/libs/ctre/master/include/ctre/evaluation.hpp",
        "line": 267
      },
      "text": "        mov     qword ptr [rsp + 16], rax"
    },
    {
      "labels": [],
      "source": {
        "column": 9,
        "file": "/tmp/compiler-explorer-compiler1181120-2080-yfo6a1.y1o4e//opt/compiler-explorer/libs/ctre/master/include/ctre/evaluation.hpp",
        "line": 267
      },
      "text": "        movups  xmm0, xmmword ptr [rsp + 40]"
    },
    {
      "labels": [],
      "source": {
        "column": 9,
        "file": "/tmp/compiler-explorer-compiler1181120-2080-yfo6a1.y1o4e//opt/compiler-explorer/libs/ctre/master/include/ctre/evaluation.hpp",
        "line": 267
      },
      "text": "        movups  xmmword ptr [rsp], xmm0"
    },
    {
      "labels": [],
      "source": {
        "column": 9,
        "file": "/tmp/compiler-explorer-compiler1181120-2080-yfo6a1.y1o4e//opt/compiler-explorer/libs/ctre/master/include/ctre/evaluation.hpp",
        "line": 267
      },
      "text": "        lea     rdi, [rsp + 64]"
    },
    {
      "labels": [],
      "source": null,
      "text": ".Ltmp7:"
    },
    {
      "labels": [],
      "source": null,
      "text": "        #DEBUG_VALUE: evaluate<ctre::regex_results<const char *>, const char *, const char *, 0, 0, ctre::any, ctre::assert_end, ctre::end_mark, ctre::accept>:end <- undef"
    },
    {
      "labels": [],
      "source": null,
      "text": "        #DEBUG_VALUE: evaluate<ctre::regex_results<const char *>, const char *, const char *, ctre::any, ctre::assert_end, ctre::end_mark, ctre::accept>:end <- undef"
    },
    {
      "labels": [],
      "source": null,
      "text": "        #DEBUG_VALUE: evaluate<ctre::regex_results<const char *>, const char *, const char *, ctre::star<ctre::any>, ctre::assert_end, ctre::end_mark, ctre::accept>:end <- undef"
    },
    {
      "labels": [],
      "source": null,
      "text": "        #DEBUG_VALUE: evaluate<ctre::regex_results<const char *>, const char *, const char *, ctre::character<'h'>, ctre::sequence<ctre::star<ctre::any> >, ctre::assert_end, ctre::end_mark, ctre::accept, void>:end <- undef"
    },
    {
      "labels": [],
      "source": null,
      "text": "        #DEBUG_VALUE: evaluate<ctre::regex_results<const char *>, const char *, const char *, ctre::character<'h'>, ctre::star<ctre::any> , ctre::assert_end, ctre::end_mark, ctre::accept>:end <- undef"
    },
    {
      "labels": [],
      "source": null,
      "text": "        #DEBUG_VALUE: evaluate<ctre::regex_results<const char *>, const char *, const char *, ctre::sequence<ctre::character<'h'>, ctre::star<ctre::any> >, ctre::assert_end, ctre::end_mark, ctre::accept>:end <- undef"
    },
    {
      "labels": [],
      "source": null,
      "text": "        #DEBUG_VALUE: match_re<const char *, const char *, ctre::sequence<ctre::character<'h'>, ctre::star<ctre::any> > >:end <- undef"
    },
    {
      "labels": [],
      "source": null,
      "text": "        #DEBUG_VALUE: evaluate<ctre::regex_results<const char *>, const char *, const char *, 0, 0, ctre::any, ctre::assert_end, ctre::end_mark, ctre::accept>:current <- undef"
    },
    {
      "labels": [],
      "source": null,
      "text": "        #DEBUG_VALUE: evaluate<ctre::regex_results<const char *>, const char *, const char *, ctre::any, ctre::assert_end, ctre::end_mark, ctre::accept>:current <- undef"
    },
    {
      "labels": [],
      "source": {
        "column": 9,
        "file": "/tmp/compiler-explorer-compiler1181120-2080-yfo6a1.y1o4e//opt/compiler-explorer/libs/ctre/master/include/ctre/evaluation.hpp",
        "line": 267
      },
      "text": "        xor     esi, esi"
    },
    {
      "labels": [],
      "source": {
        "column": 9,
        "file": "/tmp/compiler-explorer-compiler1181120-2080-yfo6a1.y1o4e//opt/compiler-explorer/libs/ctre/master/include/ctre/evaluation.hpp",
        "line": 267
      },
      "text": "        mov     edx, offset .L.str"
    },
    {
      "labels": [],
      "source": null,
      "text": ".Ltmp8:"
    },
    {
      "labels": [],
      "source": null,
      "text": "        #DEBUG_VALUE: match:sv <- [DW_OP_LLVM_fragment 64 64] $rdx"
    },
    {
      "labels": [],
      "source": {
        "column": 9,
        "file": "/tmp/compiler-explorer-compiler1181120-2080-yfo6a1.y1o4e//opt/compiler-explorer/libs/ctre/master/include/ctre/evaluation.hpp",
        "line": 267
      },
      "text": "        mov     ecx, offset .L.str+1"
    },
    {
      "labels": [],
      "source": null,
      "text": ".Ltmp9:"
    },
    {
      "labels": [],
      "source": null,
      "text": "        #DEBUG_VALUE: evaluate<ctre::regex_results<const char *>, const char *, const char *, ctre::star<ctre::any>, ctre::assert_end, ctre::end_mark, ctre::accept>:current <- $rcx"
    },
    {
      "labels": [],
      "source": {
        "column": 9,
        "file": "/tmp/compiler-explorer-compiler1181120-2080-yfo6a1.y1o4e//opt/compiler-explorer/libs/ctre/master/include/ctre/evaluation.hpp",
        "line": 267
      },
      "text": "        mov     r8d, offset .L.str+5"
    },
    {
      "labels": [],
      "source": null,
      "text": ".Ltmp10:"
    },
    {
      "labels": [],
      "source": null,
      "text": "        #DEBUG_VALUE: match<const char *>:end <- $r8"
    },
    {
      "labels": [
        {
          "name": "_ZN4ctre18evaluate_recursiveINS_13regex_resultsIPKcJEEES3_S3_Lm0ELm0EJNS_3anyEEJNS_10assert_endENS_8end_markENS_6acceptEEEET_mT0_SA_T1_S9_N4ctll4listIJNS_6repeatIXT2_EXT3_EJDpT4_EEEDpT5_EEE",
          "range": {
            "endCol": 206,
            "startCol": 17
          }
        }
      ],
      "source": {
        "column": 9,
        "file": "/tmp/compiler-explorer-compiler1181120-2080-yfo6a1.y1o4e//opt/compiler-explorer/libs/ctre/master/include/ctre/evaluation.hpp",
        "line": 267
      },
      "text": "        call    _ZN4ctre18evaluate_recursiveINS_13regex_resultsIPKcJEEES3_S3_Lm0ELm0EJNS_3anyEEJNS_10assert_endENS_8end_markENS_6acceptEEEET_mT0_SA_T1_S9_N4ctll4listIJNS_6repeatIXT2_EXT3_EJDpT4_EEEDpT5_EEE"
    },
    {
      "labels": [],
      "source": null,
      "text": ".Ltmp11:"
    },
    {
      "labels": [],
      "source": null,
      "text": ".Ltmp1:"
    },
    {
      "labels": [],
      "source": null,
      "text": "# %bb.1:"
    },
    {
      "labels": [],
      "source": null,
      "text": "        .loc    3 11 1                  # /tmp/compiler-explorer-compiler1181120-2080-yfo6a1.y1o4e/example.cpp:11:1"
    },
    {
      "labels": [],
      "source": {
        "column": 1,
        "file": null,
        "line": 11
      },
      "text": "        add     rsp, 88"
    },
    {
      "labels": [],
      "source": null,
      "text": "        .cfi_def_cfa_offset 8"
    },
    {
      "labels": [],
      "source": {
        "column": 1,
        "file": null,
        "line": 11
      },
      "text": "        ret"
    },
    {
      "labels": [],
      "source": null,
      "text": ".LBB0_2:"
    },
    {
      "labels": [],
      "source": null,
      "text": "        .cfi_def_cfa_offset 96"
    },
    {
      "labels": [],
      "source": null,
      "text": ".Ltmp2:"
    },
    {
      "labels": [],
      "source": null,
      "text": ".Ltmp12:"
    },
    {
      "labels": [],
      "source": null,
      "text": "        .loc    40 298 9                # /opt/compiler-explorer/libs/ctre/master/include/ctre/evaluation.hpp:298:9"
    },
    {
      "labels": [],
      "source": {
        "column": 9,
        "file": "/tmp/compiler-explorer-compiler1181120-2080-yfo6a1.y1o4e//opt/compiler-explorer/libs/ctre/master/include/ctre/evaluation.hpp",
        "line": 298
      },
      "text": "        mov     rdi, rax"
    },
    {
      "labels": [
        {
          "name": "__clang_call_terminate",
          "range": {
            "endCol": 39,
            "startCol": 17
          }
        }
      ],
      "source": {
        "column": 9,
        "file": "/tmp/compiler-explorer-compiler1181120-2080-yfo6a1.y1o4e//opt/compiler-explorer/libs/ctre/master/include/ctre/evaluation.hpp",
        "line": 298
      },
      "text": "        call    __clang_call_terminate"
    },
    {
      "labels": [],
      "source": null,
      "text": ".Ltmp13:"
    },
    {
      "labels": [],
      "source": null,
      "text": ".Lfunc_end0:"
    },
    {
      "labels": [
        {
          "name": "_Z6myfuncv",
          "range": {
            "endCol": 27,
            "startCol": 17
          }
        },
        {
          "name": ".Lfunc_end0",
          "range": {
            "endCol": 40,
            "startCol": 29
          }
        },
        {
          "name": "_Z6myfuncv",
          "range": {
            "endCol": 51,
            "startCol": 41
          }
        }
      ],
      "source": null,
      "text": "        .size   _Z6myfuncv, .Lfunc_end0-_Z6myfuncv"
    },
    {
      "labels": [],
      "source": null,
      "text": "        .cfi_endproc"
    },
    {
      "labels": [],
      "source": null,
      "text": "        .file   41 \"/tmp/compiler-explorer-compiler1181120-2080-yfo6a1.y1o4e\" \"/opt/compiler-explorer/gcc-8.2.0/lib/gcc/x86_64-linux-gnu/8.2.0/../../../../include/c++/8.2.0/string_view\""
    },
    {
      "labels": [],
      "source": null,
      "text": "        .file   42 \"/tmp/compiler-explorer-compiler1181120-2080-yfo6a1.y1o4e\" \"/opt/compiler-explorer/gcc-8.2.0/lib/gcc/x86_64-linux-gnu/8.2.0/../../../../include/c++/8.2.0/bits/char_traits.h\""
    },
    {
      "labels": [],
      "source": null,
      "text": "        .file   43 \"/tmp/compiler-explorer-compiler1181120-2080-yfo6a1.y1o4e\" \"/opt/compiler-explorer/libs/ctre/master/include/ctll/list.hpp\""
    },
    {
      "labels": [],
      "source": null,
      "text": "        .section        .gcc_except_table,\"a\",@progbits"
    },
    {
      "labels": [],
      "source": null,
      "text": "        .p2align        2"
    },
    {
      "labels": [],
      "source": null,
      "text": "GCC_except_table0:"
    },
    {
      "labels": [],
      "source": null,
      "text": ".Lexception0:"
    },
    {
      "labels": [],
      "source": null,
      "text": "        .byte   255                     # @LPStart Encoding = omit"
    },
    {
      "labels": [],
      "source": null,
      "text": "        .byte   3                       # @TType Encoding = udata4"
    },
    {
      "labels": [
        {
          "name": ".Lttbase0",
          "range": {
            "endCol": 27,
            "startCol": 18
          }
        },
        {
          "name": ".Lttbaseref0",
          "range": {
            "endCol": 40,
            "startCol": 28
          }
        }
      ],
      "source": null,
      "text": "        .uleb128 .Lttbase0-.Lttbaseref0"
    },
    {
      "labels": [],
      "source": null,
      "text": ".Lttbaseref0:"
    },
    {
      "labels": [],
      "source": null,
      "text": "        .byte   1                       # Call site Encoding = uleb128"
    },
    {
      "labels": [
        {
          "name": ".Lcst_end0",
          "range": {
            "endCol": 28,
            "startCol": 18
          }
        },
        {
          "name": ".Lcst_begin0",
          "range": {
            "endCol": 41,
            "startCol": 29
          }
        }
      ],
      "source": null,
      "text": "        .uleb128 .Lcst_end0-.Lcst_begin0"
    },
    {
      "labels": [],
      "source": null,
      "text": ".Lcst_begin0:"
    },
    {
      "labels": [
        {
          "name": ".Ltmp0",
          "range": {
            "endCol": 24,
            "startCol": 18
          }
        },
        {
          "name": ".Lfunc_begin0",
          "range": {
            "endCol": 38,
            "startCol": 25
          }
        }
      ],
      "source": null,
      "text": "        .uleb128 .Ltmp0-.Lfunc_begin0   # >> Call Site 1 <<"
    },
    {
      "labels": [
        {
          "name": ".Ltmp1",
          "range": {
            "endCol": 24,
            "startCol": 18
          }
        },
        {
          "name": ".Ltmp0",
          "range": {
            "endCol": 31,
            "startCol": 25
          }
        }
      ],
      "source": null,
      "text": "        .uleb128 .Ltmp1-.Ltmp0          #   Call between .Ltmp0 and .Ltmp1"
    },
    {
      "labels": [
        {
          "name": ".Ltmp2",
          "range": {
            "endCol": 24,
            "startCol": 18
          }
        },
        {
          "name": ".Lfunc_begin0",
          "range": {
            "endCol": 38,
            "startCol": 25
          }
        }
      ],
      "source": null,
      "text": "        .uleb128 .Ltmp2-.Lfunc_begin0   #     jumps to .Ltmp2"
    },
    {
      "labels": [],
      "source": null,
      "text": "        .byte   1                       #   On action: 1"
    },
    {
      "labels": [],
      "source": null,
      "text": ".Lcst_end0:"
    },
    {
      "labels": [],
      "source": null,
      "text": "        .byte   1                       # >> Action Record 1 <<"
    },
    {
      "labels": [],
      "source": null,
      "text": "                                        #   Catch TypeInfo 1"
    },
    {
      "labels": [],
      "source": null,
      "text": "        .byte   0                       #   No further actions"
    },
    {
      "labels": [],
      "source": null,
      "text": "        .p2align        2"
    },
    {
      "labels": [],
      "source": null,
      "text": "                                        # >> Catch TypeInfos <<"
    },
    {
      "labels": [],
      "source": null,
      "text": "        .long   0                       # TypeInfo 1"
    },
    {
      "labels": [],
      "source": null,
      "text": ".Lttbase0:"
    },
    {
      "labels": [],
      "source": null,
      "text": "        .p2align        2"
    },
    {
      "labels": [],
      "source": null,
      "text": "                                        # -- End function"
    },
    {
      "labels": [
        {
          "name": "__clang_call_terminate",
          "range": {
            "endCol": 92,
            "startCol": 70
          }
        }
      ],
      "source": null,
      "text": "        .section        .text.__clang_call_terminate,\"axG\",@progbits,__clang_call_terminate,comdat"
    },
    {
      "labels": [
        {
          "name": "__clang_call_terminate",
          "range": {
            "endCol": 39,
            "startCol": 17
          }
        }
      ],
      "source": null,
      "text": "        .hidden __clang_call_terminate  # -- Begin function __clang_call_terminate"
    },
    {
      "labels": [
        {
          "name": "__clang_call_terminate",
          "range": {
            "endCol": 39,
            "startCol": 17
          }
        }
      ],
      "source": null,
      "text": "        .weak   __clang_call_terminate"
    },
    {
      "labels": [],
      "source": null,
      "text": "        .p2align        4, 0x90"
    },
    {
      "labels": [
        {
          "name": "__clang_call_terminate",
          "range": {
            "endCol": 39,
            "startCol": 17
          }
        }
      ],
      "source": null,
      "text": "        .type   __clang_call_terminate,@function"
    },
    {
      "labels": [],
      "source": null,
      "text": "__clang_call_terminate:                 # @__clang_call_terminate"
    },
    {
      "labels": [],
      "source": null,
      "text": ".Lfunc_begin1:"
    },
    {
      "labels": [],
      "source": null,
      "text": "        .cfi_startproc"
    },
    {
      "labels": [],
      "source": null,
      "text": "# %bb.0:"
    },
    {
      "labels": [],
      "source": null,
      "text": "        push    rax"
    },
    {
      "labels": [],
      "source": null,
      "text": "        .cfi_def_cfa_offset 16"
    },
    {
      "labels": [],
      "source": null,
      "text": "        call    __cxa_begin_catch"
    },
    {
      "labels": [],
      "source": null,
      "text": "        call    _ZSt9terminatev"
    },
    {
      "labels": [],
      "source": null,
      "text": ".Lfunc_end1:"
    },
    {
      "labels": [
        {
          "name": "__clang_call_terminate",
          "range": {
            "endCol": 39,
            "startCol": 17
          }
        },
        {
          "name": ".Lfunc_end1",
          "range": {
            "endCol": 52,
            "startCol": 41
          }
        },
        {
          "name": "__clang_call_terminate",
          "range": {
            "endCol": 75,
            "startCol": 53
          }
        }
      ],
      "source": null,
      "text": "        .size   __clang_call_terminate, .Lfunc_end1-__clang_call_terminate"
    },
    {
      "labels": [],
      "source": null,
      "text": "        .cfi_endproc"
    },
    {
      "labels": [],
      "source": null,
      "text": "                                        # -- End function"
    },
    {
      "labels": [
        {
          "name": "_ZN4ctre18evaluate_recursiveINS_13regex_resultsIPKcJEEES3_S3_Lm0ELm0EJNS_3anyEEJNS_10assert_endENS_8end_markENS_6acceptEEEET_mT0_SA_T1_S9_N4ctll4listIJNS_6repeatIXT2_EXT3_EJDpT4_EEEDpT5_EEE",
          "range": {
            "endCol": 426,
            "startCol": 237
          }
        }
      ],
      "source": null,
      "text": "        .section        .text._ZN4ctre18evaluate_recursiveINS_13regex_resultsIPKcJEEES3_S3_Lm0ELm0EJNS_3anyEEJNS_10assert_endENS_8end_markENS_6acceptEEEET_mT0_SA_T1_S9_N4ctll4listIJNS_6repeatIXT2_EXT3_EJDpT4_EEEDpT5_EEE,\"axG\",@progbits,_ZN4ctre18evaluate_recursiveINS_13regex_resultsIPKcJEEES3_S3_Lm0ELm0EJNS_3anyEEJNS_10assert_endENS_8end_markENS_6acceptEEEET_mT0_SA_T1_S9_N4ctll4listIJNS_6repeatIXT2_EXT3_EJDpT4_EEEDpT5_EEE,comdat"
    },
    {
      "labels": [
        {
          "name": "_ZN4ctre18evaluate_recursiveINS_13regex_resultsIPKcJEEES3_S3_Lm0ELm0EJNS_3anyEEJNS_10assert_endENS_8end_markENS_6acceptEEEET_mT0_SA_T1_S9_N4ctll4listIJNS_6repeatIXT2_EXT3_EJDpT4_EEEDpT5_EEE",
          "range": {
            "endCol": 206,
            "startCol": 17
          }
        }
      ],
      "source": null,
      "text": "        .weak   _ZN4ctre18evaluate_recursiveINS_13regex_resultsIPKcJEEES3_S3_Lm0ELm0EJNS_3anyEEJNS_10assert_endENS_8end_markENS_6acceptEEEET_mT0_SA_T1_S9_N4ctll4listIJNS_6repeatIXT2_EXT3_EJDpT4_EEEDpT5_EEE # -- Begin function _ZN4ctre18evaluate_recursiveINS_13regex_resultsIPKcJEEES3_S3_Lm0ELm0EJNS_3anyEEJNS_10assert_endENS_8end_markENS_6acceptEEEET_mT0_SA_T1_S9_N4ctll4listIJNS_6repeatIXT2_EXT3_EJDpT4_EEEDpT5_EEE"
    },
    {
      "labels": [],
      "source": null,
      "text": "        .p2align        4, 0x90"
    },
    {
      "labels": [
        {
          "name": "_ZN4ctre18evaluate_recursiveINS_13regex_resultsIPKcJEEES3_S3_Lm0ELm0EJNS_3anyEEJNS_10assert_endENS_8end_markENS_6acceptEEEET_mT0_SA_T1_S9_N4ctll4listIJNS_6repeatIXT2_EXT3_EJDpT4_EEEDpT5_EEE",
          "range": {
            "endCol": 206,
            "startCol": 17
          }
        }
      ],
      "source": null,
      "text": "        .type   _ZN4ctre18evaluate_recursiveINS_13regex_resultsIPKcJEEES3_S3_Lm0ELm0EJNS_3anyEEJNS_10assert_endENS_8end_markENS_6acceptEEEET_mT0_SA_T1_S9_N4ctll4listIJNS_6repeatIXT2_EXT3_EJDpT4_EEEDpT5_EEE,@function"
    },
    {
      "labels": [],
      "source": null,
      "text": "_ZN4ctre18evaluate_recursiveINS_13regex_resultsIPKcJEEES3_S3_Lm0ELm0EJNS_3anyEEJNS_10assert_endENS_8end_markENS_6acceptEEEET_mT0_SA_T1_S9_N4ctll4listIJNS_6repeatIXT2_EXT3_EJDpT4_EEEDpT5_EEE: # @_ZN4ctre18evaluate_recursiveINS_13regex_resultsIPKcJEEES3_S3_Lm0ELm0EJNS_3anyEEJNS_10assert_endENS_8end_markENS_6acceptEEEET_mT0_SA_T1_S9_N4ctll4listIJNS_6repeatIXT2_EXT3_EJDpT4_EEEDpT5_EEE"
    },
    {
      "labels": [],
      "source": null,
      "text": ".Lfunc_begin2:"
    },
    {
      "labels": [],
      "source": null,
      "text": "        .loc    40 235 0                # /opt/compiler-explorer/libs/ctre/master/include/ctre/evaluation.hpp:235:0"
    },
    {
      "labels": [],
      "source": null,
      "text": "        .cfi_startproc"
    },
    {
      "labels": [],
      "source": null,
      "text": "# %bb.0:"
    },
    {
      "labels": [],
      "source": {
        "file": "/tmp/compiler-explorer-compiler1181120-2080-yfo6a1.y1o4e//opt/compiler-explorer/libs/ctre/master/include/ctre/evaluation.hpp",
        "line": 235
      },
      "text": "        push    rbx"
    },
    {
      "labels": [],
      "source": null,
      "text": "        .cfi_def_cfa_offset 16"
    },
    {
      "labels": [],
      "source": {
        "file": "/tmp/compiler-explorer-compiler1181120-2080-yfo6a1.y1o4e//opt/compiler-explorer/libs/ctre/master/include/ctre/evaluation.hpp",
        "line": 235
      },
      "text": "        sub     rsp, 80"
    },
    {
      "labels": [],
      "source": null,
      "text": "        .cfi_def_cfa_offset 96"
    },
    {
      "labels": [],
      "source": null,
      "text": "        .cfi_offset rbx, -16"
    },
    {
      "labels": [],
      "source": null,
      "text": "        #DEBUG_VALUE: evaluate_recursive<ctre::regex_results<const char *>, const char *, const char *, 0, 0, ctre::any, ctre::assert_end, ctre::end_mark, ctre::accept>:i <- $rsi"
    },
    {
      "labels": [],
      "source": null,
      "text": "        #DEBUG_VALUE: evaluate_recursive<ctre::regex_results<const char *>, const char *, const char *, 0, 0, ctre::any, ctre::assert_end, ctre::end_mark, ctre::accept>:begin <- $rdx"
    },
    {
      "labels": [],
      "source": null,
      "text": "        #DEBUG_VALUE: evaluate_recursive<ctre::regex_results<const char *>, const char *, const char *, 0, 0, ctre::any, ctre::assert_end, ctre::end_mark, ctre::accept>:current <- $rcx"
    },
    {
      "labels": [],
      "source": null,
      "text": "        #DEBUG_VALUE: evaluate_recursive<ctre::regex_results<const char *>, const char *, const char *, 0, 0, ctre::any, ctre::assert_end, ctre::end_mark, ctre::accept>:end <- $r8"
    },
    {
      "labels": [],
      "source": null,
      "text": ".Ltmp14:"
    },
    {
      "labels": [],
      "source": null,
      "text": "        #DEBUG_VALUE: evaluate<ctre::regex_results<const char *>, const char *, const char *, ctre::any, ctre::end_cycle_mark>:begin <- $rdx"
    },
    {
      "labels": [],
      "source": null,
      "text": "        #DEBUG_VALUE: evaluate<ctre::regex_results<const char *>, const char *, const char *, ctre::any, ctre::end_cycle_mark>:current <- $rcx"
    },
    {
      "labels": [],
      "source": null,
      "text": "        #DEBUG_VALUE: evaluate<ctre::regex_results<const char *>, const char *, const char *, ctre::any, ctre::end_cycle_mark>:end <- $r8"
    },
    {
      "labels": [],
      "source": null,
      "text": "        #DEBUG_VALUE: evaluate<ctre::regex_results<const char *>, const char *, const char *, ctre::any, ctre::end_cycle_mark, void>:begin <- $rdx"
    },
    {
      "labels": [],
      "source": null,
      "text": "        #DEBUG_VALUE: evaluate<ctre::regex_results<const char *>, const char *, const char *, ctre::any, ctre::end_cycle_mark, void>:current <- $rcx"
    },
    {
      "labels": [],
      "source": null,
      "text": "        #DEBUG_VALUE: evaluate<ctre::regex_results<const char *>, const char *, const char *, ctre::any, ctre::end_cycle_mark, void>:end <- $r8"
    },
    {
      "labels": [],
      "source": null,
      "text": "        #DEBUG_VALUE: evaluate<ctre::regex_results<const char *>, const char *, const char *>: <- $rdx"
    },
    {
      "labels": [],
      "source": null,
      "text": "        #DEBUG_VALUE: evaluate<ctre::regex_results<const char *>, const char *, const char *>: <- $rdx"
    },
    {
      "labels": [],
      "source": null,
      "text": "        #DEBUG_VALUE: evaluate<ctre::regex_results<const char *>, const char *, const char *>: <- $r8"
    },
    {
      "labels": [],
      "source": null,
      "text": "        #DEBUG_VALUE: evaluate<ctre::regex_results<const char *>, const char *, const char *>: <- $r8"
    },
    {
      "labels": [],
      "source": null,
      "text": "        #DEBUG_VALUE: operator bool:this <- $rdi"
    },
    {
      "labels": [],
      "source": null,
      "text": "        #DEBUG_VALUE: operator bool:this <- $rdi"
    },
    {
      "labels": [],
      "source": null,
      "text": "        #DEBUG_VALUE: regex_results:this <- $rdi"
    },
    {
      "labels": [],
      "source": null,
      "text": "        #DEBUG_VALUE: captures:this <- $rdi"
    },
    {
      "labels": [],
      "source": null,
      "text": "        #DEBUG_VALUE: storage:this <- $rdi"
    },
    {
      "labels": [],
      "source": null,
      "text": "        #DEBUG_VALUE: evaluate<ctre::regex_results<const char *>, const char *, const char *, ctre::end_mark, ctre::accept>:captures <- [DW_OP_plus_uconst 96, DW_OP_plus_uconst 16, DW_OP_deref, DW_OP_stack_value, DW_OP_LLVM_fragment 128 64] [$rsp+0]"
    },
    {
      "labels": [],
      "source": null,
      "text": "        #DEBUG_VALUE: evaluate<ctre::regex_results<const char *>, const char *, const char *, ctre::end_mark, ctre::accept>:end <- $r8"
    },
    {
      "labels": [],
      "source": null,
      "text": "        #DEBUG_VALUE: evaluate<ctre::regex_results<const char *>, const char *, const char *, ctre::end_mark, ctre::accept>:end <- $r8"
    },
    {
      "labels": [],
      "source": null,
      "text": "        #DEBUG_VALUE: evaluate<ctre::regex_results<const char *>, const char *, const char *, ctre::accept>:end <- $r8"
    },
    {
      "labels": [],
      "source": null,
      "text": "        #DEBUG_VALUE: evaluate<ctre::regex_results<const char *>, const char *, const char *, ctre::accept>:end <- $r8"
    },
    {
      "labels": [],
      "source": {
        "file": "/tmp/compiler-explorer-compiler1181120-2080-yfo6a1.y1o4e//opt/compiler-explorer/libs/ctre/master/include/ctre/evaluation.hpp",
        "line": 235
      },
      "text": "        mov     rbx, rdi"
    },
    {
      "labels": [],
      "source": null,
      "text": ".Ltmp15:"
    },
    {
      "labels": [],
      "source": null,
      "text": "        #DEBUG_VALUE: rec_result <- [$rbx+0]"
    },
    {
      "labels": [],
      "source": null,
      "text": "        #DEBUG_VALUE: storage:this <- $rbx"
    },
    {
      "labels": [],
      "source": null,
      "text": "        #DEBUG_VALUE: captures:this <- $rbx"
    },
    {
      "labels": [],
      "source": null,
      "text": "        #DEBUG_VALUE: regex_results:this <- $rbx"
    },
    {
      "labels": [],
      "source": null,
      "text": "        #DEBUG_VALUE: operator bool:this <- $rbx"
    },
    {
      "labels": [],
      "source": null,
      "text": "        #DEBUG_VALUE: operator bool:this <- $rbx"
    },
    {
      "labels": [],
      "source": null,
      "text": "        #DEBUG_VALUE: evaluate_recursive<ctre::regex_results<const char *>, const char *, const char *, 0, 0, ctre::any, ctre::assert_end, ctre::end_mark, ctre::accept>:end <- $r8"
    },
    {
      "labels": [],
      "source": null,
      "text": "        #DEBUG_VALUE: evaluate_recursive<ctre::regex_results<const char *>, const char *, const char *, 0, 0, ctre::any, ctre::assert_end, ctre::end_mark, ctre::accept>:current <- $rcx"
    },
    {
      "labels": [],
      "source": null,
      "text": "        #DEBUG_VALUE: evaluate_recursive<ctre::regex_results<const char *>, const char *, const char *, 0, 0, ctre::any, ctre::assert_end, ctre::end_mark, ctre::accept>:begin <- $rdx"
    },
    {
      "labels": [],
      "source": null,
      "text": "        #DEBUG_VALUE: evaluate_recursive<ctre::regex_results<const char *>, const char *, const char *, 0, 0, ctre::any, ctre::assert_end, ctre::end_mark, ctre::accept>:i <- $rsi"
    },
    {
      "labels": [],
      "source": null,
      "text": "        .loc    40 241 57 prologue_end  # /opt/compiler-explorer/libs/ctre/master/include/ctre/evaluation.hpp:241:57"
    },
    {
      "labels": [],
      "source": {
        "column": 57,
        "file": "/tmp/compiler-explorer-compiler1181120-2080-yfo6a1.y1o4e//opt/compiler-explorer/libs/ctre/master/include/ctre/evaluation.hpp",
        "line": 241
      },
      "text": "        mov     rdi, qword ptr [rsp + 96]"
    },
    {
      "labels": [],
      "source": null,
      "text": ".Ltmp16:"
    },
    {
      "labels": [],
      "source": null,
      "text": "        #DEBUG_VALUE: inner_result <- [DW_OP_deref] undef"
    },
    {
      "labels": [],
      "source": null,
      "text": "        #DEBUG_VALUE: evaluate<ctre::regex_results<const char *>, const char *, const char *, ctre::any, ctre::end_cycle_mark>:captures <- [DW_OP_LLVM_fragment 0 64] $rdi"
    },
    {
      "labels": [],
      "source": null,
      "text": "        #DEBUG_VALUE: evaluate<ctre::regex_results<const char *>, const char *, const char *, ctre::any, ctre::end_cycle_mark, void>:captures <- [DW_OP_LLVM_fragment 0 64] $rdi"
    },
    {
      "labels": [],
      "source": null,
      "text": "        #DEBUG_VALUE: evaluate<ctre::regex_results<const char *>, const char *, const char *, ctre::end_mark, ctre::accept>:captures <- [DW_OP_LLVM_fragment 0 64] $rdi"
    },
    {
      "labels": [],
      "source": null,
      "text": "        #DEBUG_VALUE: evaluate<ctre::regex_results<const char *>, const char *, const char *, ctre::any, ctre::end_cycle_mark, void>:end <- $r8"
    },
    {
      "labels": [],
      "source": null,
      "text": "        #DEBUG_VALUE: evaluate<ctre::regex_results<const char *>, const char *, const char *, ctre::any, ctre::end_cycle_mark, void>:current <- $rcx"
    },
    {
      "labels": [],
      "source": null,
      "text": "        #DEBUG_VALUE: evaluate<ctre::regex_results<const char *>, const char *, const char *, ctre::any, ctre::end_cycle_mark, void>:begin <- $rdx"
    },
    {
      "labels": [],
      "source": null,
      "text": "        #DEBUG_VALUE: evaluate<ctre::regex_results<const char *>, const char *, const char *, ctre::any, ctre::end_cycle_mark>:end <- $r8"
    },
    {
      "labels": [],
      "source": null,
      "text": "        #DEBUG_VALUE: evaluate<ctre::regex_results<const char *>, const char *, const char *, ctre::any, ctre::end_cycle_mark>:current <- $rcx"
    },
    {
      "labels": [],
      "source": null,
      "text": "        #DEBUG_VALUE: evaluate<ctre::regex_results<const char *>, const char *, const char *, ctre::any, ctre::end_cycle_mark>:begin <- $rdx"
    },
    {
      "labels": [],
      "source": null,
      "text": "        .loc    40 64 55                # /opt/compiler-explorer/libs/ctre/master/include/ctre/evaluation.hpp:64:55"
    },
    {
      "labels": [],
      "source": {
        "column": 55,
        "file": "/tmp/compiler-explorer-compiler1181120-2080-yfo6a1.y1o4e//opt/compiler-explorer/libs/ctre/master/include/ctre/evaluation.hpp",
        "line": 64
      },
      "text": "        movups  xmm0, xmmword ptr [rsp + 104]"
    },
    {
      "labels": [],
      "source": {
        "column": 55,
        "file": "/tmp/compiler-explorer-compiler1181120-2080-yfo6a1.y1o4e//opt/compiler-explorer/libs/ctre/master/include/ctre/evaluation.hpp",
        "line": 64
      },
      "text": "        movaps  xmmword ptr [rsp + 64], xmm0"
    },
    {
      "labels": [],
      "source": null,
      "text": ".Ltmp17:"
    },
    {
      "labels": [],
      "source": null,
      "text": "        .loc    40 65 10                # /opt/compiler-explorer/libs/ctre/master/include/ctre/evaluation.hpp:65:10"
    },
    {
      "labels": [],
      "source": {
        "column": 10,
        "file": "/tmp/compiler-explorer-compiler1181120-2080-yfo6a1.y1o4e//opt/compiler-explorer/libs/ctre/master/include/ctre/evaluation.hpp",
        "line": 65
      },
      "text": "        cmp     r8, rcx"
    },
    {
      "labels": [],
      "source": null,
      "text": ".Ltmp18:"
    },
    {
      "labels": [],
      "source": null,
      "text": "        .loc    40 65 6 is_stmt 0       # /opt/compiler-explorer/libs/ctre/master/include/ctre/evaluation.hpp:65:6"
    },
    {
      "labels": [
        {
          "name": ".LBB2_3",
          "range": {
            "endCol": 24,
            "startCol": 17
          }
        }
      ],
      "source": {
        "column": 6,
        "file": "/tmp/compiler-explorer-compiler1181120-2080-yfo6a1.y1o4e//opt/compiler-explorer/libs/ctre/master/include/ctre/evaluation.hpp",
        "line": 65
      },
      "text": "        je      .LBB2_3"
    },
    {
      "labels": [],
      "source": null,
      "text": ".Ltmp19:"
    },
    {
      "labels": [],
      "source": null,
      "text": "# %bb.1:"
    },
    {
      "labels": [],
      "source": null,
      "text": "        #DEBUG_VALUE: evaluate<ctre::regex_results<const char *>, const char *, const char *, ctre::any, ctre::end_cycle_mark, void>:captures <- [DW_OP_LLVM_fragment 0 64] $rdi"
    },
    {
      "labels": [],
      "source": null,
      "text": "        #DEBUG_VALUE: evaluate<ctre::regex_results<const char *>, const char *, const char *, ctre::any, ctre::end_cycle_mark>:captures <- [DW_OP_LLVM_fragment 0 64] $rdi"
    },
    {
      "labels": [],
      "source": null,
      "text": "        #DEBUG_VALUE: operator bool:this <- $rbx"
    },
    {
      "labels": [],
      "source": null,
      "text": "        #DEBUG_VALUE: operator bool:this <- $rbx"
    },
    {
      "labels": [],
      "source": null,
      "text": "        #DEBUG_VALUE: rec_result <- [$rbx+0]"
    },
    {
      "labels": [],
      "source": null,
      "text": "        #DEBUG_VALUE: evaluate<ctre::regex_results<const char *>, const char *, const char *>: <- $r8"
    },
    {
      "labels": [],
      "source": null,
      "text": "        #DEBUG_VALUE: evaluate<ctre::regex_results<const char *>, const char *, const char *>: <- $rdx"
    },
    {
      "labels": [],
      "source": null,
      "text": "        #DEBUG_VALUE: evaluate<ctre::regex_results<const char *>, const char *, const char *, ctre::any, ctre::end_cycle_mark, void>:end <- $r8"
    },
    {
      "labels": [],
      "source": null,
      "text": "        #DEBUG_VALUE: evaluate<ctre::regex_results<const char *>, const char *, const char *, ctre::any, ctre::end_cycle_mark, void>:current <- $rcx"
    },
    {
      "labels": [],
      "source": null,
      "text": "        #DEBUG_VALUE: evaluate<ctre::regex_results<const char *>, const char *, const char *, ctre::any, ctre::end_cycle_mark, void>:begin <- $rdx"
    },
    {
      "labels": [],
      "source": null,
      "text": "        #DEBUG_VALUE: evaluate<ctre::regex_results<const char *>, const char *, const char *, ctre::any, ctre::end_cycle_mark>:end <- $r8"
    },
    {
      "labels": [],
      "source": null,
      "text": "        #DEBUG_VALUE: evaluate<ctre::regex_results<const char *>, const char *, const char *, ctre::any, ctre::end_cycle_mark>:current <- $rcx"
    },
    {
      "labels": [],
      "source": null,
      "text": "        #DEBUG_VALUE: evaluate<ctre::regex_results<const char *>, const char *, const char *, ctre::any, ctre::end_cycle_mark>:begin <- $rdx"
    },
    {
      "labels": [],
      "source": null,
      "text": "        #DEBUG_VALUE: evaluate_recursive<ctre::regex_results<const char *>, const char *, const char *, 0, 0, ctre::any, ctre::assert_end, ctre::end_mark, ctre::accept>:end <- $r8"
    },
    {
      "labels": [],
      "source": null,
      "text": "        #DEBUG_VALUE: evaluate_recursive<ctre::regex_results<const char *>, const char *, const char *, 0, 0, ctre::any, ctre::assert_end, ctre::end_mark, ctre::accept>:current <- $rcx"
    },
    {
      "labels": [],
      "source": null,
      "text": "        #DEBUG_VALUE: evaluate_recursive<ctre::regex_results<const char *>, const char *, const char *, 0, 0, ctre::any, ctre::assert_end, ctre::end_mark, ctre::accept>:begin <- $rdx"
    },
    {
      "labels": [],
      "source": null,
      "text": "        #DEBUG_VALUE: evaluate_recursive<ctre::regex_results<const char *>, const char *, const char *, 0, 0, ctre::any, ctre::assert_end, ctre::end_mark, ctre::accept>:i <- $rsi"
    },
    {
      "labels": [],
      "source": null,
      "text": "        .loc    40 67 32 is_stmt 1      # /opt/compiler-explorer/libs/ctre/master/include/ctre/evaluation.hpp:67:32"
    },
    {
      "labels": [],
      "source": {
        "column": 32,
        "file": "/tmp/compiler-explorer-compiler1181120-2080-yfo6a1.y1o4e//opt/compiler-explorer/libs/ctre/master/include/ctre/evaluation.hpp",
        "line": 67
      },
      "text": "        add     rcx, 1"
    },
    {
      "labels": [],
      "source": null,
      "text": ".Ltmp20:"
    },
    {
      "labels": [],
      "source": null,
      "text": "        #DEBUG_VALUE: evaluate<ctre::regex_results<const char *>, const char *, const char *>:captures <- [DW_OP_LLVM_fragment 128 8] 1"
    },
    {
      "labels": [],
      "source": null,
      "text": "        #DEBUG_VALUE: evaluate<ctre::regex_results<const char *>, const char *, const char *>:captures <- [DW_OP_plus_uconst 16, DW_OP_deref, DW_OP_stack_value, DW_OP_LLVM_fragment 128 8] undef"
    },
    {
      "labels": [],
      "source": null,
      "text": "        #DEBUG_VALUE: evaluate<ctre::regex_results<const char *>, const char *, const char *>:captures <- [DW_OP_plus_uconst 8, DW_OP_deref, DW_OP_stack_value, DW_OP_LLVM_fragment 64 64] undef"
    },
    {
      "labels": [],
      "source": null,
      "text": "        #DEBUG_VALUE: evaluate<ctre::regex_results<const char *>, const char *, const char *>:captures <- [DW_OP_deref, DW_OP_LLVM_fragment 0 64] undef"
    },
    {
      "labels": [],
      "source": null,
      "text": "        #DEBUG_VALUE: evaluate<ctre::regex_results<const char *>, const char *, const char *>:captures <- [DW_OP_LLVM_fragment 64 64] $rcx"
    },
    {
      "labels": [],
      "source": null,
      "text": "        #DEBUG_VALUE: evaluate<ctre::regex_results<const char *>, const char *, const char *>:current <- $rcx"
    },
    {
      "labels": [],
      "source": null,
      "text": "        .loc    40 57 9                 # /opt/compiler-explorer/libs/ctre/master/include/ctre/evaluation.hpp:57:9"
    },
    {
      "labels": [],
      "source": {
        "column": 9,
        "file": "/tmp/compiler-explorer-compiler1181120-2080-yfo6a1.y1o4e//opt/compiler-explorer/libs/ctre/master/include/ctre/evaluation.hpp",
        "line": 57
      },
      "text": "        mov     al, byte ptr [rsp + 79]"
    },
    {
      "labels": [],
      "source": {
        "column": 9,
        "file": "/tmp/compiler-explorer-compiler1181120-2080-yfo6a1.y1o4e//opt/compiler-explorer/libs/ctre/master/include/ctre/evaluation.hpp",
        "line": 57
      },
      "text": "        mov     byte ptr [rsp + 38], al"
    },
    {
      "labels": [],
      "source": {
        "column": 9,
        "file": "/tmp/compiler-explorer-compiler1181120-2080-yfo6a1.y1o4e//opt/compiler-explorer/libs/ctre/master/include/ctre/evaluation.hpp",
        "line": 57
      },
      "text": "        movzx   eax, word ptr [rsp + 77]"
    },
    {
      "labels": [],
      "source": {
        "column": 9,
        "file": "/tmp/compiler-explorer-compiler1181120-2080-yfo6a1.y1o4e//opt/compiler-explorer/libs/ctre/master/include/ctre/evaluation.hpp",
        "line": 57
      },
      "text": "        mov     word ptr [rsp + 36], ax"
    },
    {
      "labels": [],
      "source": {
        "column": 9,
        "file": "/tmp/compiler-explorer-compiler1181120-2080-yfo6a1.y1o4e//opt/compiler-explorer/libs/ctre/master/include/ctre/evaluation.hpp",
        "line": 57
      },
      "text": "        mov     eax, dword ptr [rsp + 73]"
    },
    {
      "labels": [],
      "source": {
        "column": 9,
        "file": "/tmp/compiler-explorer-compiler1181120-2080-yfo6a1.y1o4e//opt/compiler-explorer/libs/ctre/master/include/ctre/evaluation.hpp",
        "line": 57
      },
      "text": "        mov     dword ptr [rsp + 32], eax"
    },
    {
      "labels": [],
      "source": null,
      "text": ".Ltmp21:"
    },
    {
      "labels": [],
      "source": null,
      "text": "        #DEBUG_VALUE: operator bool:this <- undef"
    },
    {
      "labels": [],
      "source": null,
      "text": "        #DEBUG_VALUE: operator bool:this <- undef"
    },
    {
      "labels": [],
      "source": null,
      "text": "        #DEBUG_VALUE: inner_result <- [DW_OP_deref] undef"
    },
    {
      "labels": [],
      "source": null,
      "text": "        .loc    40 246 46               # /opt/compiler-explorer/libs/ctre/master/include/ctre/evaluation.hpp:246:46"
    },
    {
      "labels": [],
      "source": {
        "column": 46,
        "file": "/tmp/compiler-explorer-compiler1181120-2080-yfo6a1.y1o4e//opt/compiler-explorer/libs/ctre/master/include/ctre/evaluation.hpp",
        "line": 246
      },
      "text": "        add     rsi, 1"
    },
    {
      "labels": [],
      "source": null,
      "text": ".Ltmp22:"
    },
    {
      "labels": [],
      "source": null,
      "text": "        .loc    40 246 95 is_stmt 0     # /opt/compiler-explorer/libs/ctre/master/include/ctre/evaluation.hpp:246:95"
    },
    {
      "labels": [],
      "source": {
        "column": 95,
        "file": "/tmp/compiler-explorer-compiler1181120-2080-yfo6a1.y1o4e//opt/compiler-explorer/libs/ctre/master/include/ctre/evaluation.hpp",
        "line": 246
      },
      "text": "        mov     qword ptr [rsp + 40], rdi"
    },
    {
      "labels": [],
      "source": {
        "column": 95,
        "file": "/tmp/compiler-explorer-compiler1181120-2080-yfo6a1.y1o4e//opt/compiler-explorer/libs/ctre/master/include/ctre/evaluation.hpp",
        "line": 246
      },
      "text": "        mov     qword ptr [rsp + 48], rcx"
    },
    {
      "labels": [],
      "source": {
        "column": 95,
        "file": "/tmp/compiler-explorer-compiler1181120-2080-yfo6a1.y1o4e//opt/compiler-explorer/libs/ctre/master/include/ctre/evaluation.hpp",
        "line": 246
      },
      "text": "        mov     byte ptr [rsp + 56], 0"
    },
    {
      "labels": [],
      "source": {
        "column": 95,
        "file": "/tmp/compiler-explorer-compiler1181120-2080-yfo6a1.y1o4e//opt/compiler-explorer/libs/ctre/master/include/ctre/evaluation.hpp",
        "line": 246
      },
      "text": "        mov     eax, dword ptr [rsp + 32]"
    },
    {
      "labels": [],
      "source": {
        "column": 95,
        "file": "/tmp/compiler-explorer-compiler1181120-2080-yfo6a1.y1o4e//opt/compiler-explorer/libs/ctre/master/include/ctre/evaluation.hpp",
        "line": 246
      },
      "text": "        mov     dword ptr [rsp + 57], eax"
    },
    {
      "labels": [],
      "source": {
        "column": 95,
        "file": "/tmp/compiler-explorer-compiler1181120-2080-yfo6a1.y1o4e//opt/compiler-explorer/libs/ctre/master/include/ctre/evaluation.hpp",
        "line": 246
      },
      "text": "        movzx   eax, word ptr [rsp + 36]"
    },
    {
      "labels": [],
      "source": {
        "column": 95,
        "file": "/tmp/compiler-explorer-compiler1181120-2080-yfo6a1.y1o4e//opt/compiler-explorer/libs/ctre/master/include/ctre/evaluation.hpp",
        "line": 246
      },
      "text": "        mov     word ptr [rsp + 61], ax"
    },
    {
      "labels": [],
      "source": {
        "column": 95,
        "file": "/tmp/compiler-explorer-compiler1181120-2080-yfo6a1.y1o4e//opt/compiler-explorer/libs/ctre/master/include/ctre/evaluation.hpp",
        "line": 246
      },
      "text": "        mov     al, byte ptr [rsp + 38]"
    },
    {
      "labels": [],
      "source": {
        "column": 95,
        "file": "/tmp/compiler-explorer-compiler1181120-2080-yfo6a1.y1o4e//opt/compiler-explorer/libs/ctre/master/include/ctre/evaluation.hpp",
        "line": 246
      },
      "text": "        mov     byte ptr [rsp + 63], al"
    },
    {
      "labels": [],
      "source": null,
      "text": "        .loc    40 246 26               # /opt/compiler-explorer/libs/ctre/master/include/ctre/evaluation.hpp:246:26"
    },
    {
      "labels": [],
      "source": {
        "column": 26,
        "file": "/tmp/compiler-explorer-compiler1181120-2080-yfo6a1.y1o4e//opt/compiler-explorer/libs/ctre/master/include/ctre/evaluation.hpp",
        "line": 246
      },
      "text": "        mov     rax, qword ptr [rsp + 56]"
    },
    {
      "labels": [],
      "source": {
        "column": 26,
        "file": "/tmp/compiler-explorer-compiler1181120-2080-yfo6a1.y1o4e//opt/compiler-explorer/libs/ctre/master/include/ctre/evaluation.hpp",
        "line": 246
      },
      "text": "        mov     qword ptr [rsp + 16], rax"
    },
    {
      "labels": [],
      "source": {
        "column": 26,
        "file": "/tmp/compiler-explorer-compiler1181120-2080-yfo6a1.y1o4e//opt/compiler-explorer/libs/ctre/master/include/ctre/evaluation.hpp",
        "line": 246
      },
      "text": "        movups  xmm0, xmmword ptr [rsp + 40]"
    },
    {
      "labels": [],
      "source": {
        "column": 26,
        "file": "/tmp/compiler-explorer-compiler1181120-2080-yfo6a1.y1o4e//opt/compiler-explorer/libs/ctre/master/include/ctre/evaluation.hpp",
        "line": 246
      },
      "text": "        movups  xmmword ptr [rsp], xmm0"
    },
    {
      "labels": [],
      "source": {
        "column": 26,
        "file": "/tmp/compiler-explorer-compiler1181120-2080-yfo6a1.y1o4e//opt/compiler-explorer/libs/ctre/master/include/ctre/evaluation.hpp",
        "line": 246
      },
      "text": "        mov     rdi, rbx"
    },
    {
      "labels": [],
      "source": null,
      "text": ".Ltmp23:"
    },
    {
      "labels": [
        {
          "name": "_ZN4ctre18evaluate_recursiveINS_13regex_resultsIPKcJEEES3_S3_Lm0ELm0EJNS_3anyEEJNS_10assert_endENS_8end_markENS_6acceptEEEET_mT0_SA_T1_S9_N4ctll4listIJNS_6repeatIXT2_EXT3_EJDpT4_EEEDpT5_EEE",
          "range": {
            "endCol": 206,
            "startCol": 17
          }
        }
      ],
      "source": {
        "column": 26,
        "file": "/tmp/compiler-explorer-compiler1181120-2080-yfo6a1.y1o4e//opt/compiler-explorer/libs/ctre/master/include/ctre/evaluation.hpp",
        "line": 246
      },
      "text": "        call    _ZN4ctre18evaluate_recursiveINS_13regex_resultsIPKcJEEES3_S3_Lm0ELm0EJNS_3anyEEJNS_10assert_endENS_8end_markENS_6acceptEEEET_mT0_SA_T1_S9_N4ctll4listIJNS_6repeatIXT2_EXT3_EJDpT4_EEEDpT5_EEE"
    },
    {
      "labels": [],
      "source": null,
      "text": ".Ltmp24:"
    },
    {
      "labels": [],
      "source": null,
      "text": "        .loc    4 54 11 is_stmt 1       # /opt/compiler-explorer/libs/ctre/master/include/ctre/return_type.hpp:54:11"
    },
    {
      "labels": [],
      "source": {
        "column": 11,
        "file": "/tmp/compiler-explorer-compiler1181120-2080-yfo6a1.y1o4e//opt/compiler-explorer/libs/ctre/master/include/ctre/return_type.hpp",
        "line": 54
      },
      "text": "        cmp     byte ptr [rbx + 16], 0"
    },
    {
      "labels": [],
      "source": null,
      "text": ".Ltmp25:"
    },
    {
      "labels": [],
      "source": null,
      "text": "        .loc    40 246 13               # /opt/compiler-explorer/libs/ctre/master/include/ctre/evaluation.hpp:246:13"
    },
    {
      "labels": [
        {
          "name": ".LBB2_2",
          "range": {
            "endCol": 24,
            "startCol": 17
          }
        }
      ],
      "source": {
        "column": 13,
        "file": "/tmp/compiler-explorer-compiler1181120-2080-yfo6a1.y1o4e//opt/compiler-explorer/libs/ctre/master/include/ctre/evaluation.hpp",
        "line": 246
      },
      "text": "        je      .LBB2_2"
    },
    {
      "labels": [],
      "source": null,
      "text": ".Ltmp26:"
    },
    {
      "labels": [],
      "source": null,
      "text": "# %bb.4:"
    },
    {
      "labels": [],
      "source": null,
      "text": "        .loc    40 252 1                # /opt/compiler-explorer/libs/ctre/master/include/ctre/evaluation.hpp:252:1"
    },
    {
      "labels": [],
      "source": {
        "column": 1,
        "file": "/tmp/compiler-explorer-compiler1181120-2080-yfo6a1.y1o4e//opt/compiler-explorer/libs/ctre/master/include/ctre/evaluation.hpp",
        "line": 252
      },
      "text": "        mov     rax, rbx"
    },
    {
      "labels": [],
      "source": {
        "column": 1,
        "file": "/tmp/compiler-explorer-compiler1181120-2080-yfo6a1.y1o4e//opt/compiler-explorer/libs/ctre/master/include/ctre/evaluation.hpp",
        "line": 252
      },
      "text": "        add     rsp, 80"
    },
    {
      "labels": [],
      "source": null,
      "text": "        .cfi_def_cfa_offset 16"
    },
    {
      "labels": [],
      "source": {
        "column": 1,
        "file": "/tmp/compiler-explorer-compiler1181120-2080-yfo6a1.y1o4e//opt/compiler-explorer/libs/ctre/master/include/ctre/evaluation.hpp",
        "line": 252
      },
      "text": "        pop     rbx"
    },
    {
      "labels": [],
      "source": null,
      "text": "        .cfi_def_cfa_offset 8"
    },
    {
      "labels": [],
      "source": {
        "column": 1,
        "file": "/tmp/compiler-explorer-compiler1181120-2080-yfo6a1.y1o4e//opt/compiler-explorer/libs/ctre/master/include/ctre/evaluation.hpp",
        "line": 252
      },
      "text": "        ret"
    },
    {
      "labels": [],
      "source": null,
      "text": ".LBB2_3:"
    },
    {
      "labels": [],
      "source": null,
      "text": "        .cfi_def_cfa_offset 96"
    },
    {
      "labels": [],
      "source": null,
      "text": ".Ltmp27:"
    },
    {
      "labels": [],
      "source": null,
      "text": "        #DEBUG_VALUE: evaluate<ctre::regex_results<const char *>, const char *, const char *, ctre::end_mark, ctre::accept>:captures <- [DW_OP_LLVM_fragment 0 64] $rdi"
    },
    {
      "labels": [],
      "source": null,
      "text": "        #DEBUG_VALUE: evaluate<ctre::regex_results<const char *>, const char *, const char *, ctre::accept>:end <- $r8"
    },
    {
      "labels": [],
      "source": null,
      "text": "        #DEBUG_VALUE: evaluate<ctre::regex_results<const char *>, const char *, const char *, ctre::end_mark, ctre::accept>:end <- $r8"
    },
    {
      "labels": [],
      "source": null,
      "text": "        #DEBUG_VALUE: evaluate_recursive<ctre::regex_results<const char *>, const char *, const char *, 0, 0, ctre::any, ctre::assert_end, ctre::end_mark, ctre::accept>:end <- $r8"
    },
    {
      "labels": [],
      "source": null,
      "text": "        #DEBUG_VALUE: evaluate_recursive<ctre::regex_results<const char *>, const char *, const char *, 0, 0, ctre::any, ctre::assert_end, ctre::end_mark, ctre::accept>:current <- $rcx"
    },
    {
      "labels": [],
      "source": null,
      "text": "        #DEBUG_VALUE: evaluate_recursive<ctre::regex_results<const char *>, const char *, const char *, 0, 0, ctre::any, ctre::assert_end, ctre::end_mark, ctre::accept>:begin <- $rdx"
    },
    {
      "labels": [],
      "source": null,
      "text": "        #DEBUG_VALUE: evaluate_recursive<ctre::regex_results<const char *>, const char *, const char *, 0, 0, ctre::any, ctre::assert_end, ctre::end_mark, ctre::accept>:i <- $rsi"
    },
    {
      "labels": [],
      "source": null,
      "text": "        .loc    40 0 1 is_stmt 0        # /opt/compiler-explorer/libs/ctre/master/include/ctre/evaluation.hpp:0:1"
    },
    {
      "labels": [],
      "source": {
        "column": 1,
        "file": "/tmp/compiler-explorer-compiler1181120-2080-yfo6a1.y1o4e//opt/compiler-explorer/libs/ctre/master/include/ctre/evaluation.hpp",
        "line": 0
      },
      "text": "        lea     rax, [rsp + 96]"
    },
    {
      "labels": [],
      "source": null,
      "text": ".Ltmp28:"
    },
    {
      "labels": [],
      "source": null,
      "text": "        #DEBUG_VALUE: evaluate<ctre::regex_results<const char *>, const char *, const char *, ctre::accept>:captures <- [DW_OP_plus_uconst 8, DW_OP_deref, DW_OP_stack_value, DW_OP_LLVM_fragment 64 64] undef"
    },
    {
      "labels": [],
      "source": null,
      "text": "        #DEBUG_VALUE: evaluate<ctre::regex_results<const char *>, const char *, const char *, ctre::accept>:captures <- [DW_OP_deref, DW_OP_LLVM_fragment 0 64] undef"
    },
    {
      "labels": [],
      "source": null,
      "text": "        #DEBUG_VALUE: operator bool:this <- undef"
    },
    {
      "labels": [],
      "source": null,
      "text": "        #DEBUG_VALUE: operator bool:this <- undef"
    },
    {
      "labels": [],
      "source": null,
      "text": "        #DEBUG_VALUE: inner_result <- [DW_OP_deref] undef"
    },
    {
      "labels": [],
      "source": null,
      "text": "        .loc    40 251 39 is_stmt 1     # /opt/compiler-explorer/libs/ctre/master/include/ctre/evaluation.hpp:251:39"
    },
    {
      "labels": [],
      "source": {
        "column": 39,
        "file": "/tmp/compiler-explorer-compiler1181120-2080-yfo6a1.y1o4e//opt/compiler-explorer/libs/ctre/master/include/ctre/evaluation.hpp",
        "line": 251
      },
      "text": "        mov     rax, qword ptr [rax + 16]"
    },
    {
      "labels": [],
      "source": null,
      "text": ".Ltmp29:"
    },
    {
      "labels": [],
      "source": null,
      "text": "        .loc    40 38 54                # /opt/compiler-explorer/libs/ctre/master/include/ctre/evaluation.hpp:38:54"
    },
    {
      "labels": [],
      "source": {
        "column": 54,
        "file": "/tmp/compiler-explorer-compiler1181120-2080-yfo6a1.y1o4e//opt/compiler-explorer/libs/ctre/master/include/ctre/evaluation.hpp",
        "line": 38
      },
      "text": "        mov     qword ptr [rbx], rdi"
    },
    {
      "labels": [],
      "source": {
        "column": 54,
        "file": "/tmp/compiler-explorer-compiler1181120-2080-yfo6a1.y1o4e//opt/compiler-explorer/libs/ctre/master/include/ctre/evaluation.hpp",
        "line": 38
      },
      "text": "        mov     qword ptr [rbx + 8], r8"
    },
    {
      "labels": [],
      "source": null,
      "text": ".Ltmp30:"
    },
    {
      "labels": [],
      "source": null,
      "text": "        #DEBUG_VALUE: evaluate<ctre::regex_results<const char *>, const char *, const char *>:captures <- [DW_OP_LLVM_fragment 128 8] 1"
    },
    {
      "labels": [],
      "source": null,
      "text": "        #DEBUG_VALUE: evaluate<ctre::regex_results<const char *>, const char *, const char *>:captures <- [DW_OP_plus_uconst 16, DW_OP_deref, DW_OP_stack_value, DW_OP_LLVM_fragment 128 8] undef"
    },
    {
      "labels": [],
      "source": null,
      "text": "        .loc    40 39 9                 # /opt/compiler-explorer/libs/ctre/master/include/ctre/evaluation.hpp:39:9"
    },
    {
      "labels": [],
      "source": {
        "column": 9,
        "file": "/tmp/compiler-explorer-compiler1181120-2080-yfo6a1.y1o4e//opt/compiler-explorer/libs/ctre/master/include/ctre/evaluation.hpp",
        "line": 39
      },
      "text": "        mov     byte ptr [rbx + 16], 1"
    },
    {
      "labels": [],
      "source": {
        "column": 9,
        "file": "/tmp/compiler-explorer-compiler1181120-2080-yfo6a1.y1o4e//opt/compiler-explorer/libs/ctre/master/include/ctre/evaluation.hpp",
        "line": 39
      },
      "text": "        mov     rcx, rax"
    },
    {
      "labels": [],
      "source": null,
      "text": ".Ltmp31:"
    },
    {
      "labels": [],
      "source": {
        "column": 9,
        "file": "/tmp/compiler-explorer-compiler1181120-2080-yfo6a1.y1o4e//opt/compiler-explorer/libs/ctre/master/include/ctre/evaluation.hpp",
        "line": 39
      },
      "text": "        shr     rcx, 8"
    },
    {
      "labels": [],
      "source": {
        "column": 9,
        "file": "/tmp/compiler-explorer-compiler1181120-2080-yfo6a1.y1o4e//opt/compiler-explorer/libs/ctre/master/include/ctre/evaluation.hpp",
        "line": 39
      },
      "text": "        mov     rdx, rax"
    },
    {
      "labels": [],
      "source": null,
      "text": ".Ltmp32:"
    },
    {
      "labels": [],
      "source": {
        "column": 9,
        "file": "/tmp/compiler-explorer-compiler1181120-2080-yfo6a1.y1o4e//opt/compiler-explorer/libs/ctre/master/include/ctre/evaluation.hpp",
        "line": 39
      },
      "text": "        shr     rdx, 56"
    },
    {
      "labels": [],
      "source": {
        "column": 9,
        "file": "/tmp/compiler-explorer-compiler1181120-2080-yfo6a1.y1o4e//opt/compiler-explorer/libs/ctre/master/include/ctre/evaluation.hpp",
        "line": 39
      },
      "text": "        mov     byte ptr [rbx + 23], dl"
    },
    {
      "labels": [],
      "source": {
        "column": 9,
        "file": "/tmp/compiler-explorer-compiler1181120-2080-yfo6a1.y1o4e//opt/compiler-explorer/libs/ctre/master/include/ctre/evaluation.hpp",
        "line": 39
      },
      "text": "        shr     rax, 40"
    },
    {
      "labels": [],
      "source": {
        "column": 9,
        "file": "/tmp/compiler-explorer-compiler1181120-2080-yfo6a1.y1o4e//opt/compiler-explorer/libs/ctre/master/include/ctre/evaluation.hpp",
        "line": 39
      },
      "text": "        mov     word ptr [rbx + 21], ax"
    },
    {
      "labels": [],
      "source": {
        "column": 9,
        "file": "/tmp/compiler-explorer-compiler1181120-2080-yfo6a1.y1o4e//opt/compiler-explorer/libs/ctre/master/include/ctre/evaluation.hpp",
        "line": 39
      },
      "text": "        mov     dword ptr [rbx + 17], ecx"
    },
    {
      "labels": [],
      "source": null,
      "text": ".Ltmp33:"
    },
    {
      "labels": [],
      "source": null,
      "text": "        .loc    40 252 1                # /opt/compiler-explorer/libs/ctre/master/include/ctre/evaluation.hpp:252:1"
    },
    {
      "labels": [],
      "source": {
        "column": 1,
        "file": "/tmp/compiler-explorer-compiler1181120-2080-yfo6a1.y1o4e//opt/compiler-explorer/libs/ctre/master/include/ctre/evaluation.hpp",
        "line": 252
      },
      "text": "        mov     rax, rbx"
    },
    {
      "labels": [],
      "source": {
        "column": 1,
        "file": "/tmp/compiler-explorer-compiler1181120-2080-yfo6a1.y1o4e//opt/compiler-explorer/libs/ctre/master/include/ctre/evaluation.hpp",
        "line": 252
      },
      "text": "        add     rsp, 80"
    },
    {
      "labels": [],
      "source": null,
      "text": "        .cfi_def_cfa_offset 16"
    },
    {
      "labels": [],
      "source": {
        "column": 1,
        "file": "/tmp/compiler-explorer-compiler1181120-2080-yfo6a1.y1o4e//opt/compiler-explorer/libs/ctre/master/include/ctre/evaluation.hpp",
        "line": 252
      },
      "text": "        pop     rbx"
    },
    {
      "labels": [],
      "source": null,
      "text": "        .cfi_def_cfa_offset 8"
    },
    {
      "labels": [],
      "source": {
        "column": 1,
        "file": "/tmp/compiler-explorer-compiler1181120-2080-yfo6a1.y1o4e//opt/compiler-explorer/libs/ctre/master/include/ctre/evaluation.hpp",
        "line": 252
      },
      "text": "        ret"
    },
    {
      "labels": [],
      "source": null,
      "text": ".Ltmp34:"
    },
    {
      "labels": [],
      "source": null,
      "text": ".LBB2_2:"
    },
    {
      "labels": [],
      "source": null,
      "text": "        .cfi_def_cfa_offset 96"
    },
    {
      "labels": [],
      "source": null,
      "text": "        .loc    4 18 12                 # /opt/compiler-explorer/libs/ctre/master/include/ctre/return_type.hpp:18:12"
    },
    {
      "labels": [],
      "source": {
        "column": 12,
        "file": "/tmp/compiler-explorer-compiler1181120-2080-yfo6a1.y1o4e//opt/compiler-explorer/libs/ctre/master/include/ctre/return_type.hpp",
        "line": 18
      },
      "text": "        xorps   xmm0, xmm0"
    },
    {
      "labels": [],
      "source": {
        "column": 12,
        "file": "/tmp/compiler-explorer-compiler1181120-2080-yfo6a1.y1o4e//opt/compiler-explorer/libs/ctre/master/include/ctre/return_type.hpp",
        "line": 18
      },
      "text": "        movups  xmmword ptr [rbx], xmm0"
    },
    {
      "labels": [],
      "source": {
        "column": 12,
        "file": "/tmp/compiler-explorer-compiler1181120-2080-yfo6a1.y1o4e//opt/compiler-explorer/libs/ctre/master/include/ctre/return_type.hpp",
        "line": 18
      },
      "text": "        mov     byte ptr [rbx + 16], 0"
    },
    {
      "labels": [],
      "source": null,
      "text": ".Ltmp35:"
    },
    {
      "labels": [],
      "source": null,
      "text": "        .loc    40 252 1                # /opt/compiler-explorer/libs/ctre/master/include/ctre/evaluation.hpp:252:1"
    },
    {
      "labels": [],
      "source": {
        "column": 1,
        "file": "/tmp/compiler-explorer-compiler1181120-2080-yfo6a1.y1o4e//opt/compiler-explorer/libs/ctre/master/include/ctre/evaluation.hpp",
        "line": 252
      },
      "text": "        mov     rax, rbx"
    },
    {
      "labels": [],
      "source": {
        "column": 1,
        "file": "/tmp/compiler-explorer-compiler1181120-2080-yfo6a1.y1o4e//opt/compiler-explorer/libs/ctre/master/include/ctre/evaluation.hpp",
        "line": 252
      },
      "text": "        add     rsp, 80"
    },
    {
      "labels": [],
      "source": null,
      "text": "        .cfi_def_cfa_offset 16"
    },
    {
      "labels": [],
      "source": {
        "column": 1,
        "file": "/tmp/compiler-explorer-compiler1181120-2080-yfo6a1.y1o4e//opt/compiler-explorer/libs/ctre/master/include/ctre/evaluation.hpp",
        "line": 252
      },
      "text": "        pop     rbx"
    },
    {
      "labels": [],
      "source": null,
      "text": "        .cfi_def_cfa_offset 8"
    },
    {
      "labels": [],
      "source": {
        "column": 1,
        "file": "/tmp/compiler-explorer-compiler1181120-2080-yfo6a1.y1o4e//opt/compiler-explorer/libs/ctre/master/include/ctre/evaluation.hpp",
        "line": 252
      },
      "text": "        ret"
    },
    {
      "labels": [],
      "source": null,
      "text": ".Ltmp36:"
    },
    {
      "labels": [],
      "source": null,
      "text": ".Lfunc_end2:"
    },
    {
      "labels": [
        {
          "name": "_ZN4ctre18evaluate_recursiveINS_13regex_resultsIPKcJEEES3_S3_Lm0ELm0EJNS_3anyEEJNS_10assert_endENS_8end_markENS_6acceptEEEET_mT0_SA_T1_S9_N4ctll4listIJNS_6repeatIXT2_EXT3_EJDpT4_EEEDpT5_EEE",
          "range": {
            "endCol": 206,
            "startCol": 17
          }
        },
        {
          "name": ".Lfunc_end2",
          "range": {
            "endCol": 219,
            "startCol": 208
          }
        },
        {
          "name": "_ZN4ctre18evaluate_recursiveINS_13regex_resultsIPKcJEEES3_S3_Lm0ELm0EJNS_3anyEEJNS_10assert_endENS_8end_markENS_6acceptEEEET_mT0_SA_T1_S9_N4ctll4listIJNS_6repeatIXT2_EXT3_EJDpT4_EEEDpT5_EEE",
          "range": {
            "endCol": 409,
            "startCol": 220
          }
        }
      ],
      "source": null,
      "text": "        .size   _ZN4ctre18evaluate_recursiveINS_13regex_resultsIPKcJEEES3_S3_Lm0ELm0EJNS_3anyEEJNS_10assert_endENS_8end_markENS_6acceptEEEET_mT0_SA_T1_S9_N4ctll4listIJNS_6repeatIXT2_EXT3_EJDpT4_EEEDpT5_EEE, .Lfunc_end2-_ZN4ctre18evaluate_recursiveINS_13regex_resultsIPKcJEEES3_S3_Lm0ELm0EJNS_3anyEEJNS_10assert_endENS_8end_markENS_6acceptEEEET_mT0_SA_T1_S9_N4ctll4listIJNS_6repeatIXT2_EXT3_EJDpT4_EEEDpT5_EEE"
    },
    {
      "labels": [],
      "source": null,
      "text": "        .cfi_endproc"
    },
    {
      "labels": [],
      "source": null,
      "text": "                                        # -- End function"
    },
    {
      "labels": [],
      "source": null,
      "text": "        .type   .L.str,@object          # @.str"
    },
    {
      "labels": [],
      "source": null,
      "text": "        .section        .rodata.str1.1,\"aMS\",@progbits,1"
    },
    {
      "labels": [],
      "source": null,
      "text": ".L.str:"
    },
    {
      "labels": [],
      "source": null,
      "text": "        .asciz  \"hello\""
    },
    {
      "labels": [],
      "source": null,
      "text": "        .size   .L.str, 6"
    },
    {
      "labels": [],
      "source": null,
      "text": ""
    },
    {
      "labels": [],
      "source": null,
      "text": "        .section        .debug_str,\"MS\",@progbits,1"
    },
    {
      "labels": [],
      "source": null,
      "text": ".Linfo_string0:"
    },
    {
      "labels": [],
      "source": null,
      "text": "        .asciz  \"clang version 8.0.0 (trunk 344434)\" # string offset=0"
    },
    {
      "labels": [],
      "source": null,
      "text": ".Linfo_string1:"
    },
    {
      "labels": [],
      "source": null,
      "text": "        .asciz  \"/tmp/compiler-explorer-compiler1181120-2080-yfo6a1.y1o4e/example.cpp\" # string offset=35"
    },
    {
      "labels": [],
      "source": null,
      "text": ".Linfo_string2:"
    },
    {
      "labels": [],
      "source": null,
      "text": "        .asciz  \"/tmp/compiler-explorer-compiler1181120-2080-yfo6a1.y1o4e\" # string offset=104"
    },
    {
      "labels": [],
      "source": null,
      "text": ".Linfo_string3:"
    },
    {
      "labels": [],
      "source": null,
      "text": "        .asciz  \"pattern\"               # string offset=161"
    },
    {
      "labels": [],
      "source": null,
      "text": ".Linfo_string4:"
    },
    {
      "labels": [],
      "source": null,
      "text": "        .asciz  \"ctll\"                  # string offset=169"
    },
    {
      "labels": [],
      "source": null,
      "text": ".Linfo_string5:"
    },
    {
      "labels": [],
      "source": null,
      "text": "        .asciz  \"content\"               # string offset=174"
    },
    {
      "labels": [],
      "source": null,
      "text": ".Linfo_string6:"
    },
    {
      "labels": [],
      "source": null,
      "text": "        .asciz  \"char\"                  # string offset=182"
    },
    {
      "labels": [],
      "source": null,
      "text": ".Linfo_string7:"
    },
    {
      "labels": [],
      "source": null,
      "text": "        .asciz  \"__ARRAY_SIZE_TYPE__\"   # string offset=187"
    },
    {
      "labels": [],
      "source": null,
      "text": ".Linfo_string8:"
    },
    {
      "labels": [],
      "source": null,
      "text": "        .asciz  \"basic_fixed_string\"    # string offset=207"
    },
    {
      "labels": [],
      "source": null,
      "text": ".Linfo_string9:"
    },
    {
      "labels": [],
      "source": null,
      "text": "        .asciz  \"_ZNK4ctll18basic_fixed_stringIcLm4EE4sizeEv\" # string offset=226"
    },
    {
      "labels": [],
      "source": null,
      "text": ".Linfo_string10:"
    },
    {
      "labels": [],
      "source": null,
      "text": "        .asciz  \"size\"                  # string offset=270"
    },
    {
      "labels": [],
      "source": null,
      "text": ".Linfo_string11:"
    },
    {
      "labels": [],
      "source": null,
      "text": "        .asciz  \"long unsigned int\"     # string offset=275"
    },
    {
      "labels": [],
      "source": null,
      "text": ".Linfo_string12:"
    },
    {
      "labels": [],
      "source": null,
      "text": "        .asciz  \"size_t\"                # string offset=293"
    },
    {
      "labels": [],
      "source": null,
      "text": ".Linfo_string13:"
    },
    {
      "labels": [],
      "source": null,
      "text": "        .asciz  \"_ZNK4ctll18basic_fixed_stringIcLm4EEixEm\" # string offset=300"
    },
    {
      "labels": [],
      "source": null,
      "text": ".Linfo_string14:"
    },
    {
      "labels": [],
      "source": null,
      "text": "        .asciz  \"operator[]\"            # string offset=341"
    },
    {
      "labels": [],
      "source": null,
      "text": ".Linfo_string15:"
    },
    {
      "labels": [],
      "source": null,
      "text": "        .asciz  \"_ZNK4ctll18basic_fixed_stringIcLm4EE5beginEv\" # string offset=352"
    },
    {
      "labels": [],
      "source": null,
      "text": ".Linfo_string16:"
    },
    {
      "labels": [],
      "source": null,
      "text": "        .asciz  \"begin\"                 # string offset=397"
    },
    {
      "labels": [],
      "source": null,
      "text": ".Linfo_string17:"
    },
    {
      "labels": [],
      "source": null,
      "text": "        .asciz  \"_ZNK4ctll18basic_fixed_stringIcLm4EE3endEv\" # string offset=403"
    },
    {
      "labels": [],
      "source": null,
      "text": ".Linfo_string18:"
    },
    {
      "labels": [],
      "source": null,
      "text": "        .asciz  \"end\"                   # string offset=446"
    },
    {
      "labels": [],
      "source": null,
      "text": ".Linfo_string19:"
    },
    {
      "labels": [],
      "source": null,
      "text": "        .asciz  \"CharT\"                 # string offset=450"
    },
    {
      "labels": [],
      "source": null,
      "text": ".Linfo_string20:"
    },
    {
      "labels": [],
      "source": null,
      "text": "        .asciz  \"N\"                     # string offset=456"
    },
    {
      "labels": [],
      "source": null,
      "text": ".Linfo_string21:"
    },
    {
      "labels": [],
      "source": null,
      "text": "        .asciz  \"basic_fixed_string<char, 4>\" # string offset=458"
    },
    {
      "labels": [],
      "source": null,
      "text": ".Linfo_string22:"
    },
    {
      "labels": [],
      "source": null,
      "text": "        .asciz  \"_ZL7pattern\"           # string offset=486"
    },
    {
      "labels": [],
      "source": null,
      "text": ".Linfo_string23:"
    },
    {
      "labels": [],
      "source": null,
      "text": "        .asciz  \"ctre\"                  # string offset=498"
    },
    {
      "labels": [],
      "source": null,
      "text": ".Linfo_string24:"
    },
    {
      "labels": [],
      "source": null,
      "text": "        .asciz  \"not_matched\"           # string offset=503"
    },
    {
      "labels": [],
      "source": null,
      "text": ".Linfo_string25:"
    },
    {
      "labels": [],
      "source": null,
      "text": "        .asciz  \"not_matched_tag_t\"     # string offset=515"
    },
    {
      "labels": [],
      "source": null,
      "text": ".Linfo_string26:"
    },
    {
      "labels": [],
      "source": null,
      "text": "        .asciz  \"_ZN4ctreL11not_matchedE\" # string offset=533"
    },
    {
      "labels": [],
      "source": null,
      "text": ".Linfo_string27:"
    },
    {
      "labels": [],
      "source": null,
      "text": "        .asciz  \"regular_expression\"    # string offset=557"
    },
    {
      "labels": [],
      "source": null,
      "text": ".Linfo_string28:"
    },
    {
      "labels": [],
      "source": null,
      "text": "        .asciz  \"Content\"               # string offset=576"
    },
    {
      "labels": [],
      "source": null,
      "text": ".Linfo_string29:"
    },
    {
      "labels": [],
      "source": null,
      "text": "        .asciz  \"V\"                     # string offset=584"
    },
    {
      "labels": [],
      "source": null,
      "text": ".Linfo_string30:"
    },
    {
      "labels": [],
      "source": null,
      "text": "        .asciz  \"character<'h'>\"        # string offset=586"
    },
    {
      "labels": [],
      "source": null,
      "text": ".Linfo_string31:"
    },
    {
      "labels": [],
      "source": null,
      "text": "        .asciz  \"any\"                   # string offset=601"
    },
    {
      "labels": [],
      "source": null,
      "text": ".Linfo_string32:"
    },
    {
      "labels": [],
      "source": null,
      "text": "        .asciz  \"star<ctre::any>\"       # string offset=605"
    },
    {
      "labels": [],
      "source": null,
      "text": ".Linfo_string33:"
    },
    {
      "labels": [],
      "source": null,
      "text": "        .asciz  \"sequence<ctre::character<'h'>, ctre::star<ctre::any> >\" # string offset=621"
    },
    {
      "labels": [],
      "source": null,
      "text": ".Linfo_string34:"
    },
    {
      "labels": [],
      "source": null,
      "text": "        .asciz  \"RE\"                    # string offset=676"
    },
    {
      "labels": [],
      "source": null,
      "text": ".Linfo_string35:"
    },
    {
      "labels": [],
      "source": null,
      "text": "        .asciz  \"regular_expression<ctre::sequence<ctre::character<'h'>, ctre::star<ctre::any> > >\" # string offset=679"
    },
    {
      "labels": [],
      "source": null,
      "text": ".Linfo_string36:"
    },
    {
      "labels": [],
      "source": null,
      "text": "        .asciz  \"bool\"                  # string offset=761"
    },
    {
      "labels": [],
      "source": null,
      "text": ".Linfo_string37:"
    },
    {
      "labels": [],
      "source": null,
      "text": "        .asciz  \"std\"                   # string offset=766"
    },
    {
      "labels": [],
      "source": null,
      "text": ".Linfo_string38:"
    },
    {
      "labels": [],
      "source": null,
      "text": "        .asciz  \"max_align_t\"           # string offset=770"
    },
    {
      "labels": [],
      "source": null,
      "text": ".Linfo_string39:"
    },
    {
      "labels": [],
      "source": null,
      "text": "        .asciz  \"signed char\"           # string offset=782"
    },
    {
      "labels": [],
      "source": null,
      "text": ".Linfo_string40:"
    },
    {
      "labels": [],
      "source": null,
      "text": "        .asciz  \"__int8_t\"              # string offset=794"
    },
    {
      "labels": [],
      "source": null,
      "text": ".Linfo_string41:"
    },
    {
      "labels": [],
      "source": null,
      "text": "        .asciz  \"int8_t\"                # string offset=803"
    },
    {
      "labels": [],
      "source": null,
      "text": ".Linfo_string42:"
    },
    {
      "labels": [],
      "source": null,
      "text": "        .asciz  \"short\"                 # string offset=810"
    },
    {
      "labels": [],
      "source": null,
      "text": ".Linfo_string43:"
    },
    {
      "labels": [],
      "source": null,
      "text": "        .asciz  \"__int16_t\"             # string offset=816"
    },
    {
      "labels": [],
      "source": null,
      "text": ".Linfo_string44:"
    },
    {
      "labels": [],
      "source": null,
      "text": "        .asciz  \"int16_t\"               # string offset=826"
    },
    {
      "labels": [],
      "source": null,
      "text": ".Linfo_string45:"
    },
    {
      "labels": [],
      "source": null,
      "text": "        .asciz  \"int\"                   # string offset=834"
    },
    {
      "labels": [],
      "source": null,
      "text": ".Linfo_string46:"
    },
    {
      "labels": [],
      "source": null,
      "text": "        .asciz  \"__int32_t\"             # string offset=838"
    },
    {
      "labels": [],
      "source": null,
      "text": ".Linfo_string47:"
    },
    {
      "labels": [],
      "source": null,
      "text": "        .asciz  \"int32_t\"               # string offset=848"
    },
    {
      "labels": [],
      "source": null,
      "text": ".Linfo_string48:"
    },
    {
      "labels": [],
      "source": null,
      "text": "        .asciz  \"long int\"              # string offset=856"
    },
    {
      "labels": [],
      "source": null,
      "text": ".Linfo_string49:"
    },
    {
      "labels": [],
      "source": null,
      "text": "        .asciz  \"__int64_t\"             # string offset=865"
    },
    {
      "labels": [],
      "source": null,
      "text": ".Linfo_string50:"
    },
    {
      "labels": [],
      "source": null,
      "text": "        .asciz  \"int64_t\"               # string offset=875"
    },
    {
      "labels": [],
      "source": null,
      "text": ".Linfo_string51:"
    },
    {
      "labels": [],
      "source": null,
      "text": "        .asciz  \"int_fast8_t\"           # string offset=883"
    },
    {
      "labels": [],
      "source": null,
      "text": ".Linfo_string52:"
    },
    {
      "labels": [],
      "source": null,
      "text": "        .asciz  \"int_fast16_t\"          # string offset=895"
    },
    {
      "labels": [],
      "source": null,
      "text": ".Linfo_string53:"
    },
    {
      "labels": [],
      "source": null,
      "text": "        .asciz  \"int_fast32_t\"          # string offset=908"
    },
    {
      "labels": [],
      "source": null,
      "text": ".Linfo_string54:"
    },
    {
      "labels": [],
      "source": null,
      "text": "        .asciz  \"int_fast64_t\"          # string offset=921"
    },
    {
      "labels": [],
      "source": null,
      "text": ".Linfo_string55:"
    },
    {
      "labels": [],
      "source": null,
      "text": "        .asciz  \"int_least8_t\"          # string offset=934"
    },
    {
      "labels": [],
      "source": null,
      "text": ".Linfo_string56:"
    },
    {
      "labels": [],
      "source": null,
      "text": "        .asciz  \"int_least16_t\"         # string offset=947"
    },
    {
      "labels": [],
      "source": null,
      "text": ".Linfo_string57:"
    },
    {
      "labels": [],
      "source": null,
      "text": "        .asciz  \"int_least32_t\"         # string offset=961"
    },
    {
      "labels": [],
      "source": null,
      "text": ".Linfo_string58:"
    },
    {
      "labels": [],
      "source": null,
      "text": "        .asciz  \"int_least64_t\"         # string offset=975"
    },
    {
      "labels": [],
      "source": null,
      "text": ".Linfo_string59:"
    },
    {
      "labels": [],
      "source": null,
      "text": "        .asciz  \"__intmax_t\"            # string offset=989"
    },
    {
      "labels": [],
      "source": null,
      "text": ".Linfo_string60:"
    },
    {
      "labels": [],
      "source": null,
      "text": "        .asciz  \"intmax_t\"              # string offset=1000"
    },
    {
      "labels": [],
      "source": null,
      "text": ".Linfo_string61:"
    },
    {
      "labels": [],
      "source": null,
      "text": "        .asciz  \"intptr_t\"              # string offset=1009"
    },
    {
      "labels": [],
      "source": null,
      "text": ".Linfo_string62:"
    },
    {
      "labels": [],
      "source": null,
      "text": "        .asciz  \"unsigned char\"         # string offset=1018"
    },
    {
      "labels": [],
      "source": null,
      "text": ".Linfo_string63:"
    },
    {
      "labels": [],
      "source": null,
      "text": "        .asciz  \"__uint8_t\"             # string offset=1032"
    },
    {
      "labels": [],
      "source": null,
      "text": ".Linfo_string64:"
    },
    {
      "labels": [],
      "source": null,
      "text": "        .asciz  \"uint8_t\"               # string offset=1042"
    },
    {
      "labels": [],
      "source": null,
      "text": ".Linfo_string65:"
    },
    {
      "labels": [],
      "source": null,
      "text": "        .asciz  \"unsigned short\"        # string offset=1050"
    },
    {
      "labels": [],
      "source": null,
      "text": ".Linfo_string66:"
    },
    {
      "labels": [],
      "source": null,
      "text": "        .asciz  \"__uint16_t\"            # string offset=1065"
    },
    {
      "labels": [],
      "source": null,
      "text": ".Linfo_string67:"
    },
    {
      "labels": [],
      "source": null,
      "text": "        .asciz  \"uint16_t\"              # string offset=1076"
    },
    {
      "labels": [],
      "source": null,
      "text": ".Linfo_string68:"
    },
    {
      "labels": [],
      "source": null,
      "text": "        .asciz  \"unsigned int\"          # string offset=1085"
    },
    {
      "labels": [],
      "source": null,
      "text": ".Linfo_string69:"
    },
    {
      "labels": [],
      "source": null,
      "text": "        .asciz  \"__uint32_t\"            # string offset=1098"
    },
    {
      "labels": [],
      "source": null,
      "text": ".Linfo_string70:"
    },
    {
      "labels": [],
      "source": null,
      "text": "        .asciz  \"uint32_t\"              # string offset=1109"
    },
    {
      "labels": [],
      "source": null,
      "text": ".Linfo_string71:"
    },
    {
      "labels": [],
      "source": null,
      "text": "        .asciz  \"__uint64_t\"            # string offset=1118"
    },
    {
      "labels": [],
      "source": null,
      "text": ".Linfo_string72:"
    },
    {
      "labels": [],
      "source": null,
      "text": "        .asciz  \"uint64_t\"              # string offset=1129"
    },
    {
      "labels": [],
      "source": null,
      "text": ".Linfo_string73:"
    },
    {
      "labels": [],
      "source": null,
      "text": "        .asciz  \"uint_fast8_t\"          # string offset=1138"
    },
    {
      "labels": [],
      "source": null,
      "text": ".Linfo_string74:"
    },
    {
      "labels": [],
      "source": null,
      "text": "        .asciz  \"uint_fast16_t\"         # string offset=1151"
    },
    {
      "labels": [],
      "source": null,
      "text": ".Linfo_string75:"
    },
    {
      "labels": [],
      "source": null,
      "text": "        .asciz  \"uint_fast32_t\"         # string offset=1165"
    },
    {
      "labels": [],
      "source": null,
      "text": ".Linfo_string76:"
    },
    {
      "labels": [],
      "source": null,
      "text": "        .asciz  \"uint_fast64_t\"         # string offset=1179"
    },
    {
      "labels": [],
      "source": null,
      "text": ".Linfo_string77:"
    },
    {
      "labels": [],
      "source": null,
      "text": "        .asciz  \"uint_least8_t\"         # string offset=1193"
    },
    {
      "labels": [],
      "source": null,
      "text": ".Linfo_string78:"
    },
    {
      "labels": [],
      "source": null,
      "text": "        .asciz  \"uint_least16_t\"        # string offset=1207"
    },
    {
      "labels": [],
      "source": null,
      "text": ".Linfo_string79:"
    },
    {
      "labels": [],
      "source": null,
      "text": "        .asciz  \"uint_least32_t\"        # string offset=1222"
    },
    {
      "labels": [],
      "source": null,
      "text": ".Linfo_string80:"
    },
    {
      "labels": [],
      "source": null,
      "text": "        .asciz  \"uint_least64_t\"        # string offset=1237"
    },
    {
      "labels": [],
      "source": null,
      "text": ".Linfo_string81:"
    },
    {
      "labels": [],
      "source": null,
      "text": "        .asciz  \"__uintmax_t\"           # string offset=1252"
    },
    {
      "labels": [],
      "source": null,
      "text": ".Linfo_string82:"
    },
    {
      "labels": [],
      "source": null,
      "text": "        .asciz  \"uintmax_t\"             # string offset=1264"
    },
    {
      "labels": [],
      "source": null,
      "text": ".Linfo_string83:"
    },
    {
      "labels": [],
      "source": null,
      "text": "        .asciz  \"uintptr_t\"             # string offset=1274"
    },
    {
      "labels": [],
      "source": null,
      "text": ".Linfo_string84:"
    },
    {
      "labels": [],
      "source": null,
      "text": "        .asciz  \"__exception_ptr\"       # string offset=1284"
    },
    {
      "labels": [],
      "source": null,
      "text": ".Linfo_string85:"
    },
    {
      "labels": [],
      "source": null,
      "text": "        .asciz  \"_M_exception_object\"   # string offset=1300"
    },
    {
      "labels": [],
      "source": null,
      "text": ".Linfo_string86:"
    },
    {
      "labels": [],
      "source": null,
      "text": "        .asciz  \"exception_ptr\"         # string offset=1320"
    },
    {
      "labels": [],
      "source": null,
      "text": ".Linfo_string87:"
    },
    {
      "labels": [],
      "source": null,
      "text": "        .asciz  \"_ZNSt15__exception_ptr13exception_ptr9_M_addrefEv\" # string offset=1334"
    },
    {
      "labels": [],
      "source": null,
      "text": ".Linfo_string88:"
    },
    {
      "labels": [],
      "source": null,
      "text": "        .asciz  \"_M_addref\"             # string offset=1384"
    },
    {
      "labels": [],
      "source": null,
      "text": ".Linfo_string89:"
    },
    {
      "labels": [],
      "source": null,
      "text": "        .asciz  \"_ZNSt15__exception_ptr13exception_ptr10_M_releaseEv\" # string offset=1394"
    },
    {
      "labels": [],
      "source": null,
      "text": ".Linfo_string90:"
    },
    {
      "labels": [],
      "source": null,
      "text": "        .asciz  \"_M_release\"            # string offset=1446"
    },
    {
      "labels": [],
      "source": null,
      "text": ".Linfo_string91:"
    },
    {
      "labels": [],
      "source": null,
      "text": "        .asciz  \"_ZNKSt15__exception_ptr13exception_ptr6_M_getEv\" # string offset=1457"
    },
    {
      "labels": [],
      "source": null,
      "text": ".Linfo_string92:"
    },
    {
      "labels": [],
      "source": null,
      "text": "        .asciz  \"_M_get\"                # string offset=1505"
    },
    {
      "labels": [],
      "source": null,
      "text": ".Linfo_string93:"
    },
    {
      "labels": [],
      "source": null,
      "text": "        .asciz  \"decltype(nullptr)\"     # string offset=1512"
    },
    {
      "labels": [],
      "source": null,
      "text": ".Linfo_string94:"
    },
    {
      "labels": [],
      "source": null,
      "text": "        .asciz  \"nullptr_t\"             # string offset=1530"
    },
    {
      "labels": [],
      "source": null,
      "text": ".Linfo_string95:"
    },
    {
      "labels": [],
      "source": null,
      "text": "        .asciz  \"_ZNSt15__exception_ptr13exception_ptraSERKS0_\" # string offset=1540"
    },
    {
      "labels": [],
      "source": null,
      "text": ".Linfo_string96:"
    },
    {
      "labels": [],
      "source": null,
      "text": "        .asciz  \"operator=\"             # string offset=1586"
    },
    {
      "labels": [],
      "source": null,
      "text": ".Linfo_string97:"
    },
    {
      "labels": [],
      "source": null,
      "text": "        .asciz  \"_ZNSt15__exception_ptr13exception_ptraSEOS0_\" # string offset=1596"
    },
    {
      "labels": [],
      "source": null,
      "text": ".Linfo_string98:"
    },
    {
      "labels": [],
      "source": null,
      "text": "        .asciz  \"~exception_ptr\"        # string offset=1641"
    },
    {
      "labels": [],
      "source": null,
      "text": ".Linfo_string99:"
    },
    {
      "labels": [],
      "source": null,
      "text": "        .asciz  \"_ZNSt15__exception_ptr13exception_ptr4swapERS0_\" # string offset=1656"
    },
    {
      "labels": [],
      "source": null,
      "text": ".Linfo_string100:"
    },
    {
      "labels": [],
      "source": null,
      "text": "        .asciz  \"swap\"                  # string offset=1704"
    },
    {
      "labels": [],
      "source": null,
      "text": ".Linfo_string101:"
    },
    {
      "labels": [],
      "source": null,
      "text": "        .asciz  \"_ZNKSt15__exception_ptr13exception_ptrcvbEv\" # string offset=1709"
    },
    {
      "labels": [],
      "source": null,
      "text": ".Linfo_string102:"
    },
    {
      "labels": [],
      "source": null,
      "text": "        .asciz  \"operator bool\"         # string offset=1753"
    },
    {
      "labels": [],
      "source": null,
      "text": ".Linfo_string103:"
    },
    {
      "labels": [],
      "source": null,
      "text": "        .asciz  \"_ZNKSt15__exception_ptr13exception_ptr20__cxa_exception_typeEv\" # string offset=1767"
    },
    {
      "labels": [],
      "source": null,
      "text": ".Linfo_string104:"
    },
    {
      "labels": [],
      "source": null,
      "text": "        .asciz  \"__cxa_exception_type\"  # string offset=1830"
    },
    {
      "labels": [],
      "source": null,
      "text": ".Linfo_string105:"
    },
    {
      "labels": [],
      "source": null,
      "text": "        .asciz  \"type_info\"             # string offset=1851"
    },
    {
      "labels": [],
      "source": null,
      "text": ".Linfo_string106:"
    },
    {
      "labels": [],
      "source": null,
      "text": "        .asciz  \"_ZSt17rethrow_exceptionNSt15__exception_ptr13exception_ptrE\" # string offset=1861"
    },
    {
      "labels": [],
      "source": null,
      "text": ".Linfo_string107:"
    },
    {
      "labels": [],
      "source": null,
      "text": "        .asciz  \"rethrow_exception\"     # string offset=1921"
    },
    {
      "labels": [],
      "source": null,
      "text": ".Linfo_string108:"
    },
    {
      "labels": [],
      "source": null,
      "text": "        .asciz  \"__gnu_debug\"           # string offset=1939"
    },
    {
      "labels": [],
      "source": null,
      "text": ".Linfo_string109:"
    },
    {
      "labels": [],
      "source": null,
      "text": "        .asciz  \"__debug\"               # string offset=1951"
    },
    {
      "labels": [],
      "source": null,
      "text": ".Linfo_string110:"
    },
    {
      "labels": [],
      "source": null,
      "text": "        .asciz  \"__count\"               # string offset=1959"
    },
    {
      "labels": [],
      "source": null,
      "text": ".Linfo_string111:"
    },
    {
      "labels": [],
      "source": null,
      "text": "        .asciz  \"__value\"               # string offset=1967"
    },
    {
      "labels": [],
      "source": null,
      "text": ".Linfo_string112:"
    },
    {
      "labels": [],
      "source": null,
      "text": "        .asciz  \"__wch\"                 # string offset=1975"
    },
    {
      "labels": [],
      "source": null,
      "text": ".Linfo_string113:"
    },
    {
      "labels": [],
      "source": null,
      "text": "        .asciz  \"__wchb\"                # string offset=1981"
    },
    {
      "labels": [],
      "source": null,
      "text": ".Linfo_string114:"
    },
    {
      "labels": [],
      "source": null,
      "text": "        .asciz  \"__mbstate_t\"           # string offset=1988"
    },
    {
      "labels": [],
      "source": null,
      "text": ".Linfo_string115:"
    },
    {
      "labels": [],
      "source": null,
      "text": "        .asciz  \"mbstate_t\"             # string offset=2000"
    },
    {
      "labels": [],
      "source": null,
      "text": ".Linfo_string116:"
    },
    {
      "labels": [],
      "source": null,
      "text": "        .asciz  \"wint_t\"                # string offset=2010"
    },
    {
      "labels": [],
      "source": null,
      "text": ".Linfo_string117:"
    },
    {
      "labels": [],
      "source": null,
      "text": "        .asciz  \"btowc\"                 # string offset=2017"
    },
    {
      "labels": [],
      "source": null,
      "text": ".Linfo_string118:"
    },
    {
      "labels": [],
      "source": null,
      "text": "        .asciz  \"fgetwc\"                # string offset=2023"
    },
    {
      "labels": [],
      "source": null,
      "text": ".Linfo_string119:"
    },
    {
      "labels": [],
      "source": null,
      "text": "        .asciz  \"_flags\"                # string offset=2030"
    },
    {
      "labels": [],
      "source": null,
      "text": ".Linfo_string120:"
    },
    {
      "labels": [],
      "source": null,
      "text": "        .asciz  \"_IO_read_ptr\"          # string offset=2037"
    },
    {
      "labels": [],
      "source": null,
      "text": ".Linfo_string121:"
    },
    {
      "labels": [],
      "source": null,
      "text": "        .asciz  \"_IO_read_end\"          # string offset=2050"
    },
    {
      "labels": [],
      "source": null,
      "text": ".Linfo_string122:"
    },
    {
      "labels": [],
      "source": null,
      "text": "        .asciz  \"_IO_read_base\"         # string offset=2063"
    },
    {
      "labels": [],
      "source": null,
      "text": ".Linfo_string123:"
    },
    {
      "labels": [],
      "source": null,
      "text": "        .asciz  \"_IO_write_base\"        # string offset=2077"
    },
    {
      "labels": [],
      "source": null,
      "text": ".Linfo_string124:"
    },
    {
      "labels": [],
      "source": null,
      "text": "        .asciz  \"_IO_write_ptr\"         # string offset=2092"
    },
    {
      "labels": [],
      "source": null,
      "text": ".Linfo_string125:"
    },
    {
      "labels": [],
      "source": null,
      "text": "        .asciz  \"_IO_write_end\"         # string offset=2106"
    },
    {
      "labels": [],
      "source": null,
      "text": ".Linfo_string126:"
    },
    {
      "labels": [],
      "source": null,
      "text": "        .asciz  \"_IO_buf_base\"          # string offset=2120"
    },
    {
      "labels": [],
      "source": null,
      "text": ".Linfo_string127:"
    },
    {
      "labels": [],
      "source": null,
      "text": "        .asciz  \"_IO_buf_end\"           # string offset=2133"
    },
    {
      "labels": [],
      "source": null,
      "text": ".Linfo_string128:"
    },
    {
      "labels": [],
      "source": null,
      "text": "        .asciz  \"_IO_save_base\"         # string offset=2145"
    },
    {
      "labels": [],
      "source": null,
      "text": ".Linfo_string129:"
    },
    {
      "labels": [],
      "source": null,
      "text": "        .asciz  \"_IO_backup_base\"       # string offset=2159"
    },
    {
      "labels": [],
      "source": null,
      "text": ".Linfo_string130:"
    },
    {
      "labels": [],
      "source": null,
      "text": "        .asciz  \"_IO_save_end\"          # string offset=2175"
    },
    {
      "labels": [],
      "source": null,
      "text": ".Linfo_string131:"
    },
    {
      "labels": [],
      "source": null,
      "text": "        .asciz  \"_markers\"              # string offset=2188"
    },
    {
      "labels": [],
      "source": null,
      "text": ".Linfo_string132:"
    },
    {
      "labels": [],
      "source": null,
      "text": "        .asciz  \"_IO_marker\"            # string offset=2197"
    },
    {
      "labels": [],
      "source": null,
      "text": ".Linfo_string133:"
    },
    {
      "labels": [],
      "source": null,
      "text": "        .asciz  \"_chain\"                # string offset=2208"
    },
    {
      "labels": [],
      "source": null,
      "text": ".Linfo_string134:"
    },
    {
      "labels": [],
      "source": null,
      "text": "        .asciz  \"_fileno\"               # string offset=2215"
    },
    {
      "labels": [],
      "source": null,
      "text": ".Linfo_string135:"
    },
    {
      "labels": [],
      "source": null,
      "text": "        .asciz  \"_flags2\"               # string offset=2223"
    },
    {
      "labels": [],
      "source": null,
      "text": ".Linfo_string136:"
    },
    {
      "labels": [],
      "source": null,
      "text": "        .asciz  \"_old_offset\"           # string offset=2231"
    },
    {
      "labels": [],
      "source": null,
      "text": ".Linfo_string137:"
    },
    {
      "labels": [],
      "source": null,
      "text": "        .asciz  \"__off_t\"               # string offset=2243"
    },
    {
      "labels": [],
      "source": null,
      "text": ".Linfo_string138:"
    },
    {
      "labels": [],
      "source": null,
      "text": "        .asciz  \"_cur_column\"           # string offset=2251"
    },
    {
      "labels": [],
      "source": null,
      "text": ".Linfo_string139:"
    },
    {
      "labels": [],
      "source": null,
      "text": "        .asciz  \"_vtable_offset\"        # string offset=2263"
    },
    {
      "labels": [],
      "source": null,
      "text": ".Linfo_string140:"
    },
    {
      "labels": [],
      "source": null,
      "text": "        .asciz  \"_shortbuf\"             # string offset=2278"
    },
    {
      "labels": [],
      "source": null,
      "text": ".Linfo_string141:"
    },
    {
      "labels": [],
      "source": null,
      "text": "        .asciz  \"_lock\"                 # string offset=2288"
    },
    {
      "labels": [],
      "source": null,
      "text": ".Linfo_string142:"
    },
    {
      "labels": [],
      "source": null,
      "text": "        .asciz  \"_IO_lock_t\"            # string offset=2294"
    },
    {
      "labels": [],
      "source": null,
      "text": ".Linfo_string143:"
    },
    {
      "labels": [],
      "source": null,
      "text": "        .asciz  \"_offset\"               # string offset=2305"
    },
    {
      "labels": [],
      "source": null,
      "text": ".Linfo_string144:"
    },
    {
      "labels": [],
      "source": null,
      "text": "        .asciz  \"__off64_t\"             # string offset=2313"
    },
    {
      "labels": [],
      "source": null,
      "text": ".Linfo_string145:"
    },
    {
      "labels": [],
      "source": null,
      "text": "        .asciz  \"__pad1\"                # string offset=2323"
    },
    {
      "labels": [],
      "source": null,
      "text": ".Linfo_string146:"
    },
    {
      "labels": [],
      "source": null,
      "text": "        .asciz  \"__pad2\"                # string offset=2330"
    },
    {
      "labels": [],
      "source": null,
      "text": ".Linfo_string147:"
    },
    {
      "labels": [],
      "source": null,
      "text": "        .asciz  \"__pad3\"                # string offset=2337"
    },
    {
      "labels": [],
      "source": null,
      "text": ".Linfo_string148:"
    },
    {
      "labels": [],
      "source": null,
      "text": "        .asciz  \"__pad4\"                # string offset=2344"
    },
    {
      "labels": [],
      "source": null,
      "text": ".Linfo_string149:"
    },
    {
      "labels": [],
      "source": null,
      "text": "        .asciz  \"__pad5\"                # string offset=2351"
    },
    {
      "labels": [],
      "source": null,
      "text": ".Linfo_string150:"
    },
    {
      "labels": [],
      "source": null,
      "text": "        .asciz  \"_mode\"                 # string offset=2358"
    },
    {
      "labels": [],
      "source": null,
      "text": ".Linfo_string151:"
    },
    {
      "labels": [],
      "source": null,
      "text": "        .asciz  \"_unused2\"              # string offset=2364"
    },
    {
      "labels": [],
      "source": null,
      "text": ".Linfo_string152:"
    },
    {
      "labels": [],
      "source": null,
      "text": "        .asciz  \"_IO_FILE\"              # string offset=2373"
    },
    {
      "labels": [],
      "source": null,
      "text": ".Linfo_string153:"
    },
    {
      "labels": [],
      "source": null,
      "text": "        .asciz  \"__FILE\"                # string offset=2382"
    },
    {
      "labels": [],
      "source": null,
      "text": ".Linfo_string154:"
    },
    {
      "labels": [],
      "source": null,
      "text": "        .asciz  \"fgetws\"                # string offset=2389"
    },
    {
      "labels": [],
      "source": null,
      "text": ".Linfo_string155:"
    },
    {
      "labels": [],
      "source": null,
      "text": "        .asciz  \"wchar_t\"               # string offset=2396"
    },
    {
      "labels": [],
      "source": null,
      "text": ".Linfo_string156:"
    },
    {
      "labels": [],
      "source": null,
      "text": "        .asciz  \"fputwc\"                # string offset=2404"
    },
    {
      "labels": [],
      "source": null,
      "text": ".Linfo_string157:"
    },
    {
      "labels": [],
      "source": null,
      "text": "        .asciz  \"fputws\"                # string offset=2411"
    },
    {
      "labels": [],
      "source": null,
      "text": ".Linfo_string158:"
    },
    {
      "labels": [],
      "source": null,
      "text": "        .asciz  \"fwide\"                 # string offset=2418"
    },
    {
      "labels": [],
      "source": null,
      "text": ".Linfo_string159:"
    },
    {
      "labels": [],
      "source": null,
      "text": "        .asciz  \"fwprintf\"              # string offset=2424"
    },
    {
      "labels": [],
      "source": null,
      "text": ".Linfo_string160:"
    },
    {
      "labels": [],
      "source": null,
      "text": "        .asciz  \"fwscanf\"               # string offset=2433"
    },
    {
      "labels": [],
      "source": null,
      "text": ".Linfo_string161:"
    },
    {
      "labels": [],
      "source": null,
      "text": "        .asciz  \"getwc\"                 # string offset=2441"
    },
    {
      "labels": [],
      "source": null,
      "text": ".Linfo_string162:"
    },
    {
      "labels": [],
      "source": null,
      "text": "        .asciz  \"getwchar\"              # string offset=2447"
    },
    {
      "labels": [],
      "source": null,
      "text": ".Linfo_string163:"
    },
    {
      "labels": [],
      "source": null,
      "text": "        .asciz  \"mbrlen\"                # string offset=2456"
    },
    {
      "labels": [],
      "source": null,
      "text": ".Linfo_string164:"
    },
    {
      "labels": [],
      "source": null,
      "text": "        .asciz  \"mbrtowc\"               # string offset=2463"
    },
    {
      "labels": [],
      "source": null,
      "text": ".Linfo_string165:"
    },
    {
      "labels": [],
      "source": null,
      "text": "        .asciz  \"mbsinit\"               # string offset=2471"
    },
    {
      "labels": [],
      "source": null,
      "text": ".Linfo_string166:"
    },
    {
      "labels": [],
      "source": null,
      "text": "        .asciz  \"mbsrtowcs\"             # string offset=2479"
    },
    {
      "labels": [],
      "source": null,
      "text": ".Linfo_string167:"
    },
    {
      "labels": [],
      "source": null,
      "text": "        .asciz  \"putwc\"                 # string offset=2489"
    },
    {
      "labels": [],
      "source": null,
      "text": ".Linfo_string168:"
    },
    {
      "labels": [],
      "source": null,
      "text": "        .asciz  \"putwchar\"              # string offset=2495"
    },
    {
      "labels": [],
      "source": null,
      "text": ".Linfo_string169:"
    },
    {
      "labels": [],
      "source": null,
      "text": "        .asciz  \"swprintf\"              # string offset=2504"
    },
    {
      "labels": [],
      "source": null,
      "text": ".Linfo_string170:"
    },
    {
      "labels": [],
      "source": null,
      "text": "        .asciz  \"swscanf\"               # string offset=2513"
    },
    {
      "labels": [],
      "source": null,
      "text": ".Linfo_string171:"
    },
    {
      "labels": [],
      "source": null,
      "text": "        .asciz  \"ungetwc\"               # string offset=2521"
    },
    {
      "labels": [],
      "source": null,
      "text": ".Linfo_string172:"
    },
    {
      "labels": [],
      "source": null,
      "text": "        .asciz  \"vfwprintf\"             # string offset=2529"
    },
    {
      "labels": [],
      "source": null,
      "text": ".Linfo_string173:"
    },
    {
      "labels": [],
      "source": null,
      "text": "        .asciz  \"gp_offset\"             # string offset=2539"
    },
    {
      "labels": [],
      "source": null,
      "text": ".Linfo_string174:"
    },
    {
      "labels": [],
      "source": null,
      "text": "        .asciz  \"fp_offset\"             # string offset=2549"
    },
    {
      "labels": [],
      "source": null,
      "text": ".Linfo_string175:"
    },
    {
      "labels": [],
      "source": null,
      "text": "        .asciz  \"overflow_arg_area\"     # string offset=2559"
    },
    {
      "labels": [],
      "source": null,
      "text": ".Linfo_string176:"
    },
    {
      "labels": [],
      "source": null,
      "text": "        .asciz  \"reg_save_area\"         # string offset=2577"
    },
    {
      "labels": [],
      "source": null,
      "text": ".Linfo_string177:"
    },
    {
      "labels": [],
      "source": null,
      "text": "        .asciz  \"__va_list_tag\"         # string offset=2591"
    },
    {
      "labels": [],
      "source": null,
      "text": ".Linfo_string178:"
    },
    {
      "labels": [],
      "source": null,
      "text": "        .asciz  \"vfwscanf\"              # string offset=2605"
    },
    {
      "labels": [],
      "source": null,
      "text": ".Linfo_string179:"
    },
    {
      "labels": [],
      "source": null,
      "text": "        .asciz  \"vswprintf\"             # string offset=2614"
    },
    {
      "labels": [],
      "source": null,
      "text": ".Linfo_string180:"
    },
    {
      "labels": [],
      "source": null,
      "text": "        .asciz  \"vswscanf\"              # string offset=2624"
    },
    {
      "labels": [],
      "source": null,
      "text": ".Linfo_string181:"
    },
    {
      "labels": [],
      "source": null,
      "text": "        .asciz  \"vwprintf\"              # string offset=2633"
    },
    {
      "labels": [],
      "source": null,
      "text": ".Linfo_string182:"
    },
    {
      "labels": [],
      "source": null,
      "text": "        .asciz  \"vwscanf\"               # string offset=2642"
    },
    {
      "labels": [],
      "source": null,
      "text": ".Linfo_string183:"
    },
    {
      "labels": [],
      "source": null,
      "text": "        .asciz  \"wcrtomb\"               # string offset=2650"
    },
    {
      "labels": [],
      "source": null,
      "text": ".Linfo_string184:"
    },
    {
      "labels": [],
      "source": null,
      "text": "        .asciz  \"wcscat\"                # string offset=2658"
    },
    {
      "labels": [],
      "source": null,
      "text": ".Linfo_string185:"
    },
    {
      "labels": [],
      "source": null,
      "text": "        .asciz  \"wcscmp\"                # string offset=2665"
    },
    {
      "labels": [],
      "source": null,
      "text": ".Linfo_string186:"
    },
    {
      "labels": [],
      "source": null,
      "text": "        .asciz  \"wcscoll\"               # string offset=2672"
    },
    {
      "labels": [],
      "source": null,
      "text": ".Linfo_string187:"
    },
    {
      "labels": [],
      "source": null,
      "text": "        .asciz  \"wcscpy\"                # string offset=2680"
    },
    {
      "labels": [],
      "source": null,
      "text": ".Linfo_string188:"
    },
    {
      "labels": [],
      "source": null,
      "text": "        .asciz  \"wcscspn\"               # string offset=2687"
    },
    {
      "labels": [],
      "source": null,
      "text": ".Linfo_string189:"
    },
    {
      "labels": [],
      "source": null,
      "text": "        .asciz  \"wcsftime\"              # string offset=2695"
    },
    {
      "labels": [],
      "source": null,
      "text": ".Linfo_string190:"
    },
    {
      "labels": [],
      "source": null,
      "text": "        .asciz  \"tm\"                    # string offset=2704"
    },
    {
      "labels": [],
      "source": null,
      "text": ".Linfo_string191:"
    },
    {
      "labels": [],
      "source": null,
      "text": "        .asciz  \"wcslen\"                # string offset=2707"
    },
    {
      "labels": [],
      "source": null,
      "text": ".Linfo_string192:"
    },
    {
      "labels": [],
      "source": null,
      "text": "        .asciz  \"wcsncat\"               # string offset=2714"
    },
    {
      "labels": [],
      "source": null,
      "text": ".Linfo_string193:"
    },
    {
      "labels": [],
      "source": null,
      "text": "        .asciz  \"wcsncmp\"               # string offset=2722"
    },
    {
      "labels": [],
      "source": null,
      "text": ".Linfo_string194:"
    },
    {
      "labels": [],
      "source": null,
      "text": "        .asciz  \"wcsncpy\"               # string offset=2730"
    },
    {
      "labels": [],
      "source": null,
      "text": ".Linfo_string195:"
    },
    {
      "labels": [],
      "source": null,
      "text": "        .asciz  \"wcsrtombs\"             # string offset=2738"
    },
    {
      "labels": [],
      "source": null,
      "text": ".Linfo_string196:"
    },
    {
      "labels": [],
      "source": null,
      "text": "        .asciz  \"wcsspn\"                # string offset=2748"
    },
    {
      "labels": [],
      "source": null,
      "text": ".Linfo_string197:"
    },
    {
      "labels": [],
      "source": null,
      "text": "        .asciz  \"wcstod\"                # string offset=2755"
    },
    {
      "labels": [],
      "source": null,
      "text": ".Linfo_string198:"
    },
    {
      "labels": [],
      "source": null,
      "text": "        .asciz  \"double\"                # string offset=2762"
    },
    {
      "labels": [],
      "source": null,
      "text": ".Linfo_string199:"
    },
    {
      "labels": [],
      "source": null,
      "text": "        .asciz  \"wcstof\"                # string offset=2769"
    },
    {
      "labels": [],
      "source": null,
      "text": ".Linfo_string200:"
    },
    {
      "labels": [],
      "source": null,
      "text": "        .asciz  \"float\"                 # string offset=2776"
    },
    {
      "labels": [],
      "source": null,
      "text": ".Linfo_string201:"
    },
    {
      "labels": [],
      "source": null,
      "text": "        .asciz  \"wcstok\"                # string offset=2782"
    },
    {
      "labels": [],
      "source": null,
      "text": ".Linfo_string202:"
    },
    {
      "labels": [],
      "source": null,
      "text": "        .asciz  \"wcstol\"                # string offset=2789"
    },
    {
      "labels": [],
      "source": null,
      "text": ".Linfo_string203:"
    },
    {
      "labels": [],
      "source": null,
      "text": "        .asciz  \"wcstoul\"               # string offset=2796"
    },
    {
      "labels": [],
      "source": null,
      "text": ".Linfo_string204:"
    },
    {
      "labels": [],
      "source": null,
      "text": "        .asciz  \"wcsxfrm\"               # string offset=2804"
    },
    {
      "labels": [],
      "source": null,
      "text": ".Linfo_string205:"
    },
    {
      "labels": [],
      "source": null,
      "text": "        .asciz  \"wctob\"                 # string offset=2812"
    },
    {
      "labels": [],
      "source": null,
      "text": ".Linfo_string206:"
    },
    {
      "labels": [],
      "source": null,
      "text": "        .asciz  \"wmemcmp\"               # string offset=2818"
    },
    {
      "labels": [],
      "source": null,
      "text": ".Linfo_string207:"
    },
    {
      "labels": [],
      "source": null,
      "text": "        .asciz  \"wmemcpy\"               # string offset=2826"
    },
    {
      "labels": [],
      "source": null,
      "text": ".Linfo_string208:"
    },
    {
      "labels": [],
      "source": null,
      "text": "        .asciz  \"wmemmove\"              # string offset=2834"
    },
    {
      "labels": [],
      "source": null,
      "text": ".Linfo_string209:"
    },
    {
      "labels": [],
      "source": null,
      "text": "        .asciz  \"wmemset\"               # string offset=2843"
    },
    {
      "labels": [],
      "source": null,
      "text": ".Linfo_string210:"
    },
    {
      "labels": [],
      "source": null,
      "text": "        .asciz  \"wprintf\"               # string offset=2851"
    },
    {
      "labels": [],
      "source": null,
      "text": ".Linfo_string211:"
    },
    {
      "labels": [],
      "source": null,
      "text": "        .asciz  \"wscanf\"                # string offset=2859"
    },
    {
      "labels": [],
      "source": null,
      "text": ".Linfo_string212:"
    },
    {
      "labels": [],
      "source": null,
      "text": "        .asciz  \"wcschr\"                # string offset=2866"
    },
    {
      "labels": [],
      "source": null,
      "text": ".Linfo_string213:"
    },
    {
      "labels": [],
      "source": null,
      "text": "        .asciz  \"wcspbrk\"               # string offset=2873"
    },
    {
      "labels": [],
      "source": null,
      "text": ".Linfo_string214:"
    },
    {
      "labels": [],
      "source": null,
      "text": "        .asciz  \"wcsrchr\"               # string offset=2881"
    },
    {
      "labels": [],
      "source": null,
      "text": ".Linfo_string215:"
    },
    {
      "labels": [],
      "source": null,
      "text": "        .asciz  \"wcsstr\"                # string offset=2889"
    },
    {
      "labels": [],
      "source": null,
      "text": ".Linfo_string216:"
    },
    {
      "labels": [],
      "source": null,
      "text": "        .asciz  \"wmemchr\"               # string offset=2896"
    },
    {
      "labels": [],
      "source": null,
      "text": ".Linfo_string217:"
    },
    {
      "labels": [],
      "source": null,
      "text": "        .asciz  \"__gnu_cxx\"             # string offset=2904"
    },
    {
      "labels": [],
      "source": null,
      "text": ".Linfo_string218:"
    },
    {
      "labels": [],
      "source": null,
      "text": "        .asciz  \"wcstold\"               # string offset=2914"
    },
    {
      "labels": [],
      "source": null,
      "text": ".Linfo_string219:"
    },
    {
      "labels": [],
      "source": null,
      "text": "        .asciz  \"long double\"           # string offset=2922"
    },
    {
      "labels": [],
      "source": null,
      "text": ".Linfo_string220:"
    },
    {
      "labels": [],
      "source": null,
      "text": "        .asciz  \"wcstoll\"               # string offset=2934"
    },
    {
      "labels": [],
      "source": null,
      "text": ".Linfo_string221:"
    },
    {
      "labels": [],
      "source": null,
      "text": "        .asciz  \"long long int\"         # string offset=2942"
    },
    {
      "labels": [],
      "source": null,
      "text": ".Linfo_string222:"
    },
    {
      "labels": [],
      "source": null,
      "text": "        .asciz  \"wcstoull\"              # string offset=2956"
    },
    {
      "labels": [],
      "source": null,
      "text": ".Linfo_string223:"
    },
    {
      "labels": [],
      "source": null,
      "text": "        .asciz  \"long long unsigned int\" # string offset=2965"
    },
    {
      "labels": [],
      "source": null,
      "text": ".Linfo_string224:"
    },
    {
      "labels": [],
      "source": null,
      "text": "        .asciz  \"ptrdiff_t\"             # string offset=2988"
    },
    {
      "labels": [],
      "source": null,
      "text": ".Linfo_string225:"
    },
    {
      "labels": [],
      "source": null,
      "text": "        .asciz  \"lconv\"                 # string offset=2998"
    },
    {
      "labels": [],
      "source": null,
      "text": ".Linfo_string226:"
    },
    {
      "labels": [],
      "source": null,
      "text": "        .asciz  \"setlocale\"             # string offset=3004"
    },
    {
      "labels": [],
      "source": null,
      "text": ".Linfo_string227:"
    },
    {
      "labels": [],
      "source": null,
      "text": "        .asciz  \"localeconv\"            # string offset=3014"
    },
    {
      "labels": [],
      "source": null,
      "text": ".Linfo_string228:"
    },
    {
      "labels": [],
      "source": null,
      "text": "        .asciz  \"isalnum\"               # string offset=3025"
    },
    {
      "labels": [],
      "source": null,
      "text": ".Linfo_string229:"
    },
    {
      "labels": [],
      "source": null,
      "text": "        .asciz  \"isalpha\"               # string offset=3033"
    },
    {
      "labels": [],
      "source": null,
      "text": ".Linfo_string230:"
    },
    {
      "labels": [],
      "source": null,
      "text": "        .asciz  \"iscntrl\"               # string offset=3041"
    },
    {
      "labels": [],
      "source": null,
      "text": ".Linfo_string231:"
    },
    {
      "labels": [],
      "source": null,
      "text": "        .asciz  \"isdigit\"               # string offset=3049"
    },
    {
      "labels": [],
      "source": null,
      "text": ".Linfo_string232:"
    },
    {
      "labels": [],
      "source": null,
      "text": "        .asciz  \"isgraph\"               # string offset=3057"
    },
    {
      "labels": [],
      "source": null,
      "text": ".Linfo_string233:"
    },
    {
      "labels": [],
      "source": null,
      "text": "        .asciz  \"islower\"               # string offset=3065"
    },
    {
      "labels": [],
      "source": null,
      "text": ".Linfo_string234:"
    },
    {
      "labels": [],
      "source": null,
      "text": "        .asciz  \"isprint\"               # string offset=3073"
    },
    {
      "labels": [],
      "source": null,
      "text": ".Linfo_string235:"
    },
    {
      "labels": [],
      "source": null,
      "text": "        .asciz  \"ispunct\"               # string offset=3081"
    },
    {
      "labels": [],
      "source": null,
      "text": ".Linfo_string236:"
    },
    {
      "labels": [],
      "source": null,
      "text": "        .asciz  \"isspace\"               # string offset=3089"
    },
    {
      "labels": [],
      "source": null,
      "text": ".Linfo_string237:"
    },
    {
      "labels": [],
      "source": null,
      "text": "        .asciz  \"isupper\"               # string offset=3097"
    },
    {
      "labels": [],
      "source": null,
      "text": ".Linfo_string238:"
    },
    {
      "labels": [],
      "source": null,
      "text": "        .asciz  \"isxdigit\"              # string offset=3105"
    },
    {
      "labels": [],
      "source": null,
      "text": ".Linfo_string239:"
    },
    {
      "labels": [],
      "source": null,
      "text": "        .asciz  \"tolower\"               # string offset=3114"
    },
    {
      "labels": [],
      "source": null,
      "text": ".Linfo_string240:"
    },
    {
      "labels": [],
      "source": null,
      "text": "        .asciz  \"toupper\"               # string offset=3122"
    },
    {
      "labels": [],
      "source": null,
      "text": ".Linfo_string241:"
    },
    {
      "labels": [],
      "source": null,
      "text": "        .asciz  \"isblank\"               # string offset=3130"
    },
    {
      "labels": [],
      "source": null,
      "text": ".Linfo_string242:"
    },
    {
      "labels": [],
      "source": null,
      "text": "        .asciz  \"abs\"                   # string offset=3138"
    },
    {
      "labels": [],
      "source": null,
      "text": ".Linfo_string243:"
    },
    {
      "labels": [],
      "source": null,
      "text": "        .asciz  \"div_t\"                 # string offset=3142"
    },
    {
      "labels": [],
      "source": null,
      "text": ".Linfo_string244:"
    },
    {
      "labels": [],
      "source": null,
      "text": "        .asciz  \"quot\"                  # string offset=3148"
    },
    {
      "labels": [],
      "source": null,
      "text": ".Linfo_string245:"
    },
    {
      "labels": [],
      "source": null,
      "text": "        .asciz  \"rem\"                   # string offset=3153"
    },
    {
      "labels": [],
      "source": null,
      "text": ".Linfo_string246:"
    },
    {
      "labels": [],
      "source": null,
      "text": "        .asciz  \"ldiv_t\"                # string offset=3157"
    },
    {
      "labels": [],
      "source": null,
      "text": ".Linfo_string247:"
    },
    {
      "labels": [],
      "source": null,
      "text": "        .asciz  \"abort\"                 # string offset=3164"
    },
    {
      "labels": [],
      "source": null,
      "text": ".Linfo_string248:"
    },
    {
      "labels": [],
      "source": null,
      "text": "        .asciz  \"aligned_alloc\"         # string offset=3170"
    },
    {
      "labels": [],
      "source": null,
      "text": ".Linfo_string249:"
    },
    {
      "labels": [],
      "source": null,
      "text": "        .asciz  \"atexit\"                # string offset=3184"
    },
    {
      "labels": [],
      "source": null,
      "text": ".Linfo_string250:"
    },
    {
      "labels": [],
      "source": null,
      "text": "        .asciz  \"at_quick_exit\"         # string offset=3191"
    },
    {
      "labels": [],
      "source": null,
      "text": ".Linfo_string251:"
    },
    {
      "labels": [],
      "source": null,
      "text": "        .asciz  \"atof\"                  # string offset=3205"
    },
    {
      "labels": [],
      "source": null,
      "text": ".Linfo_string252:"
    },
    {
      "labels": [],
      "source": null,
      "text": "        .asciz  \"atoi\"                  # string offset=3210"
    },
    {
      "labels": [],
      "source": null,
      "text": ".Linfo_string253:"
    },
    {
      "labels": [],
      "source": null,
      "text": "        .asciz  \"atol\"                  # string offset=3215"
    },
    {
      "labels": [],
      "source": null,
      "text": ".Linfo_string254:"
    },
    {
      "labels": [],
      "source": null,
      "text": "        .asciz  \"bsearch\"               # string offset=3220"
    },
    {
      "labels": [],
      "source": null,
      "text": ".Linfo_string255:"
    },
    {
      "labels": [],
      "source": null,
      "text": "        .asciz  \"__compar_fn_t\"         # string offset=3228"
    },
    {
      "labels": [],
      "source": null,
      "text": ".Linfo_string256:"
    },
    {
      "labels": [],
      "source": null,
      "text": "        .asciz  \"calloc\"                # string offset=3242"
    },
    {
      "labels": [],
      "source": null,
      "text": ".Linfo_string257:"
    },
    {
      "labels": [],
      "source": null,
      "text": "        .asciz  \"div\"                   # string offset=3249"
    },
    {
      "labels": [],
      "source": null,
      "text": ".Linfo_string258:"
    },
    {
      "labels": [],
      "source": null,
      "text": "        .asciz  \"exit\"                  # string offset=3253"
    },
    {
      "labels": [],
      "source": null,
      "text": ".Linfo_string259:"
    },
    {
      "labels": [],
      "source": null,
      "text": "        .asciz  \"free\"                  # string offset=3258"
    },
    {
      "labels": [],
      "source": null,
      "text": ".Linfo_string260:"
    },
    {
      "labels": [],
      "source": null,
      "text": "        .asciz  \"getenv\"                # string offset=3263"
    },
    {
      "labels": [],
      "source": null,
      "text": ".Linfo_string261:"
    },
    {
      "labels": [],
      "source": null,
      "text": "        .asciz  \"labs\"                  # string offset=3270"
    },
    {
      "labels": [],
      "source": null,
      "text": ".Linfo_string262:"
    },
    {
      "labels": [],
      "source": null,
      "text": "        .asciz  \"ldiv\"                  # string offset=3275"
    },
    {
      "labels": [],
      "source": null,
      "text": ".Linfo_string263:"
    },
    {
      "labels": [],
      "source": null,
      "text": "        .asciz  \"malloc\"                # string offset=3280"
    },
    {
      "labels": [],
      "source": null,
      "text": ".Linfo_string264:"
    },
    {
      "labels": [],
      "source": null,
      "text": "        .asciz  \"mblen\"                 # string offset=3287"
    },
    {
      "labels": [],
      "source": null,
      "text": ".Linfo_string265:"
    },
    {
      "labels": [],
      "source": null,
      "text": "        .asciz  \"mbstowcs\"              # string offset=3293"
    },
    {
      "labels": [],
      "source": null,
      "text": ".Linfo_string266:"
    },
    {
      "labels": [],
      "source": null,
      "text": "        .asciz  \"mbtowc\"                # string offset=3302"
    },
    {
      "labels": [],
      "source": null,
      "text": ".Linfo_string267:"
    },
    {
      "labels": [],
      "source": null,
      "text": "        .asciz  \"qsort\"                 # string offset=3309"
    },
    {
      "labels": [],
      "source": null,
      "text": ".Linfo_string268:"
    },
    {
      "labels": [],
      "source": null,
      "text": "        .asciz  \"quick_exit\"            # string offset=3315"
    },
    {
      "labels": [],
      "source": null,
      "text": ".Linfo_string269:"
    },
    {
      "labels": [],
      "source": null,
      "text": "        .asciz  \"rand\"                  # string offset=3326"
    },
    {
      "labels": [],
      "source": null,
      "text": ".Linfo_string270:"
    },
    {
      "labels": [],
      "source": null,
      "text": "        .asciz  \"realloc\"               # string offset=3331"
    },
    {
      "labels": [],
      "source": null,
      "text": ".Linfo_string271:"
    },
    {
      "labels": [],
      "source": null,
      "text": "        .asciz  \"srand\"                 # string offset=3339"
    },
    {
      "labels": [],
      "source": null,
      "text": ".Linfo_string272:"
    },
    {
      "labels": [],
      "source": null,
      "text": "        .asciz  \"strtod\"                # string offset=3345"
    },
    {
      "labels": [],
      "source": null,
      "text": ".Linfo_string273:"
    },
    {
      "labels": [],
      "source": null,
      "text": "        .asciz  \"strtol\"                # string offset=3352"
    },
    {
      "labels": [],
      "source": null,
      "text": ".Linfo_string274:"
    },
    {
      "labels": [],
      "source": null,
      "text": "        .asciz  \"strtoul\"               # string offset=3359"
    },
    {
      "labels": [],
      "source": null,
      "text": ".Linfo_string275:"
    },
    {
      "labels": [],
      "source": null,
      "text": "        .asciz  \"system\"                # string offset=3367"
    },
    {
      "labels": [],
      "source": null,
      "text": ".Linfo_string276:"
    },
    {
      "labels": [],
      "source": null,
      "text": "        .asciz  \"wcstombs\"              # string offset=3374"
    },
    {
      "labels": [],
      "source": null,
      "text": ".Linfo_string277:"
    },
    {
      "labels": [],
      "source": null,
      "text": "        .asciz  \"wctomb\"                # string offset=3383"
    },
    {
      "labels": [],
      "source": null,
      "text": ".Linfo_string278:"
    },
    {
      "labels": [],
      "source": null,
      "text": "        .asciz  \"lldiv_t\"               # string offset=3390"
    },
    {
      "labels": [],
      "source": null,
      "text": ".Linfo_string279:"
    },
    {
      "labels": [],
      "source": null,
      "text": "        .asciz  \"_Exit\"                 # string offset=3398"
    },
    {
      "labels": [],
      "source": null,
      "text": ".Linfo_string280:"
    },
    {
      "labels": [],
      "source": null,
      "text": "        .asciz  \"llabs\"                 # string offset=3404"
    },
    {
      "labels": [],
      "source": null,
      "text": ".Linfo_string281:"
    },
    {
      "labels": [],
      "source": null,
      "text": "        .asciz  \"lldiv\"                 # string offset=3410"
    },
    {
      "labels": [],
      "source": null,
      "text": ".Linfo_string282:"
    },
    {
      "labels": [],
      "source": null,
      "text": "        .asciz  \"atoll\"                 # string offset=3416"
    },
    {
      "labels": [],
      "source": null,
      "text": ".Linfo_string283:"
    },
    {
      "labels": [],
      "source": null,
      "text": "        .asciz  \"strtoll\"               # string offset=3422"
    },
    {
      "labels": [],
      "source": null,
      "text": ".Linfo_string284:"
    },
    {
      "labels": [],
      "source": null,
      "text": "        .asciz  \"strtoull\"              # string offset=3430"
    },
    {
      "labels": [],
      "source": null,
      "text": ".Linfo_string285:"
    },
    {
      "labels": [],
      "source": null,
      "text": "        .asciz  \"strtof\"                # string offset=3439"
    },
    {
      "labels": [],
      "source": null,
      "text": ".Linfo_string286:"
    },
    {
      "labels": [],
      "source": null,
      "text": "        .asciz  \"strtold\"               # string offset=3446"
    },
    {
      "labels": [],
      "source": null,
      "text": ".Linfo_string287:"
    },
    {
      "labels": [],
      "source": null,
      "text": "        .asciz  \"_ZN9__gnu_cxx3divExx\"  # string offset=3454"
    },
    {
      "labels": [],
      "source": null,
      "text": ".Linfo_string288:"
    },
    {
      "labels": [],
      "source": null,
      "text": "        .asciz  \"FILE\"                  # string offset=3475"
    },
    {
      "labels": [],
      "source": null,
      "text": ".Linfo_string289:"
    },
    {
      "labels": [],
      "source": null,
      "text": "        .asciz  \"_G_fpos_t\"             # string offset=3480"
    },
    {
      "labels": [],
      "source": null,
      "text": ".Linfo_string290:"
    },
    {
      "labels": [],
      "source": null,
      "text": "        .asciz  \"fpos_t\"                # string offset=3490"
    },
    {
      "labels": [],
      "source": null,
      "text": ".Linfo_string291:"
    },
    {
      "labels": [],
      "source": null,
      "text": "        .asciz  \"clearerr\"              # string offset=3497"
    },
    {
      "labels": [],
      "source": null,
      "text": ".Linfo_string292:"
    },
    {
      "labels": [],
      "source": null,
      "text": "        .asciz  \"fclose\"                # string offset=3506"
    },
    {
      "labels": [],
      "source": null,
      "text": ".Linfo_string293:"
    },
    {
      "labels": [],
      "source": null,
      "text": "        .asciz  \"feof\"                  # string offset=3513"
    },
    {
      "labels": [],
      "source": null,
      "text": ".Linfo_string294:"
    },
    {
      "labels": [],
      "source": null,
      "text": "        .asciz  \"ferror\"                # string offset=3518"
    },
    {
      "labels": [],
      "source": null,
      "text": ".Linfo_string295:"
    },
    {
      "labels": [],
      "source": null,
      "text": "        .asciz  \"fflush\"                # string offset=3525"
    },
    {
      "labels": [],
      "source": null,
      "text": ".Linfo_string296:"
    },
    {
      "labels": [],
      "source": null,
      "text": "        .asciz  \"fgetc\"                 # string offset=3532"
    },
    {
      "labels": [],
      "source": null,
      "text": ".Linfo_string297:"
    },
    {
      "labels": [],
      "source": null,
      "text": "        .asciz  \"fgetpos\"               # string offset=3538"
    },
    {
      "labels": [],
      "source": null,
      "text": ".Linfo_string298:"
    },
    {
      "labels": [],
      "source": null,
      "text": "        .asciz  \"fgets\"                 # string offset=3546"
    },
    {
      "labels": [],
      "source": null,
      "text": ".Linfo_string299:"
    },
    {
      "labels": [],
      "source": null,
      "text": "        .asciz  \"fopen\"                 # string offset=3552"
    },
    {
      "labels": [],
      "source": null,
      "text": ".Linfo_string300:"
    },
    {
      "labels": [],
      "source": null,
      "text": "        .asciz  \"fprintf\"               # string offset=3558"
    },
    {
      "labels": [],
      "source": null,
      "text": ".Linfo_string301:"
    },
    {
      "labels": [],
      "source": null,
      "text": "        .asciz  \"fputc\"                 # string offset=3566"
    },
    {
      "labels": [],
      "source": null,
      "text": ".Linfo_string302:"
    },
    {
      "labels": [],
      "source": null,
      "text": "        .asciz  \"fputs\"                 # string offset=3572"
    },
    {
      "labels": [],
      "source": null,
      "text": ".Linfo_string303:"
    },
    {
      "labels": [],
      "source": null,
      "text": "        .asciz  \"fread\"                 # string offset=3578"
    },
    {
      "labels": [],
      "source": null,
      "text": ".Linfo_string304:"
    },
    {
      "labels": [],
      "source": null,
      "text": "        .asciz  \"freopen\"               # string offset=3584"
    },
    {
      "labels": [],
      "source": null,
      "text": ".Linfo_string305:"
    },
    {
      "labels": [],
      "source": null,
      "text": "        .asciz  \"fscanf\"                # string offset=3592"
    },
    {
      "labels": [],
      "source": null,
      "text": ".Linfo_string306:"
    },
    {
      "labels": [],
      "source": null,
      "text": "        .asciz  \"fseek\"                 # string offset=3599"
    },
    {
      "labels": [],
      "source": null,
      "text": ".Linfo_string307:"
    },
    {
      "labels": [],
      "source": null,
      "text": "        .asciz  \"fsetpos\"               # string offset=3605"
    },
    {
      "labels": [],
      "source": null,
      "text": ".Linfo_string308:"
    },
    {
      "labels": [],
      "source": null,
      "text": "        .asciz  \"ftell\"                 # string offset=3613"
    },
    {
      "labels": [],
      "source": null,
      "text": ".Linfo_string309:"
    },
    {
      "labels": [],
      "source": null,
      "text": "        .asciz  \"fwrite\"                # string offset=3619"
    },
    {
      "labels": [],
      "source": null,
      "text": ".Linfo_string310:"
    },
    {
      "labels": [],
      "source": null,
      "text": "        .asciz  \"getc\"                  # string offset=3626"
    },
    {
      "labels": [],
      "source": null,
      "text": ".Linfo_string311:"
    },
    {
      "labels": [],
      "source": null,
      "text": "        .asciz  \"getchar\"               # string offset=3631"
    },
    {
      "labels": [],
      "source": null,
      "text": ".Linfo_string312:"
    },
    {
      "labels": [],
      "source": null,
      "text": "        .asciz  \"perror\"                # string offset=3639"
    },
    {
      "labels": [],
      "source": null,
      "text": ".Linfo_string313:"
    },
    {
      "labels": [],
      "source": null,
      "text": "        .asciz  \"printf\"                # string offset=3646"
    },
    {
      "labels": [],
      "source": null,
      "text": ".Linfo_string314:"
    },
    {
      "labels": [],
      "source": null,
      "text": "        .asciz  \"putc\"                  # string offset=3653"
    },
    {
      "labels": [],
      "source": null,
      "text": ".Linfo_string315:"
    },
    {
      "labels": [],
      "source": null,
      "text": "        .asciz  \"putchar\"               # string offset=3658"
    },
    {
      "labels": [],
      "source": null,
      "text": ".Linfo_string316:"
    },
    {
      "labels": [],
      "source": null,
      "text": "        .asciz  \"puts\"                  # string offset=3666"
    },
    {
      "labels": [],
      "source": null,
      "text": ".Linfo_string317:"
    },
    {
      "labels": [],
      "source": null,
      "text": "        .asciz  \"remove\"                # string offset=3671"
    },
    {
      "labels": [],
      "source": null,
      "text": ".Linfo_string318:"
    },
    {
      "labels": [],
      "source": null,
      "text": "        .asciz  \"rename\"                # string offset=3678"
    },
    {
      "labels": [],
      "source": null,
      "text": ".Linfo_string319:"
    },
    {
      "labels": [],
      "source": null,
      "text": "        .asciz  \"rewind\"                # string offset=3685"
    },
    {
      "labels": [],
      "source": null,
      "text": ".Linfo_string320:"
    },
    {
      "labels": [],
      "source": null,
      "text": "        .asciz  \"scanf\"                 # string offset=3692"
    },
    {
      "labels": [],
      "source": null,
      "text": ".Linfo_string321:"
    },
    {
      "labels": [],
      "source": null,
      "text": "        .asciz  \"setbuf\"                # string offset=3698"
    },
    {
      "labels": [],
      "source": null,
      "text": ".Linfo_string322:"
    },
    {
      "labels": [],
      "source": null,
      "text": "        .asciz  \"setvbuf\"               # string offset=3705"
    },
    {
      "labels": [],
      "source": null,
      "text": ".Linfo_string323:"
    },
    {
      "labels": [],
      "source": null,
      "text": "        .asciz  \"sprintf\"               # string offset=3713"
    },
    {
      "labels": [],
      "source": null,
      "text": ".Linfo_string324:"
    },
    {
      "labels": [],
      "source": null,
      "text": "        .asciz  \"sscanf\"                # string offset=3721"
    },
    {
      "labels": [],
      "source": null,
      "text": ".Linfo_string325:"
    },
    {
      "labels": [],
      "source": null,
      "text": "        .asciz  \"tmpfile\"               # string offset=3728"
    },
    {
      "labels": [],
      "source": null,
      "text": ".Linfo_string326:"
    },
    {
      "labels": [],
      "source": null,
      "text": "        .asciz  \"tmpnam\"                # string offset=3736"
    },
    {
      "labels": [],
      "source": null,
      "text": ".Linfo_string327:"
    },
    {
      "labels": [],
      "source": null,
      "text": "        .asciz  \"ungetc\"                # string offset=3743"
    },
    {
      "labels": [],
      "source": null,
      "text": ".Linfo_string328:"
    },
    {
      "labels": [],
      "source": null,
      "text": "        .asciz  \"vfprintf\"              # string offset=3750"
    },
    {
      "labels": [],
      "source": null,
      "text": ".Linfo_string329:"
    },
    {
      "labels": [],
      "source": null,
      "text": "        .asciz  \"vprintf\"               # string offset=3759"
    },
    {
      "labels": [],
      "source": null,
      "text": ".Linfo_string330:"
    },
    {
      "labels": [],
      "source": null,
      "text": "        .asciz  \"vsprintf\"              # string offset=3767"
    },
    {
      "labels": [],
      "source": null,
      "text": ".Linfo_string331:"
    },
    {
      "labels": [],
      "source": null,
      "text": "        .asciz  \"snprintf\"              # string offset=3776"
    },
    {
      "labels": [],
      "source": null,
      "text": ".Linfo_string332:"
    },
    {
      "labels": [],
      "source": null,
      "text": "        .asciz  \"vfscanf\"               # string offset=3785"
    },
    {
      "labels": [],
      "source": null,
      "text": ".Linfo_string333:"
    },
    {
      "labels": [],
      "source": null,
      "text": "        .asciz  \"vscanf\"                # string offset=3793"
    },
    {
      "labels": [],
      "source": null,
      "text": ".Linfo_string334:"
    },
    {
      "labels": [],
      "source": null,
      "text": "        .asciz  \"vsnprintf\"             # string offset=3800"
    },
    {
      "labels": [],
      "source": null,
      "text": ".Linfo_string335:"
    },
    {
      "labels": [],
      "source": null,
      "text": "        .asciz  \"vsscanf\"               # string offset=3810"
    },
    {
      "labels": [],
      "source": null,
      "text": ".Linfo_string336:"
    },
    {
      "labels": [],
      "source": null,
      "text": "        .asciz  \"Id\"                    # string offset=3818"
    },
    {
      "labels": [],
      "source": null,
      "text": ".Linfo_string337:"
    },
    {
      "labels": [],
      "source": null,
      "text": "        .asciz  \"Name\"                  # string offset=3821"
    },
    {
      "labels": [],
      "source": null,
      "text": ".Linfo_string338:"
    },
    {
      "labels": [],
      "source": null,
      "text": "        .asciz  \"captured_content<0, void>\" # string offset=3826"
    },
    {
      "labels": [],
      "source": null,
      "text": ".Linfo_string339:"
    },
    {
      "labels": [],
      "source": null,
      "text": "        .asciz  \"_begin\"                # string offset=3852"
    },
    {
      "labels": [],
      "source": null,
      "text": ".Linfo_string340:"
    },
    {
      "labels": [],
      "source": null,
      "text": "        .asciz  \"_end\"                  # string offset=3859"
    },
    {
      "labels": [],
      "source": null,
      "text": ".Linfo_string341:"
    },
    {
      "labels": [],
      "source": null,
      "text": "        .asciz  \"_matched\"              # string offset=3864"
    },
    {
      "labels": [],
      "source": null,
      "text": ".Linfo_string342:"
    },
    {
      "labels": [],
      "source": null,
      "text": "        .asciz  \"storage\"               # string offset=3873"
    },
    {
      "labels": [],
      "source": null,
      "text": ".Linfo_string343:"
    },
    {
      "labels": [],
      "source": null,
      "text": "        .asciz  \"_ZN4ctre16captured_contentILm0EvE7storageIPKcE7matchedEv\" # string offset=3881"
    },
    {
      "labels": [],
      "source": null,
      "text": ".Linfo_string344:"
    },
    {
      "labels": [],
      "source": null,
      "text": "        .asciz  \"matched\"               # string offset=3938"
    },
    {
      "labels": [],
      "source": null,
      "text": ".Linfo_string345:"
    },
    {
      "labels": [],
      "source": null,
      "text": "        .asciz  \"_ZN4ctre16captured_contentILm0EvE7storageIPKcE7unmatchEv\" # string offset=3946"
    },
    {
      "labels": [],
      "source": null,
      "text": ".Linfo_string346:"
    },
    {
      "labels": [],
      "source": null,
      "text": "        .asciz  \"unmatch\"               # string offset=4003"
    },
    {
      "labels": [],
      "source": null,
      "text": ".Linfo_string347:"
    },
    {
      "labels": [],
      "source": null,
      "text": "        .asciz  \"_ZN4ctre16captured_contentILm0EvE7storageIPKcE9set_startES4_\" # string offset=4011"
    },
    {
      "labels": [],
      "source": null,
      "text": ".Linfo_string348:"
    },
    {
      "labels": [],
      "source": null,
      "text": "        .asciz  \"set_start\"             # string offset=4072"
    },
    {
      "labels": [],
      "source": null,
      "text": ".Linfo_string349:"
    },
    {
      "labels": [],
      "source": null,
      "text": "        .asciz  \"_ZN4ctre16captured_contentILm0EvE7storageIPKcE7set_endES4_\" # string offset=4082"
    },
    {
      "labels": [],
      "source": null,
      "text": ".Linfo_string350:"
    },
    {
      "labels": [],
      "source": null,
      "text": "        .asciz  \"set_end\"               # string offset=4141"
    },
    {
      "labels": [],
      "source": null,
      "text": ".Linfo_string351:"
    },
    {
      "labels": [],
      "source": null,
      "text": "        .asciz  \"_ZNK4ctre16captured_contentILm0EvE7storageIPKcE7get_endEv\" # string offset=4149"
    },
    {
      "labels": [],
      "source": null,
      "text": ".Linfo_string352:"
    },
    {
      "labels": [],
      "source": null,
      "text": "        .asciz  \"get_end\"               # string offset=4207"
    },
    {
      "labels": [],
      "source": null,
      "text": ".Linfo_string353:"
    },
    {
      "labels": [],
      "source": null,
      "text": "        .asciz  \"_ZNK4ctre16captured_contentILm0EvE7storageIPKcEcvbEv\" # string offset=4215"
    },
    {
      "labels": [],
      "source": null,
      "text": ".Linfo_string354:"
    },
    {
      "labels": [],
      "source": null,
      "text": "        .asciz  \"_ZNK4ctre16captured_contentILm0EvE7storageIPKcEcvSt17basic_string_viewIcSt11char_traitsIcEEEv\" # string offset=4268"
    },
    {
      "labels": [],
      "source": null,
      "text": ".Linfo_string355:"
    },
    {
      "labels": [],
      "source": null,
      "text": "        .asciz  \"operator basic_string_view\" # string offset=4362"
    },
    {
      "labels": [],
      "source": null,
      "text": ".Linfo_string356:"
    },
    {
      "labels": [],
      "source": null,
      "text": "        .asciz  \"npos\"                  # string offset=4389"
    },
    {
      "labels": [],
      "source": null,
      "text": ".Linfo_string357:"
    },
    {
      "labels": [],
      "source": null,
      "text": "        .asciz  \"size_type\"             # string offset=4394"
    },
    {
      "labels": [],
      "source": null,
      "text": ".Linfo_string358:"
    },
    {
      "labels": [],
      "source": null,
      "text": "        .asciz  \"_M_len\"                # string offset=4404"
    },
    {
      "labels": [],
      "source": null,
      "text": ".Linfo_string359:"
    },
    {
      "labels": [],
      "source": null,
      "text": "        .asciz  \"_M_str\"                # string offset=4411"
    },
    {
      "labels": [],
      "source": null,
      "text": ".Linfo_string360:"
    },
    {
      "labels": [],
      "source": null,
      "text": "        .asciz  \"basic_string_view\"     # string offset=4418"
    },
    {
      "labels": [],
      "source": null,
      "text": ".Linfo_string361:"
    },
    {
      "labels": [],
      "source": null,
      "text": "        .asciz  \"_ZNSt17basic_string_viewIcSt11char_traitsIcEEaSERKS2_\" # string offset=4436"
    },
    {
      "labels": [],
      "source": null,
      "text": ".Linfo_string362:"
    },
    {
      "labels": [],
      "source": null,
      "text": "        .asciz  \"_ZNKSt17basic_string_viewIcSt11char_traitsIcEE5beginEv\" # string offset=4490"
    },
    {
      "labels": [],
      "source": null,
      "text": ".Linfo_string363:"
    },
    {
      "labels": [],
      "source": null,
      "text": "        .asciz  \"const_iterator\"        # string offset=4545"
    },
    {
      "labels": [],
      "source": null,
      "text": ".Linfo_string364:"
    },
    {
      "labels": [],
      "source": null,
      "text": "        .asciz  \"_ZNKSt17basic_string_viewIcSt11char_traitsIcEE3endEv\" # string offset=4560"
    },
    {
      "labels": [],
      "source": null,
      "text": ".Linfo_string365:"
    },
    {
      "labels": [],
      "source": null,
      "text": "        .asciz  \"_ZNKSt17basic_string_viewIcSt11char_traitsIcEE6cbeginEv\" # string offset=4613"
    },
    {
      "labels": [],
      "source": null,
      "text": ".Linfo_string366:"
    },
    {
      "labels": [],
      "source": null,
      "text": "        .asciz  \"cbegin\"                # string offset=4669"
    },
    {
      "labels": [],
      "source": null,
      "text": ".Linfo_string367:"
    },
    {
      "labels": [],
      "source": null,
      "text": "        .asciz  \"_ZNKSt17basic_string_viewIcSt11char_traitsIcEE4cendEv\" # string offset=4676"
    },
    {
      "labels": [],
      "source": null,
      "text": ".Linfo_string368:"
    },
    {
      "labels": [],
      "source": null,
      "text": "        .asciz  \"cend\"                  # string offset=4730"
    },
    {
      "labels": [],
      "source": null,
      "text": ".Linfo_string369:"
    },
    {
      "labels": [],
      "source": null,
      "text": "        .asciz  \"_ZNKSt17basic_string_viewIcSt11char_traitsIcEE6rbeginEv\" # string offset=4735"
    },
    {
      "labels": [],
      "source": null,
      "text": ".Linfo_string370:"
    },
    {
      "labels": [],
      "source": null,
      "text": "        .asciz  \"rbegin\"                # string offset=4791"
    },
    {
      "labels": [],
      "source": null,
      "text": ".Linfo_string371:"
    },
    {
      "labels": [],
      "source": null,
      "text": "        .asciz  \"reverse_iterator<const char *>\" # string offset=4798"
    },
    {
      "labels": [],
      "source": null,
      "text": ".Linfo_string372:"
    },
    {
      "labels": [],
      "source": null,
      "text": "        .asciz  \"const_reverse_iterator\" # string offset=4829"
    },
    {
      "labels": [],
      "source": null,
      "text": ".Linfo_string373:"
    },
    {
      "labels": [],
      "source": null,
      "text": "        .asciz  \"_ZNKSt17basic_string_viewIcSt11char_traitsIcEE4rendEv\" # string offset=4852"
    },
    {
      "labels": [],
      "source": null,
      "text": ".Linfo_string374:"
    },
    {
      "labels": [],
      "source": null,
      "text": "        .asciz  \"rend\"                  # string offset=4906"
    },
    {
      "labels": [],
      "source": null,
      "text": ".Linfo_string375:"
    },
    {
      "labels": [],
      "source": null,
      "text": "        .asciz  \"_ZNKSt17basic_string_viewIcSt11char_traitsIcEE7crbeginEv\" # string offset=4911"
    },
    {
      "labels": [],
      "source": null,
      "text": ".Linfo_string376:"
    },
    {
      "labels": [],
      "source": null,
      "text": "        .asciz  \"crbegin\"               # string offset=4968"
    },
    {
      "labels": [],
      "source": null,
      "text": ".Linfo_string377:"
    },
    {
      "labels": [],
      "source": null,
      "text": "        .asciz  \"_ZNKSt17basic_string_viewIcSt11char_traitsIcEE5crendEv\" # string offset=4976"
    },
    {
      "labels": [],
      "source": null,
      "text": ".Linfo_string378:"
    },
    {
      "labels": [],
      "source": null,
      "text": "        .asciz  \"crend\"                 # string offset=5031"
    },
    {
      "labels": [],
      "source": null,
      "text": ".Linfo_string379:"
    },
    {
      "labels": [],
      "source": null,
      "text": "        .asciz  \"_ZNKSt17basic_string_viewIcSt11char_traitsIcEE4sizeEv\" # string offset=5037"
    },
    {
      "labels": [],
      "source": null,
      "text": ".Linfo_string380:"
    },
    {
      "labels": [],
      "source": null,
      "text": "        .asciz  \"_ZNKSt17basic_string_viewIcSt11char_traitsIcEE6lengthEv\" # string offset=5091"
    },
    {
      "labels": [],
      "source": null,
      "text": ".Linfo_string381:"
    },
    {
      "labels": [],
      "source": null,
      "text": "        .asciz  \"length\"                # string offset=5147"
    },
    {
      "labels": [],
      "source": null,
      "text": ".Linfo_string382:"
    },
    {
      "labels": [],
      "source": null,
      "text": "        .asciz  \"_ZNKSt17basic_string_viewIcSt11char_traitsIcEE8max_sizeEv\" # string offset=5154"
    },
    {
      "labels": [],
      "source": null,
      "text": ".Linfo_string383:"
    },
    {
      "labels": [],
      "source": null,
      "text": "        .asciz  \"max_size\"              # string offset=5212"
    },
    {
      "labels": [],
      "source": null,
      "text": ".Linfo_string384:"
    },
    {
      "labels": [],
      "source": null,
      "text": "        .asciz  \"_ZNKSt17basic_string_viewIcSt11char_traitsIcEE5emptyEv\" # string offset=5221"
    },
    {
      "labels": [],
      "source": null,
      "text": ".Linfo_string385:"
    },
    {
      "labels": [],
      "source": null,
      "text": "        .asciz  \"empty\"                 # string offset=5276"
    },
    {
      "labels": [],
      "source": null,
      "text": ".Linfo_string386:"
    },
    {
      "labels": [],
      "source": null,
      "text": "        .asciz  \"_ZNKSt17basic_string_viewIcSt11char_traitsIcEEixEm\" # string offset=5282"
    },
    {
      "labels": [],
      "source": null,
      "text": ".Linfo_string387:"
    },
    {
      "labels": [],
      "source": null,
      "text": "        .asciz  \"_ZNKSt17basic_string_viewIcSt11char_traitsIcEE2atEm\" # string offset=5333"
    },
    {
      "labels": [],
      "source": null,
      "text": ".Linfo_string388:"
    },
    {
      "labels": [],
      "source": null,
      "text": "        .asciz  \"at\"                    # string offset=5385"
    },
    {
      "labels": [],
      "source": null,
      "text": ".Linfo_string389:"
    },
    {
      "labels": [],
      "source": null,
      "text": "        .asciz  \"_ZNKSt17basic_string_viewIcSt11char_traitsIcEE5frontEv\" # string offset=5388"
    },
    {
      "labels": [],
      "source": null,
      "text": ".Linfo_string390:"
    },
    {
      "labels": [],
      "source": null,
      "text": "        .asciz  \"front\"                 # string offset=5443"
    },
    {
      "labels": [],
      "source": null,
      "text": ".Linfo_string391:"
    },
    {
      "labels": [],
      "source": null,
      "text": "        .asciz  \"_ZNKSt17basic_string_viewIcSt11char_traitsIcEE4backEv\" # string offset=5449"
    },
    {
      "labels": [],
      "source": null,
      "text": ".Linfo_string392:"
    },
    {
      "labels": [],
      "source": null,
      "text": "        .asciz  \"back\"                  # string offset=5503"
    },
    {
      "labels": [],
      "source": null,
      "text": ".Linfo_string393:"
    },
    {
      "labels": [],
      "source": null,
      "text": "        .asciz  \"_ZNKSt17basic_string_viewIcSt11char_traitsIcEE4dataEv\" # string offset=5508"
    },
    {
      "labels": [],
      "source": null,
      "text": ".Linfo_string394:"
    },
    {
      "labels": [],
      "source": null,
      "text": "        .asciz  \"data\"                  # string offset=5562"
    },
    {
      "labels": [],
      "source": null,
      "text": ".Linfo_string395:"
    },
    {
      "labels": [],
      "source": null,
      "text": "        .asciz  \"_ZNSt17basic_string_viewIcSt11char_traitsIcEE13remove_prefixEm\" # string offset=5567"
    },
    {
      "labels": [],
      "source": null,
      "text": ".Linfo_string396:"
    },
    {
      "labels": [],
      "source": null,
      "text": "        .asciz  \"remove_prefix\"         # string offset=5630"
    },
    {
      "labels": [],
      "source": null,
      "text": ".Linfo_string397:"
    },
    {
      "labels": [],
      "source": null,
      "text": "        .asciz  \"_ZNSt17basic_string_viewIcSt11char_traitsIcEE13remove_suffixEm\" # string offset=5644"
    },
    {
      "labels": [],
      "source": null,
      "text": ".Linfo_string398:"
    },
    {
      "labels": [],
      "source": null,
      "text": "        .asciz  \"remove_suffix\"         # string offset=5707"
    },
    {
      "labels": [],
      "source": null,
      "text": ".Linfo_string399:"
    },
    {
      "labels": [],
      "source": null,
      "text": "        .asciz  \"_ZNSt17basic_string_viewIcSt11char_traitsIcEE4swapERS2_\" # string offset=5721"
    },
    {
      "labels": [],
      "source": null,
      "text": ".Linfo_string400:"
    },
    {
      "labels": [],
      "source": null,
      "text": "        .asciz  \"_ZNKSt17basic_string_viewIcSt11char_traitsIcEE4copyEPcmm\" # string offset=5777"
    },
    {
      "labels": [],
      "source": null,
      "text": ".Linfo_string401:"
    },
    {
      "labels": [],
      "source": null,
      "text": "        .asciz  \"copy\"                  # string offset=5834"
    },
    {
      "labels": [],
      "source": null,
      "text": ".Linfo_string402:"
    },
    {
      "labels": [],
      "source": null,
      "text": "        .asciz  \"_ZNKSt17basic_string_viewIcSt11char_traitsIcEE6substrEmm\" # string offset=5839"
    },
    {
      "labels": [],
      "source": null,
      "text": ".Linfo_string403:"
    },
    {
      "labels": [],
      "source": null,
      "text": "        .asciz  \"substr\"                # string offset=5896"
    },
    {
      "labels": [],
      "source": null,
      "text": ".Linfo_string404:"
    },
    {
      "labels": [],
      "source": null,
      "text": "        .asciz  \"_ZNKSt17basic_string_viewIcSt11char_traitsIcEE7compareES2_\" # string offset=5903"
    },
    {
      "labels": [],
      "source": null,
      "text": ".Linfo_string405:"
    },
    {
      "labels": [],
      "source": null,
      "text": "        .asciz  \"compare\"               # string offset=5962"
    },
    {
      "labels": [],
      "source": null,
      "text": ".Linfo_string406:"
    },
    {
      "labels": [],
      "source": null,
      "text": "        .asciz  \"_ZNKSt17basic_string_viewIcSt11char_traitsIcEE7compareEmmS2_\" # string offset=5970"
    },
    {
      "labels": [],
      "source": null,
      "text": ".Linfo_string407:"
    },
    {
      "labels": [],
      "source": null,
      "text": "        .asciz  \"_ZNKSt17basic_string_viewIcSt11char_traitsIcEE7compareEmmS2_mm\" # string offset=6031"
    },
    {
      "labels": [],
      "source": null,
      "text": ".Linfo_string408:"
    },
    {
      "labels": [],
      "source": null,
      "text": "        .asciz  \"_ZNKSt17basic_string_viewIcSt11char_traitsIcEE7compareEPKc\" # string offset=6094"
    },
    {
      "labels": [],
      "source": null,
      "text": ".Linfo_string409:"
    },
    {
      "labels": [],
      "source": null,
      "text": "        .asciz  \"_ZNKSt17basic_string_viewIcSt11char_traitsIcEE7compareEmmPKc\" # string offset=6153"
    },
    {
      "labels": [],
      "source": null,
      "text": ".Linfo_string410:"
    },
    {
      "labels": [],
      "source": null,
      "text": "        .asciz  \"_ZNKSt17basic_string_viewIcSt11char_traitsIcEE7compareEmmPKcm\" # string offset=6214"
    },
    {
      "labels": [],
      "source": null,
      "text": ".Linfo_string411:"
    },
    {
      "labels": [],
      "source": null,
      "text": "        .asciz  \"_ZNKSt17basic_string_viewIcSt11char_traitsIcEE4findES2_m\" # string offset=6276"
    },
    {
      "labels": [],
      "source": null,
      "text": ".Linfo_string412:"
    },
    {
      "labels": [],
      "source": null,
      "text": "        .asciz  \"find\"                  # string offset=6333"
    },
    {
      "labels": [],
      "source": null,
      "text": ".Linfo_string413:"
    },
    {
      "labels": [],
      "source": null,
      "text": "        .asciz  \"_ZNKSt17basic_string_viewIcSt11char_traitsIcEE4findEcm\" # string offset=6338"
    },
    {
      "labels": [],
      "source": null,
      "text": ".Linfo_string414:"
    },
    {
      "labels": [],
      "source": null,
      "text": "        .asciz  \"_ZNKSt17basic_string_viewIcSt11char_traitsIcEE4findEPKcmm\" # string offset=6393"
    },
    {
      "labels": [],
      "source": null,
      "text": ".Linfo_string415:"
    },
    {
      "labels": [],
      "source": null,
      "text": "        .asciz  \"_ZNKSt17basic_string_viewIcSt11char_traitsIcEE4findEPKcm\" # string offset=6451"
    },
    {
      "labels": [],
      "source": null,
      "text": ".Linfo_string416:"
    },
    {
      "labels": [],
      "source": null,
      "text": "        .asciz  \"_ZNKSt17basic_string_viewIcSt11char_traitsIcEE5rfindES2_m\" # string offset=6508"
    },
    {
      "labels": [],
      "source": null,
      "text": ".Linfo_string417:"
    },
    {
      "labels": [],
      "source": null,
      "text": "        .asciz  \"rfind\"                 # string offset=6566"
    },
    {
      "labels": [],
      "source": null,
      "text": ".Linfo_string418:"
    },
    {
      "labels": [],
      "source": null,
      "text": "        .asciz  \"_ZNKSt17basic_string_viewIcSt11char_traitsIcEE5rfindEcm\" # string offset=6572"
    },
    {
      "labels": [],
      "source": null,
      "text": ".Linfo_string419:"
    },
    {
      "labels": [],
      "source": null,
      "text": "        .asciz  \"_ZNKSt17basic_string_viewIcSt11char_traitsIcEE5rfindEPKcmm\" # string offset=6628"
    },
    {
      "labels": [],
      "source": null,
      "text": ".Linfo_string420:"
    },
    {
      "labels": [],
      "source": null,
      "text": "        .asciz  \"_ZNKSt17basic_string_viewIcSt11char_traitsIcEE5rfindEPKcm\" # string offset=6687"
    },
    {
      "labels": [],
      "source": null,
      "text": ".Linfo_string421:"
    },
    {
      "labels": [],
      "source": null,
      "text": "        .asciz  \"_ZNKSt17basic_string_viewIcSt11char_traitsIcEE13find_first_ofES2_m\" # string offset=6745"
    },
    {
      "labels": [],
      "source": null,
      "text": ".Linfo_string422:"
    },
    {
      "labels": [],
      "source": null,
      "text": "        .asciz  \"find_first_of\"         # string offset=6812"
    },
    {
      "labels": [],
      "source": null,
      "text": ".Linfo_string423:"
    },
    {
      "labels": [],
      "source": null,
      "text": "        .asciz  \"_ZNKSt17basic_string_viewIcSt11char_traitsIcEE13find_first_ofEcm\" # string offset=6826"
    },
    {
      "labels": [],
      "source": null,
      "text": ".Linfo_string424:"
    },
    {
      "labels": [],
      "source": null,
      "text": "        .asciz  \"_ZNKSt17basic_string_viewIcSt11char_traitsIcEE13find_first_ofEPKcmm\" # string offset=6891"
    },
    {
      "labels": [],
      "source": null,
      "text": ".Linfo_string425:"
    },
    {
      "labels": [],
      "source": null,
      "text": "        .asciz  \"_ZNKSt17basic_string_viewIcSt11char_traitsIcEE13find_first_ofEPKcm\" # string offset=6959"
    },
    {
      "labels": [],
      "source": null,
      "text": ".Linfo_string426:"
    },
    {
      "labels": [],
      "source": null,
      "text": "        .asciz  \"_ZNKSt17basic_string_viewIcSt11char_traitsIcEE12find_last_ofES2_m\" # string offset=7026"
    },
    {
      "labels": [],
      "source": null,
      "text": ".Linfo_string427:"
    },
    {
      "labels": [],
      "source": null,
      "text": "        .asciz  \"find_last_of\"          # string offset=7092"
    },
    {
      "labels": [],
      "source": null,
      "text": ".Linfo_string428:"
    },
    {
      "labels": [],
      "source": null,
      "text": "        .asciz  \"_ZNKSt17basic_string_viewIcSt11char_traitsIcEE12find_last_ofEcm\" # string offset=7105"
    },
    {
      "labels": [],
      "source": null,
      "text": ".Linfo_string429:"
    },
    {
      "labels": [],
      "source": null,
      "text": "        .asciz  \"_ZNKSt17basic_string_viewIcSt11char_traitsIcEE12find_last_ofEPKcmm\" # string offset=7169"
    },
    {
      "labels": [],
      "source": null,
      "text": ".Linfo_string430:"
    },
    {
      "labels": [],
      "source": null,
      "text": "        .asciz  \"_ZNKSt17basic_string_viewIcSt11char_traitsIcEE12find_last_ofEPKcm\" # string offset=7236"
    },
    {
      "labels": [],
      "source": null,
      "text": ".Linfo_string431:"
    },
    {
      "labels": [],
      "source": null,
      "text": "        .asciz  \"_ZNKSt17basic_string_viewIcSt11char_traitsIcEE17find_first_not_ofES2_m\" # string offset=7302"
    },
    {
      "labels": [],
      "source": null,
      "text": ".Linfo_string432:"
    },
    {
      "labels": [],
      "source": null,
      "text": "        .asciz  \"find_first_not_of\"     # string offset=7373"
    },
    {
      "labels": [],
      "source": null,
      "text": ".Linfo_string433:"
    },
    {
      "labels": [],
      "source": null,
      "text": "        .asciz  \"_ZNKSt17basic_string_viewIcSt11char_traitsIcEE17find_first_not_ofEcm\" # string offset=7391"
    },
    {
      "labels": [],
      "source": null,
      "text": ".Linfo_string434:"
    },
    {
      "labels": [],
      "source": null,
      "text": "        .asciz  \"_ZNKSt17basic_string_viewIcSt11char_traitsIcEE17find_first_not_ofEPKcmm\" # string offset=7460"
    },
    {
      "labels": [],
      "source": null,
      "text": ".Linfo_string435:"
    },
    {
      "labels": [],
      "source": null,
      "text": "        .asciz  \"_ZNKSt17basic_string_viewIcSt11char_traitsIcEE17find_first_not_ofEPKcm\" # string offset=7532"
    },
    {
      "labels": [],
      "source": null,
      "text": ".Linfo_string436:"
    },
    {
      "labels": [],
      "source": null,
      "text": "        .asciz  \"_ZNKSt17basic_string_viewIcSt11char_traitsIcEE16find_last_not_ofES2_m\" # string offset=7603"
    },
    {
      "labels": [],
      "source": null,
      "text": ".Linfo_string437:"
    },
    {
      "labels": [],
      "source": null,
      "text": "        .asciz  \"find_last_not_of\"      # string offset=7673"
    },
    {
      "labels": [],
      "source": null,
      "text": ".Linfo_string438:"
    },
    {
      "labels": [],
      "source": null,
      "text": "        .asciz  \"_ZNKSt17basic_string_viewIcSt11char_traitsIcEE16find_last_not_ofEcm\" # string offset=7690"
    },
    {
      "labels": [],
      "source": null,
      "text": ".Linfo_string439:"
    },
    {
      "labels": [],
      "source": null,
      "text": "        .asciz  \"_ZNKSt17basic_string_viewIcSt11char_traitsIcEE16find_last_not_ofEPKcmm\" # string offset=7758"
    },
    {
      "labels": [],
      "source": null,
      "text": ".Linfo_string440:"
    },
    {
      "labels": [],
      "source": null,
      "text": "        .asciz  \"_ZNKSt17basic_string_viewIcSt11char_traitsIcEE16find_last_not_ofEPKcm\" # string offset=7829"
    },
    {
      "labels": [],
      "source": null,
      "text": ".Linfo_string441:"
    },
    {
      "labels": [],
      "source": null,
      "text": "        .asciz  \"_ZNKSt17basic_string_viewIcSt11char_traitsIcEE8_M_checkEmPKc\" # string offset=7899"
    },
    {
      "labels": [],
      "source": null,
      "text": ".Linfo_string442:"
    },
    {
      "labels": [],
      "source": null,
      "text": "        .asciz  \"_M_check\"              # string offset=7960"
    },
    {
      "labels": [],
      "source": null,
      "text": ".Linfo_string443:"
    },
    {
      "labels": [],
      "source": null,
      "text": "        .asciz  \"_ZNKSt17basic_string_viewIcSt11char_traitsIcEE8_M_limitEmm\" # string offset=7969"
    },
    {
      "labels": [],
      "source": null,
      "text": ".Linfo_string444:"
    },
    {
      "labels": [],
      "source": null,
      "text": "        .asciz  \"_M_limit\"              # string offset=8028"
    },
    {
      "labels": [],
      "source": null,
      "text": ".Linfo_string445:"
    },
    {
      "labels": [],
      "source": null,
      "text": "        .asciz  \"_ZNSt17basic_string_viewIcSt11char_traitsIcEE10_S_compareEmm\" # string offset=8037"
    },
    {
      "labels": [],
      "source": null,
      "text": ".Linfo_string446:"
    },
    {
      "labels": [],
      "source": null,
      "text": "        .asciz  \"_S_compare\"            # string offset=8098"
    },
    {
      "labels": [],
      "source": null,
      "text": ".Linfo_string447:"
    },
    {
      "labels": [],
      "source": null,
      "text": "        .asciz  \"_CharT\"                # string offset=8109"
    },
    {
      "labels": [],
      "source": null,
      "text": ".Linfo_string448:"
    },
    {
      "labels": [],
      "source": null,
      "text": "        .asciz  \"_ZNSt11char_traitsIcE6assignERcRKc\" # string offset=8116"
    },
    {
      "labels": [],
      "source": null,
      "text": ".Linfo_string449:"
    },
    {
      "labels": [],
      "source": null,
      "text": "        .asciz  \"assign\"                # string offset=8151"
    },
    {
      "labels": [],
      "source": null,
      "text": ".Linfo_string450:"
    },
    {
      "labels": [],
      "source": null,
      "text": "        .asciz  \"char_type\"             # string offset=8158"
    },
    {
      "labels": [],
      "source": null,
      "text": ".Linfo_string451:"
    },
    {
      "labels": [],
      "source": null,
      "text": "        .asciz  \"_ZNSt11char_traitsIcE2eqERKcS2_\" # string offset=8168"
    },
    {
      "labels": [],
      "source": null,
      "text": ".Linfo_string452:"
    },
    {
      "labels": [],
      "source": null,
      "text": "        .asciz  \"eq\"                    # string offset=8200"
    },
    {
      "labels": [],
      "source": null,
      "text": ".Linfo_string453:"
    },
    {
      "labels": [],
      "source": null,
      "text": "        .asciz  \"_ZNSt11char_traitsIcE2ltERKcS2_\" # string offset=8203"
    },
    {
      "labels": [],
      "source": null,
      "text": ".Linfo_string454:"
    },
    {
      "labels": [],
      "source": null,
      "text": "        .asciz  \"lt\"                    # string offset=8235"
    },
    {
      "labels": [],
      "source": null,
      "text": ".Linfo_string455:"
    },
    {
      "labels": [],
      "source": null,
      "text": "        .asciz  \"_ZNSt11char_traitsIcE7compareEPKcS2_m\" # string offset=8238"
    },
    {
      "labels": [],
      "source": null,
      "text": ".Linfo_string456:"
    },
    {
      "labels": [],
      "source": null,
      "text": "        .asciz  \"_ZNSt11char_traitsIcE6lengthEPKc\" # string offset=8276"
    },
    {
      "labels": [],
      "source": null,
      "text": ".Linfo_string457:"
    },
    {
      "labels": [],
      "source": null,
      "text": "        .asciz  \"_ZNSt11char_traitsIcE4findEPKcmRS1_\" # string offset=8309"
    },
    {
      "labels": [],
      "source": null,
      "text": ".Linfo_string458:"
    },
    {
      "labels": [],
      "source": null,
      "text": "        .asciz  \"_ZNSt11char_traitsIcE4moveEPcPKcm\" # string offset=8345"
    },
    {
      "labels": [],
      "source": null,
      "text": ".Linfo_string459:"
    },
    {
      "labels": [],
      "source": null,
      "text": "        .asciz  \"move\"                  # string offset=8379"
    },
    {
      "labels": [],
      "source": null,
      "text": ".Linfo_string460:"
    },
    {
      "labels": [],
      "source": null,
      "text": "        .asciz  \"_ZNSt11char_traitsIcE4copyEPcPKcm\" # string offset=8384"
    },
    {
      "labels": [],
      "source": null,
      "text": ".Linfo_string461:"
    },
    {
      "labels": [],
      "source": null,
      "text": "        .asciz  \"_ZNSt11char_traitsIcE6assignEPcmc\" # string offset=8418"
    },
    {
      "labels": [],
      "source": null,
      "text": ".Linfo_string462:"
    },
    {
      "labels": [],
      "source": null,
      "text": "        .asciz  \"_ZNSt11char_traitsIcE12to_char_typeERKi\" # string offset=8452"
    },
    {
      "labels": [],
      "source": null,
      "text": ".Linfo_string463:"
    },
    {
      "labels": [],
      "source": null,
      "text": "        .asciz  \"to_char_type\"          # string offset=8492"
    },
    {
      "labels": [],
      "source": null,
      "text": ".Linfo_string464:"
    },
    {
      "labels": [],
      "source": null,
      "text": "        .asciz  \"int_type\"              # string offset=8505"
    },
    {
      "labels": [],
      "source": null,
      "text": ".Linfo_string465:"
    },
    {
      "labels": [],
      "source": null,
      "text": "        .asciz  \"_ZNSt11char_traitsIcE11to_int_typeERKc\" # string offset=8514"
    },
    {
      "labels": [],
      "source": null,
      "text": ".Linfo_string466:"
    },
    {
      "labels": [],
      "source": null,
      "text": "        .asciz  \"to_int_type\"           # string offset=8553"
    },
    {
      "labels": [],
      "source": null,
      "text": ".Linfo_string467:"
    },
    {
      "labels": [],
      "source": null,
      "text": "        .asciz  \"_ZNSt11char_traitsIcE11eq_int_typeERKiS2_\" # string offset=8565"
    },
    {
      "labels": [],
      "source": null,
      "text": ".Linfo_string468:"
    },
    {
      "labels": [],
      "source": null,
      "text": "        .asciz  \"eq_int_type\"           # string offset=8607"
    },
    {
      "labels": [],
      "source": null,
      "text": ".Linfo_string469:"
    },
    {
      "labels": [],
      "source": null,
      "text": "        .asciz  \"_ZNSt11char_traitsIcE3eofEv\" # string offset=8619"
    },
    {
      "labels": [],
      "source": null,
      "text": ".Linfo_string470:"
    },
    {
      "labels": [],
      "source": null,
      "text": "        .asciz  \"eof\"                   # string offset=8647"
    },
    {
      "labels": [],
      "source": null,
      "text": ".Linfo_string471:"
    },
    {
      "labels": [],
      "source": null,
      "text": "        .asciz  \"_ZNSt11char_traitsIcE7not_eofERKi\" # string offset=8651"
    },
    {
      "labels": [],
      "source": null,
      "text": ".Linfo_string472:"
    },
    {
      "labels": [],
      "source": null,
      "text": "        .asciz  \"not_eof\"               # string offset=8685"
    },
    {
      "labels": [],
      "source": null,
      "text": ".Linfo_string473:"
    },
    {
      "labels": [],
      "source": null,
      "text": "        .asciz  \"char_traits<char>\"     # string offset=8693"
    },
    {
      "labels": [],
      "source": null,
      "text": ".Linfo_string474:"
    },
    {
      "labels": [],
      "source": null,
      "text": "        .asciz  \"_Traits\"               # string offset=8711"
    },
    {
      "labels": [],
      "source": null,
      "text": ".Linfo_string475:"
    },
    {
      "labels": [],
      "source": null,
      "text": "        .asciz  \"basic_string_view<char, std::char_traits<char> >\" # string offset=8719"
    },
    {
      "labels": [],
      "source": null,
      "text": ".Linfo_string476:"
    },
    {
      "labels": [],
      "source": null,
      "text": "        .asciz  \"_ZN4ctre16captured_contentILm0EvE7storageIPKcE6get_idEv\" # string offset=8768"
    },
    {
      "labels": [],
      "source": null,
      "text": ".Linfo_string477:"
    },
    {
      "labels": [],
      "source": null,
      "text": "        .asciz  \"get_id\"                # string offset=8824"
    },
    {
      "labels": [],
      "source": null,
      "text": ".Linfo_string478:"
    },
    {
      "labels": [],
      "source": null,
      "text": "        .asciz  \"Iterator\"              # string offset=8831"
    },
    {
      "labels": [],
      "source": null,
      "text": ".Linfo_string479:"
    },
    {
      "labels": [],
      "source": null,
      "text": "        .asciz  \"storage<const char *>\" # string offset=8840"
    },
    {
      "labels": [],
      "source": null,
      "text": ".Linfo_string480:"
    },
    {
      "labels": [],
      "source": null,
      "text": "        .asciz  \"_ZN4ctre16captured_contentILm0EvE7storageIPKcEC2Ev\" # string offset=8862"
    },
    {
      "labels": [],
      "source": null,
      "text": ".Linfo_string481:"
    },
    {
      "labels": [],
      "source": null,
      "text": "        .asciz  \"this\"                  # string offset=8913"
    },
    {
      "labels": [],
      "source": null,
      "text": ".Linfo_string482:"
    },
    {
      "labels": [],
      "source": null,
      "text": "        .asciz  \"captures\"              # string offset=8918"
    },
    {
      "labels": [],
      "source": null,
      "text": ".Linfo_string483:"
    },
    {
      "labels": [],
      "source": null,
      "text": "        .asciz  \"Captures\"              # string offset=8927"
    },
    {
      "labels": [],
      "source": null,
      "text": ".Linfo_string484:"
    },
    {
      "labels": [],
      "source": null,
      "text": "        .asciz  \"captures<>\"            # string offset=8936"
    },
    {
      "labels": [],
      "source": null,
      "text": ".Linfo_string485:"
    },
    {
      "labels": [],
      "source": null,
      "text": "        .asciz  \"head\"                  # string offset=8947"
    },
    {
      "labels": [],
      "source": null,
      "text": ".Linfo_string486:"
    },
    {
      "labels": [],
      "source": null,
      "text": "        .asciz  \"captures<ctre::captured_content<0, void>::storage<const char *> >\" # string offset=8952"
    },
    {
      "labels": [],
      "source": null,
      "text": ".Linfo_string487:"
    },
    {
      "labels": [],
      "source": null,
      "text": "        .asciz  \"_ZN4ctre8capturesIJNS_16captured_contentILm0EvE7storageIPKcEEEEC2Ev\" # string offset=9018"
    },
    {
      "labels": [],
      "source": null,
      "text": ".Linfo_string488:"
    },
    {
      "labels": [],
      "source": null,
      "text": "        .asciz  \"_captures\"             # string offset=9086"
    },
    {
      "labels": [],
      "source": null,
      "text": ".Linfo_string489:"
    },
    {
      "labels": [],
      "source": null,
      "text": "        .asciz  \"regex_results\"         # string offset=9096"
    },
    {
      "labels": [],
      "source": null,
      "text": ".Linfo_string490:"
    },
    {
      "labels": [],
      "source": null,
      "text": "        .asciz  \"Ts\"                    # string offset=9110"
    },
    {
      "labels": [],
      "source": null,
      "text": ".Linfo_string491:"
    },
    {
      "labels": [],
      "source": null,
      "text": "        .asciz  \"list<>\"                # string offset=9113"
    },
    {
      "labels": [],
      "source": null,
      "text": ".Linfo_string492:"
    },
    {
      "labels": [],
      "source": null,
      "text": "        .asciz  \"_ZN4ctre13regex_resultsIPKcJEE4sizeEv\" # string offset=9120"
    },
    {
      "labels": [],
      "source": null,
      "text": ".Linfo_string493:"
    },
    {
      "labels": [],
      "source": null,
      "text": "        .asciz  \"_ZN4ctre13regex_resultsIPKcJEE7matchedEv\" # string offset=9158"
    },
    {
      "labels": [],
      "source": null,
      "text": ".Linfo_string494:"
    },
    {
      "labels": [],
      "source": null,
      "text": "        .asciz  \"_ZN4ctre13regex_resultsIPKcJEE7unmatchEv\" # string offset=9199"
    },
    {
      "labels": [],
      "source": null,
      "text": ".Linfo_string495:"
    },
    {
      "labels": [],
      "source": null,
      "text": "        .asciz  \"_ZNK4ctre13regex_resultsIPKcJEEcvbEv\" # string offset=9240"
    },
    {
      "labels": [],
      "source": null,
      "text": ".Linfo_string496:"
    },
    {
      "labels": [],
      "source": null,
      "text": "        .asciz  \"_ZNK4ctre13regex_resultsIPKcJEEcvSt17basic_string_viewIcSt11char_traitsIcEEEv\" # string offset=9277"
    },
    {
      "labels": [],
      "source": null,
      "text": ".Linfo_string497:"
    },
    {
      "labels": [],
      "source": null,
      "text": "        .asciz  \"_ZN4ctre13regex_resultsIPKcJEE14set_start_markES2_\" # string offset=9355"
    },
    {
      "labels": [],
      "source": null,
      "text": ".Linfo_string498:"
    },
    {
      "labels": [],
      "source": null,
      "text": "        .asciz  \"set_start_mark\"        # string offset=9406"
    },
    {
      "labels": [],
      "source": null,
      "text": ".Linfo_string499:"
    },
    {
      "labels": [],
      "source": null,
      "text": "        .asciz  \"_ZN4ctre13regex_resultsIPKcJEE12set_end_markES2_\" # string offset=9421"
    },
    {
      "labels": [],
      "source": null,
      "text": ".Linfo_string500:"
    },
    {
      "labels": [],
      "source": null,
      "text": "        .asciz  \"set_end_mark\"          # string offset=9470"
    },
    {
      "labels": [],
      "source": null,
      "text": ".Linfo_string501:"
    },
    {
      "labels": [],
      "source": null,
      "text": "        .asciz  \"_ZNK4ctre13regex_resultsIPKcJEE16get_end_positionEv\" # string offset=9483"
    },
    {
      "labels": [],
      "source": null,
      "text": ".Linfo_string502:"
    },
    {
      "labels": [],
      "source": null,
      "text": "        .asciz  \"get_end_position\"      # string offset=9535"
    },
    {
      "labels": [],
      "source": null,
      "text": ".Linfo_string503:"
    },
    {
      "labels": [],
      "source": null,
      "text": "        .asciz  \"regex_results<const char *>\" # string offset=9552"
    },
    {
      "labels": [],
      "source": null,
      "text": ".Linfo_string504:"
    },
    {
      "labels": [],
      "source": null,
      "text": "        .asciz  \"_ZN4ctre13regex_resultsIPKcJEEC2Ev\" # string offset=9580"
    },
    {
      "labels": [],
      "source": null,
      "text": ".Linfo_string505:"
    },
    {
      "labels": [],
      "source": null,
      "text": "        .asciz  \"EndIterator\"           # string offset=9615"
    },
    {
      "labels": [],
      "source": null,
      "text": ".Linfo_string506:"
    },
    {
      "labels": [],
      "source": null,
      "text": "        .asciz  \"Pattern\"               # string offset=9627"
    },
    {
      "labels": [],
      "source": null,
      "text": ".Linfo_string507:"
    },
    {
      "labels": [],
      "source": null,
      "text": "        .asciz  \"_ZN4ctre8match_reIPKcS2_NS_8sequenceIJNS_9characterILc104EEENS_4starIJNS_3anyEEEEEEEEEDaT_T0_T1_\" # string offset=9635"
    },
    {
      "labels": [],
      "source": null,
      "text": ".Linfo_string508:"
    },
    {
      "labels": [],
      "source": null,
      "text": "        .asciz  \"match_re<const char *, const char *, ctre::sequence<ctre::character<'h'>, ctre::star<ctre::any> > >\" # string offset=9732"
    },
    {
      "labels": [],
      "source": null,
      "text": ".Linfo_string509:"
    },
    {
      "labels": [],
      "source": null,
      "text": "        .asciz  \"_ZN4ctre18regular_expressionINS_8sequenceIJNS_9characterILc104EEENS_4starIJNS_3anyEEEEEEEE5matchIPKcEEDaT_SC_\" # string offset=9832"
    },
    {
      "labels": [],
      "source": null,
      "text": ".Linfo_string510:"
    },
    {
      "labels": [],
      "source": null,
      "text": "        .asciz  \"match<const char *>\"   # string offset=9942"
    },
    {
      "labels": [],
      "source": null,
      "text": ".Linfo_string511:"
    },
    {
      "labels": [],
      "source": null,
      "text": "        .asciz  \"_ZN4ctre18regular_expressionINS_8sequenceIJNS_9characterILc104EEENS_4starIJNS_3anyEEEEEEEE5matchESt17basic_string_viewIcSt11char_traitsIcEE\" # string offset=9962"
    },
    {
      "labels": [],
      "source": null,
      "text": ".Linfo_string512:"
    },
    {
      "labels": [],
      "source": null,
      "text": "        .asciz  \"match\"                 # string offset=10102"
    },
    {
      "labels": [],
      "source": null,
      "text": ".Linfo_string513:"
    },
    {
      "labels": [],
      "source": null,
      "text": "        .asciz  \"string_view\"           # string offset=10108"
    },
    {
      "labels": [],
      "source": null,
      "text": ".Linfo_string514:"
    },
    {
      "labels": [],
      "source": null,
      "text": "        .asciz  \"sv\"                    # string offset=10120"
    },
    {
      "labels": [],
      "source": null,
      "text": ".Linfo_string515:"
    },
    {
      "labels": [],
      "source": null,
      "text": "        .asciz  \"_Z5matchSt17basic_string_viewIcSt11char_traitsIcEE\" # string offset=10123"
    },
    {
      "labels": [],
      "source": null,
      "text": ".Linfo_string516:"
    },
    {
      "labels": [],
      "source": null,
      "text": "        .asciz  \"R\"                     # string offset=10174"
    },
    {
      "labels": [],
      "source": null,
      "text": ".Linfo_string517:"
    },
    {
      "labels": [],
      "source": null,
      "text": "        .asciz  \"CharacterLike\"         # string offset=10176"
    },
    {
      "labels": [],
      "source": null,
      "text": ".Linfo_string518:"
    },
    {
      "labels": [],
      "source": null,
      "text": "        .asciz  \"Tail\"                  # string offset=10190"
    },
    {
      "labels": [],
      "source": null,
      "text": ".Linfo_string519:"
    },
    {
      "labels": [],
      "source": null,
      "text": "        .asciz  \"sequence<ctre::star<ctre::any> >\" # string offset=10195"
    },
    {
      "labels": [],
      "source": null,
      "text": ".Linfo_string520:"
    },
    {
      "labels": [],
      "source": null,
      "text": "        .asciz  \"assert_end\"            # string offset=10228"
    },
    {
      "labels": [],
      "source": null,
      "text": ".Linfo_string521:"
    },
    {
      "labels": [],
      "source": null,
      "text": "        .asciz  \"end_mark\"              # string offset=10239"
    },
    {
      "labels": [],
      "source": null,
      "text": ".Linfo_string522:"
    },
    {
      "labels": [],
      "source": null,
      "text": "        .asciz  \"accept\"                # string offset=10248"
    },
    {
      "labels": [],
      "source": null,
      "text": ".Linfo_string523:"
    },
    {
      "labels": [],
      "source": null,
      "text": "        .asciz  \"_ZN4ctre8evaluateINS_13regex_resultsIPKcJEEES3_S3_NS_9characterILc104EEEJNS_8sequenceIJNS_4starIJNS_3anyEEEEEEENS_10assert_endENS_8end_markENS_6acceptEEvEET_T0_SG_T1_SF_N4ctll4listIJT2_DpT3_EEE\" # string offset=10255"
    },
    {
      "labels": [],
      "source": null,
      "text": ".Linfo_string524:"
    },
    {
      "labels": [],
      "source": null,
      "text": "        .asciz  \"evaluate<ctre::regex_results<const char *>, const char *, const char *, ctre::character<'h'>, ctre::sequence<ctre::star<ctre::any> >, ctre::assert_end, ctre::end_mark, ctre::accept, void>\" # string offset=10449"
    },
    {
      "labels": [],
      "source": null,
      "text": ".Linfo_string525:"
    },
    {
      "labels": [],
      "source": null,
      "text": "        .asciz  \"current\"               # string offset=10637"
    },
    {
      "labels": [],
      "source": null,
      "text": ".Linfo_string526:"
    },
    {
      "labels": [],
      "source": null,
      "text": "        .asciz  \"list<ctre::character<'h'>, ctre::sequence<ctre::star<ctre::any> >, ctre::assert_end, ctre::end_mark, ctre::accept>\" # string offset=10645"
    },
    {
      "labels": [],
      "source": null,
      "text": ".Linfo_string527:"
    },
    {
      "labels": [],
      "source": null,
      "text": "        .asciz  \"HeadContent\"           # string offset=10760"
    },
    {
      "labels": [],
      "source": null,
      "text": ".Linfo_string528:"
    },
    {
      "labels": [],
      "source": null,
      "text": "        .asciz  \"TailContent\"           # string offset=10772"
    },
    {
      "labels": [],
      "source": null,
      "text": ".Linfo_string529:"
    },
    {
      "labels": [],
      "source": null,
      "text": "        .asciz  \"_ZN4ctre8evaluateINS_13regex_resultsIPKcJEEES3_S3_NS_9characterILc104EEEJNS_4starIJNS_3anyEEEEEJNS_10assert_endENS_8end_markENS_6acceptEEEET_T0_SE_T1_SD_N4ctll4listIJNS_8sequenceIJT2_DpT3_EEEDpT4_EEE\" # string offset=10784"
    },
    {
      "labels": [],
      "source": null,
      "text": ".Linfo_string530:"
    },
    {
      "labels": [],
      "source": null,
      "text": "        .asciz  \"evaluate<ctre::regex_results<const char *>, const char *, const char *, ctre::character<'h'>, ctre::star<ctre::any> , ctre::assert_end, ctre::end_mark, ctre::accept>\" # string offset=10984"
    },
    {
      "labels": [],
      "source": null,
      "text": ".Linfo_string531:"
    },
    {
      "labels": [],
      "source": null,
      "text": "        .asciz  \"list<ctre::sequence<ctre::character<'h'>, ctre::star<ctre::any> >, ctre::assert_end, ctre::end_mark, ctre::accept>\" # string offset=11150"
    },
    {
      "labels": [],
      "source": null,
      "text": ".Linfo_string532:"
    },
    {
      "labels": [],
      "source": null,
      "text": "        .asciz  \"_ZN4ctre8evaluateINS_13regex_resultsIPKcJEEES3_S3_JNS_8sequenceIJNS_9characterILc104EEENS_4starIJNS_3anyEEEEEEENS_10assert_endENS_8end_markENS_6acceptEEEET_T0_SG_T1_SF_N4ctll4listIJNS_10start_markEDpT2_EEE\" # string offset=11265"
    },
    {
      "labels": [],
      "source": null,
      "text": ".Linfo_string533:"
    },
    {
      "labels": [],
      "source": null,
      "text": "        .asciz  \"evaluate<ctre::regex_results<const char *>, const char *, const char *, ctre::sequence<ctre::character<'h'>, ctre::star<ctre::any> >, ctre::assert_end, ctre::end_mark, ctre::accept>\" # string offset=11471"
    },
    {
      "labels": [],
      "source": null,
      "text": ".Linfo_string534:"
    },
    {
      "labels": [],
      "source": null,
      "text": "        .asciz  \"start_mark\"            # string offset=11653"
    },
    {
      "labels": [],
      "source": null,
      "text": ".Linfo_string535:"
    },
    {
      "labels": [],
      "source": null,
      "text": "        .asciz  \"list<ctre::start_mark, ctre::sequence<ctre::character<'h'>, ctre::star<ctre::any> >, ctre::assert_end, ctre::end_mark, ctre::accept>\" # string offset=11664"
    },
    {
      "labels": [],
      "source": null,
      "text": ".Linfo_string536:"
    },
    {
      "labels": [],
      "source": null,
      "text": "        .asciz  \"A\"                     # string offset=11797"
    },
    {
      "labels": [],
      "source": null,
      "text": ".Linfo_string537:"
    },
    {
      "labels": [],
      "source": null,
      "text": "        .asciz  \"B\"                     # string offset=11799"
    },
    {
      "labels": [],
      "source": null,
      "text": ".Linfo_string538:"
    },
    {
      "labels": [],
      "source": null,
      "text": "        .asciz  \"_ZN4ctre8evaluateINS_13regex_resultsIPKcJEEES3_S3_Lm0ELm0EJNS_3anyEEJNS_10assert_endENS_8end_markENS_6acceptEEEET_T0_SA_T1_S9_N4ctll4listIJNS_6repeatIXT2_EXT3_EJDpT4_EEEDpT5_EEE\" # string offset=11801"
    },
    {
      "labels": [],
      "source": null,
      "text": ".Linfo_string539:"
    },
    {
      "labels": [],
      "source": null,
      "text": "        .asciz  \"evaluate<ctre::regex_results<const char *>, const char *, const char *, 0, 0, ctre::any, ctre::assert_end, ctre::end_mark, ctre::accept>\" # string offset=11979"
    },
    {
      "labels": [],
      "source": null,
      "text": ".Linfo_string540:"
    },
    {
      "labels": [],
      "source": null,
      "text": "        .asciz  \"stack\"                 # string offset=12116"
    },
    {
      "labels": [],
      "source": null,
      "text": ".Linfo_string541:"
    },
    {
      "labels": [],
      "source": null,
      "text": "        .asciz  \"a\"                     # string offset=12122"
    },
    {
      "labels": [],
      "source": null,
      "text": ".Linfo_string542:"
    },
    {
      "labels": [],
      "source": null,
      "text": "        .asciz  \"b\"                     # string offset=12124"
    },
    {
      "labels": [],
      "source": null,
      "text": ".Linfo_string543:"
    },
    {
      "labels": [],
      "source": null,
      "text": "        .asciz  \"repeat<0, 0, ctre::any>\" # string offset=12126"
    },
    {
      "labels": [],
      "source": null,
      "text": ".Linfo_string544:"
    },
    {
      "labels": [],
      "source": null,
      "text": "        .asciz  \"list<ctre::repeat<0, 0, ctre::any>, ctre::assert_end, ctre::end_mark, ctre::accept>\" # string offset=12150"
    },
    {
      "labels": [],
      "source": null,
      "text": ".Linfo_string545:"
    },
    {
      "labels": [],
      "source": null,
      "text": "        .asciz  \"i\"                     # string offset=12234"
    },
    {
      "labels": [],
      "source": null,
      "text": ".Linfo_string546:"
    },
    {
      "labels": [],
      "source": null,
      "text": "        .asciz  \"inner_result\"          # string offset=12236"
    },
    {
      "labels": [],
      "source": null,
      "text": ".Linfo_string547:"
    },
    {
      "labels": [],
      "source": null,
      "text": "        .asciz  \"_ZN4ctre8evaluateINS_13regex_resultsIPKcJEEES3_S3_JNS_3anyEEJNS_10assert_endENS_8end_markENS_6acceptEEEET_T0_SA_T1_S9_N4ctll4listIJNS_4starIJDpT2_EEEDpT3_EEE\" # string offset=12249"
    },
    {
      "labels": [],
      "source": null,
      "text": ".Linfo_string548:"
    },
    {
      "labels": [],
      "source": null,
      "text": "        .asciz  \"evaluate<ctre::regex_results<const char *>, const char *, const char *, ctre::any, ctre::assert_end, ctre::end_mark, ctre::accept>\" # string offset=12407"
    },
    {
      "labels": [],
      "source": null,
      "text": ".Linfo_string549:"
    },
    {
      "labels": [],
      "source": null,
      "text": "        .asciz  \"list<ctre::star<ctre::any>, ctre::assert_end, ctre::end_mark, ctre::accept>\" # string offset=12538"
    },
    {
      "labels": [],
      "source": null,
      "text": ".Linfo_string550:"
    },
    {
      "labels": [],
      "source": null,
      "text": "        .asciz  \"_ZN4ctre8evaluateINS_13regex_resultsIPKcJEEES3_S3_NS_4starIJNS_3anyEEEEJEJNS_10assert_endENS_8end_markENS_6acceptEEEET_T0_SC_T1_SB_N4ctll4listIJNS_8sequenceIJT2_DpT3_EEEDpT4_EEE\" # string offset=12614"
    },
    {
      "labels": [],
      "source": null,
      "text": ".Linfo_string551:"
    },
    {
      "labels": [],
      "source": null,
      "text": "        .asciz  \"evaluate<ctre::regex_results<const char *>, const char *, const char *, ctre::star<ctre::any>, ctre::assert_end, ctre::end_mark, ctre::accept>\" # string offset=12792"
    },
    {
      "labels": [],
      "source": null,
      "text": ".Linfo_string552:"
    },
    {
      "labels": [],
      "source": null,
      "text": "        .asciz  \"list<ctre::sequence<ctre::star<ctre::any> >, ctre::assert_end, ctre::end_mark, ctre::accept>\" # string offset=12935"
    },
    {
      "labels": [],
      "source": null,
      "text": ".Linfo_string553:"
    },
    {
      "labels": [],
      "source": null,
      "text": "        .asciz  \"end_cycle_mark\"        # string offset=13028"
    },
    {
      "labels": [],
      "source": null,
      "text": ".Linfo_string554:"
    },
    {
      "labels": [],
      "source": null,
      "text": "        .asciz  \"_ZN4ctre8evaluateINS_13regex_resultsIPKcJEEES3_S3_NS_3anyEJNS_14end_cycle_markEEvEET_T0_S8_T1_S7_N4ctll4listIJT2_DpT3_EEE\" # string offset=13043"
    },
    {
      "labels": [],
      "source": null,
      "text": ".Linfo_string555:"
    },
    {
      "labels": [],
      "source": null,
      "text": "        .asciz  \"evaluate<ctre::regex_results<const char *>, const char *, const char *, ctre::any, ctre::end_cycle_mark, void>\" # string offset=13165"
    },
    {
      "labels": [],
      "source": null,
      "text": ".Linfo_string556:"
    },
    {
      "labels": [],
      "source": null,
      "text": "        .asciz  \"list<ctre::any, ctre::end_cycle_mark>\" # string offset=13276"
    },
    {
      "labels": [],
      "source": null,
      "text": ".Linfo_string557:"
    },
    {
      "labels": [],
      "source": null,
      "text": "        .asciz  \"_ZN4ctre8evaluateINS_13regex_resultsIPKcJEEES3_S3_NS_3anyEJEJNS_14end_cycle_markEEEET_T0_S8_T1_S7_N4ctll4listIJNS_8sequenceIJT2_DpT3_EEEDpT4_EEE\" # string offset=13314"
    },
    {
      "labels": [],
      "source": null,
      "text": ".Linfo_string558:"
    },
    {
      "labels": [],
      "source": null,
      "text": "        .asciz  \"evaluate<ctre::regex_results<const char *>, const char *, const char *, ctre::any, ctre::end_cycle_mark>\" # string offset=13459"
    },
    {
      "labels": [],
      "source": null,
      "text": ".Linfo_string559:"
    },
    {
      "labels": [],
      "source": null,
      "text": "        .asciz  \"sequence<ctre::any>\"   # string offset=13564"
    },
    {
      "labels": [],
      "source": null,
      "text": ".Linfo_string560:"
    },
    {
      "labels": [],
      "source": null,
      "text": "        .asciz  \"list<ctre::sequence<ctre::any>, ctre::end_cycle_mark>\" # string offset=13584"
    },
    {
      "labels": [],
      "source": null,
      "text": ".Linfo_string561:"
    },
    {
      "labels": [],
      "source": null,
      "text": "        .asciz  \"_ZN4ctre8evaluateINS_13regex_resultsIPKcJEEES3_S3_JEEET_T0_S6_T1_S5_N4ctll4listIJNS_14end_cycle_markEEEE\" # string offset=13638"
    },
    {
      "labels": [],
      "source": null,
      "text": ".Linfo_string562:"
    },
    {
      "labels": [],
      "source": null,
      "text": "        .asciz  \"evaluate<ctre::regex_results<const char *>, const char *, const char *>\" # string offset=13743"
    },
    {
      "labels": [],
      "source": null,
      "text": ".Linfo_string563:"
    },
    {
      "labels": [],
      "source": null,
      "text": "        .asciz  \"list<ctre::end_cycle_mark>\" # string offset=13815"
    },
    {
      "labels": [],
      "source": null,
      "text": ".Linfo_string564:"
    },
    {
      "labels": [],
      "source": null,
      "text": "        .asciz  \"_ZN4ctre8evaluateINS_13regex_resultsIPKcJEEES3_S3_EET_T0_S6_T1_S5_N4ctll4listIJNS_6acceptEEEE\" # string offset=13842"
    },
    {
      "labels": [],
      "source": null,
      "text": ".Linfo_string565:"
    },
    {
      "labels": [],
      "source": null,
      "text": "        .asciz  \"list<ctre::accept>\"    # string offset=13936"
    },
    {
      "labels": [],
      "source": null,
      "text": ".Linfo_string566:"
    },
    {
      "labels": [],
      "source": null,
      "text": "        .asciz  \"_ZN4ctre8evaluateINS_13regex_resultsIPKcJEEES3_S3_JNS_6acceptEEEET_T0_S7_T1_S6_N4ctll4listIJNS_8end_markEDpT2_EEE\" # string offset=13955"
    },
    {
      "labels": [],
      "source": null,
      "text": ".Linfo_string567:"
    },
    {
      "labels": [],
      "source": null,
      "text": "        .asciz  \"evaluate<ctre::regex_results<const char *>, const char *, const char *, ctre::accept>\" # string offset=14069"
    },
    {
      "labels": [],
      "source": null,
      "text": ".Linfo_string568:"
    },
    {
      "labels": [],
      "source": null,
      "text": "        .asciz  \"list<ctre::end_mark, ctre::accept>\" # string offset=14155"
    },
    {
      "labels": [],
      "source": null,
      "text": ".Linfo_string569:"
    },
    {
      "labels": [],
      "source": null,
      "text": "        .asciz  \"_ZN4ctre8evaluateINS_13regex_resultsIPKcJEEES3_S3_JNS_8end_markENS_6acceptEEEET_T0_S8_T1_S7_N4ctll4listIJNS_10assert_endEDpT2_EEE\" # string offset=14190"
    },
    {
      "labels": [],
      "source": null,
      "text": ".Linfo_string570:"
    },
    {
      "labels": [],
      "source": null,
      "text": "        .asciz  \"evaluate<ctre::regex_results<const char *>, const char *, const char *, ctre::end_mark, ctre::accept>\" # string offset=14320"
    },
    {
      "labels": [],
      "source": null,
      "text": ".Linfo_string571:"
    },
    {
      "labels": [],
      "source": null,
      "text": "        .asciz  \"list<ctre::assert_end, ctre::end_mark, ctre::accept>\" # string offset=14422"
    },
    {
      "labels": [],
      "source": null,
      "text": ".Linfo_string572:"
    },
    {
      "labels": [],
      "source": null,
      "text": "        .asciz  \"_ZN4ctre13regex_resultsIPKcJEEC2ENS_17not_matched_tag_tE\" # string offset=14475"
    },
    {
      "labels": [],
      "source": null,
      "text": ".Linfo_string573:"
    },
    {
      "labels": [
        {
          "name": "_Z6myfuncv",
          "range": {
            "endCol": 28,
            "startCol": 18
          }
        }
      ],
      "source": null,
      "text": "        .asciz  \"_Z6myfuncv\"            # string offset=14532"
    },
    {
      "labels": [],
      "source": null,
      "text": ".Linfo_string574:"
    },
    {
      "labels": [],
      "source": null,
      "text": "        .asciz  \"myfunc\"                # string offset=14543"
    },
    {
      "labels": [],
      "source": null,
      "text": ".Linfo_string575:"
    },
    {
      "labels": [
        {
          "name": "_ZN4ctre18evaluate_recursiveINS_13regex_resultsIPKcJEEES3_S3_Lm0ELm0EJNS_3anyEEJNS_10assert_endENS_8end_markENS_6acceptEEEET_mT0_SA_T1_S9_N4ctll4listIJNS_6repeatIXT2_EXT3_EJDpT4_EEEDpT5_EEE",
          "range": {
            "endCol": 207,
            "startCol": 18
          }
        }
      ],
      "source": null,
      "text": "        .asciz  \"_ZN4ctre18evaluate_recursiveINS_13regex_resultsIPKcJEEES3_S3_Lm0ELm0EJNS_3anyEEJNS_10assert_endENS_8end_markENS_6acceptEEEET_mT0_SA_T1_S9_N4ctll4listIJNS_6repeatIXT2_EXT3_EJDpT4_EEEDpT5_EEE\" # string offset=14550"
    },
    {
      "labels": [],
      "source": null,
      "text": ".Linfo_string576:"
    },
    {
      "labels": [],
      "source": null,
      "text": "        .asciz  \"evaluate_recursive<ctre::regex_results<const char *>, const char *, const char *, 0, 0, ctre::any, ctre::assert_end, ctre::end_mark, ctre::accept>\" # string offset=14740"
    },
    {
      "labels": [],
      "source": null,
      "text": ".Linfo_string577:"
    },
    {
      "labels": [],
      "source": null,
      "text": "        .asciz  \"rec_result\"            # string offset=14887"
    },
    {
      "labels": [],
      "source": null,
      "text": "        .section        .debug_loc,\"\",@progbits"
    },
    {
      "labels": [],
      "source": null,
      "text": ".Ldebug_loc0:"
    },
    {
      "labels": [
        {
          "name": ".Ltmp3",
          "range": {
            "endCol": 23,
            "startCol": 17
          }
        }
      ],
      "source": null,
      "text": "        .quad   .Ltmp3"
    },
    {
      "labels": [
        {
          "name": ".Ltmp8",
          "range": {
            "endCol": 23,
            "startCol": 17
          }
        }
      ],
      "source": null,
      "text": "        .quad   .Ltmp8"
    },
    {
      "labels": [],
      "source": null,
      "text": "        .short  4                       # Loc expr size"
    },
    {
      "labels": [],
      "source": null,
      "text": "        .byte   53                      # DW_OP_lit5"
    },
    {
      "labels": [],
      "source": null,
      "text": "        .byte   159                     # DW_OP_stack_value"
    },
    {
      "labels": [],
      "source": null,
      "text": "        .byte   147                     # DW_OP_piece"
    },
    {
      "labels": [],
      "source": null,
      "text": "        .byte   8                       # 8"
    },
    {
      "labels": [
        {
          "name": ".Ltmp8",
          "range": {
            "endCol": 23,
            "startCol": 17
          }
        }
      ],
      "source": null,
      "text": "        .quad   .Ltmp8"
    },
    {
      "labels": [
        {
          "name": ".Ltmp11",
          "range": {
            "endCol": 24,
            "startCol": 17
          }
        }
      ],
      "source": null,
      "text": "        .quad   .Ltmp11"
    },
    {
      "labels": [],
      "source": null,
      "text": "        .short  7                       # Loc expr size"
    },
    {
      "labels": [],
      "source": null,
      "text": "        .byte   53                      # DW_OP_lit5"
    },
    {
      "labels": [],
      "source": null,
      "text": "        .byte   159                     # DW_OP_stack_value"
    },
    {
      "labels": [],
      "source": null,
      "text": "        .byte   147                     # DW_OP_piece"
    },
    {
      "labels": [],
      "source": null,
      "text": "        .byte   8                       # 8"
    },
    {
      "labels": [],
      "source": null,
      "text": "        .byte   81                      # DW_OP_reg1"
    },
    {
      "labels": [],
      "source": null,
      "text": "        .byte   147                     # DW_OP_piece"
    },
    {
      "labels": [],
      "source": null,
      "text": "        .byte   8                       # 8"
    },
    {
      "labels": [],
      "source": null,
      "text": "        .quad   0"
    },
    {
      "labels": [],
      "source": null,
      "text": "        .quad   0"
    },
    {
      "labels": [],
      "source": null,
      "text": ".Ldebug_loc1:"
    },
    {
      "labels": [
        {
          "name": ".Ltmp9",
          "range": {
            "endCol": 23,
            "startCol": 17
          }
        }
      ],
      "source": null,
      "text": "        .quad   .Ltmp9"
    },
    {
      "labels": [
        {
          "name": ".Ltmp11",
          "range": {
            "endCol": 24,
            "startCol": 17
          }
        }
      ],
      "source": null,
      "text": "        .quad   .Ltmp11"
    },
    {
      "labels": [],
      "source": null,
      "text": "        .short  1                       # Loc expr size"
    },
    {
      "labels": [],
      "source": null,
      "text": "        .byte   82                      # DW_OP_reg2"
    },
    {
      "labels": [],
      "source": null,
      "text": "        .quad   0"
    },
    {
      "labels": [],
      "source": null,
      "text": "        .quad   0"
    },
    {
      "labels": [],
      "source": null,
      "text": ".Ldebug_loc2:"
    },
    {
      "labels": [
        {
          "name": ".Ltmp10",
          "range": {
            "endCol": 24,
            "startCol": 17
          }
        }
      ],
      "source": null,
      "text": "        .quad   .Ltmp10"
    },
    {
      "labels": [
        {
          "name": ".Ltmp11",
          "range": {
            "endCol": 24,
            "startCol": 17
          }
        }
      ],
      "source": null,
      "text": "        .quad   .Ltmp11"
    },
    {
      "labels": [],
      "source": null,
      "text": "        .short  1                       # Loc expr size"
    },
    {
      "labels": [],
      "source": null,
      "text": "        .byte   88                      # DW_OP_reg8"
    },
    {
      "labels": [],
      "source": null,
      "text": "        .quad   0"
    },
    {
      "labels": [],
      "source": null,
      "text": "        .quad   0"
    },
    {
      "labels": [],
      "source": null,
      "text": ".Ldebug_loc3:"
    },
    {
      "labels": [
        {
          "name": ".Lfunc_begin2",
          "range": {
            "endCol": 30,
            "startCol": 17
          }
        }
      ],
      "source": null,
      "text": "        .quad   .Lfunc_begin2"
    },
    {
      "labels": [
        {
          "name": ".Ltmp22",
          "range": {
            "endCol": 24,
            "startCol": 17
          }
        }
      ],
      "source": null,
      "text": "        .quad   .Ltmp22"
    },
    {
      "labels": [],
      "source": null,
      "text": "        .short  1                       # Loc expr size"
    },
    {
      "labels": [],
      "source": null,
      "text": "        .byte   84                      # DW_OP_reg4"
    },
    {
      "labels": [
        {
          "name": ".Ltmp27",
          "range": {
            "endCol": 24,
            "startCol": 17
          }
        }
      ],
      "source": null,
      "text": "        .quad   .Ltmp27"
    },
    {
      "labels": [
        {
          "name": ".Ltmp34",
          "range": {
            "endCol": 24,
            "startCol": 17
          }
        }
      ],
      "source": null,
      "text": "        .quad   .Ltmp34"
    },
    {
      "labels": [],
      "source": null,
      "text": "        .short  1                       # Loc expr size"
    },
    {
      "labels": [],
      "source": null,
      "text": "        .byte   84                      # DW_OP_reg4"
    },
    {
      "labels": [],
      "source": null,
      "text": "        .quad   0"
    },
    {
      "labels": [],
      "source": null,
      "text": "        .quad   0"
    },
    {
      "labels": [],
      "source": null,
      "text": ".Ldebug_loc4:"
    },
    {
      "labels": [
        {
          "name": ".Lfunc_begin2",
          "range": {
            "endCol": 30,
            "startCol": 17
          }
        }
      ],
      "source": null,
      "text": "        .quad   .Lfunc_begin2"
    },
    {
      "labels": [
        {
          "name": ".Ltmp24",
          "range": {
            "endCol": 24,
            "startCol": 17
          }
        }
      ],
      "source": null,
      "text": "        .quad   .Ltmp24"
    },
    {
      "labels": [],
      "source": null,
      "text": "        .short  1                       # Loc expr size"
    },
    {
      "labels": [],
      "source": null,
      "text": "        .byte   81                      # DW_OP_reg1"
    },
    {
      "labels": [
        {
          "name": ".Ltmp27",
          "range": {
            "endCol": 24,
            "startCol": 17
          }
        }
      ],
      "source": null,
      "text": "        .quad   .Ltmp27"
    },
    {
      "labels": [
        {
          "name": ".Ltmp32",
          "range": {
            "endCol": 24,
            "startCol": 17
          }
        }
      ],
      "source": null,
      "text": "        .quad   .Ltmp32"
    },
    {
      "labels": [],
      "source": null,
      "text": "        .short  1                       # Loc expr size"
    },
    {
      "labels": [],
      "source": null,
      "text": "        .byte   81                      # DW_OP_reg1"
    },
    {
      "labels": [],
      "source": null,
      "text": "        .quad   0"
    },
    {
      "labels": [],
      "source": null,
      "text": "        .quad   0"
    },
    {
      "labels": [],
      "source": null,
      "text": ".Ldebug_loc5:"
    },
    {
      "labels": [
        {
          "name": ".Lfunc_begin2",
          "range": {
            "endCol": 30,
            "startCol": 17
          }
        }
      ],
      "source": null,
      "text": "        .quad   .Lfunc_begin2"
    },
    {
      "labels": [
        {
          "name": ".Ltmp20",
          "range": {
            "endCol": 24,
            "startCol": 17
          }
        }
      ],
      "source": null,
      "text": "        .quad   .Ltmp20"
    },
    {
      "labels": [],
      "source": null,
      "text": "        .short  1                       # Loc expr size"
    },
    {
      "labels": [],
      "source": null,
      "text": "        .byte   82                      # DW_OP_reg2"
    },
    {
      "labels": [
        {
          "name": ".Ltmp27",
          "range": {
            "endCol": 24,
            "startCol": 17
          }
        }
      ],
      "source": null,
      "text": "        .quad   .Ltmp27"
    },
    {
      "labels": [
        {
          "name": ".Ltmp31",
          "range": {
            "endCol": 24,
            "startCol": 17
          }
        }
      ],
      "source": null,
      "text": "        .quad   .Ltmp31"
    },
    {
      "labels": [],
      "source": null,
      "text": "        .short  1                       # Loc expr size"
    },
    {
      "labels": [],
      "source": null,
      "text": "        .byte   82                      # DW_OP_reg2"
    },
    {
      "labels": [],
      "source": null,
      "text": "        .quad   0"
    },
    {
      "labels": [],
      "source": null,
      "text": "        .quad   0"
    },
    {
      "labels": [],
      "source": null,
      "text": ".Ldebug_loc6:"
    },
    {
      "labels": [
        {
          "name": ".Lfunc_begin2",
          "range": {
            "endCol": 30,
            "startCol": 17
          }
        }
      ],
      "source": null,
      "text": "        .quad   .Lfunc_begin2"
    },
    {
      "labels": [
        {
          "name": ".Ltmp24",
          "range": {
            "endCol": 24,
            "startCol": 17
          }
        }
      ],
      "source": null,
      "text": "        .quad   .Ltmp24"
    },
    {
      "labels": [],
      "source": null,
      "text": "        .short  1                       # Loc expr size"
    },
    {
      "labels": [],
      "source": null,
      "text": "        .byte   88                      # DW_OP_reg8"
    },
    {
      "labels": [
        {
          "name": ".Ltmp27",
          "range": {
            "endCol": 24,
            "startCol": 17
          }
        }
      ],
      "source": null,
      "text": "        .quad   .Ltmp27"
    },
    {
      "labels": [
        {
          "name": ".Ltmp34",
          "range": {
            "endCol": 24,
            "startCol": 17
          }
        }
      ],
      "source": null,
      "text": "        .quad   .Ltmp34"
    },
    {
      "labels": [],
      "source": null,
      "text": "        .short  1                       # Loc expr size"
    },
    {
      "labels": [],
      "source": null,
      "text": "        .byte   88                      # DW_OP_reg8"
    },
    {
      "labels": [],
      "source": null,
      "text": "        .quad   0"
    },
    {
      "labels": [],
      "source": null,
      "text": "        .quad   0"
    },
    {
      "labels": [],
      "source": null,
      "text": ".Ldebug_loc7:"
    },
    {
      "labels": [
        {
          "name": ".Ltmp14",
          "range": {
            "endCol": 24,
            "startCol": 17
          }
        }
      ],
      "source": null,
      "text": "        .quad   .Ltmp14"
    },
    {
      "labels": [
        {
          "name": ".Ltmp24",
          "range": {
            "endCol": 24,
            "startCol": 17
          }
        }
      ],
      "source": null,
      "text": "        .quad   .Ltmp24"
    },
    {
      "labels": [],
      "source": null,
      "text": "        .short  1                       # Loc expr size"
    },
    {
      "labels": [],
      "source": null,
      "text": "        .byte   81                      # DW_OP_reg1"
    },
    {
      "labels": [],
      "source": null,
      "text": "        .quad   0"
    },
    {
      "labels": [],
      "source": null,
      "text": "        .quad   0"
    },
    {
      "labels": [],
      "source": null,
      "text": ".Ldebug_loc8:"
    },
    {
      "labels": [
        {
          "name": ".Ltmp14",
          "range": {
            "endCol": 24,
            "startCol": 17
          }
        }
      ],
      "source": null,
      "text": "        .quad   .Ltmp14"
    },
    {
      "labels": [
        {
          "name": ".Ltmp20",
          "range": {
            "endCol": 24,
            "startCol": 17
          }
        }
      ],
      "source": null,
      "text": "        .quad   .Ltmp20"
    },
    {
      "labels": [],
      "source": null,
      "text": "        .short  1                       # Loc expr size"
    },
    {
      "labels": [],
      "source": null,
      "text": "        .byte   82                      # DW_OP_reg2"
    },
    {
      "labels": [],
      "source": null,
      "text": "        .quad   0"
    },
    {
      "labels": [],
      "source": null,
      "text": "        .quad   0"
    },
    {
      "labels": [],
      "source": null,
      "text": ".Ldebug_loc9:"
    },
    {
      "labels": [
        {
          "name": ".Ltmp14",
          "range": {
            "endCol": 24,
            "startCol": 17
          }
        }
      ],
      "source": null,
      "text": "        .quad   .Ltmp14"
    },
    {
      "labels": [
        {
          "name": ".Ltmp24",
          "range": {
            "endCol": 24,
            "startCol": 17
          }
        }
      ],
      "source": null,
      "text": "        .quad   .Ltmp24"
    },
    {
      "labels": [],
      "source": null,
      "text": "        .short  1                       # Loc expr size"
    },
    {
      "labels": [],
      "source": null,
      "text": "        .byte   88                      # DW_OP_reg8"
    },
    {
      "labels": [],
      "source": null,
      "text": "        .quad   0"
    },
    {
      "labels": [],
      "source": null,
      "text": "        .quad   0"
    },
    {
      "labels": [],
      "source": null,
      "text": ".Ldebug_loc10:"
    },
    {
      "labels": [
        {
          "name": ".Ltmp14",
          "range": {
            "endCol": 24,
            "startCol": 17
          }
        }
      ],
      "source": null,
      "text": "        .quad   .Ltmp14"
    },
    {
      "labels": [
        {
          "name": ".Ltmp24",
          "range": {
            "endCol": 24,
            "startCol": 17
          }
        }
      ],
      "source": null,
      "text": "        .quad   .Ltmp24"
    },
    {
      "labels": [],
      "source": null,
      "text": "        .short  1                       # Loc expr size"
    },
    {
      "labels": [],
      "source": null,
      "text": "        .byte   81                      # DW_OP_reg1"
    },
    {
      "labels": [],
      "source": null,
      "text": "        .quad   0"
    },
    {
      "labels": [],
      "source": null,
      "text": "        .quad   0"
    },
    {
      "labels": [],
      "source": null,
      "text": ".Ldebug_loc11:"
    },
    {
      "labels": [
        {
          "name": ".Ltmp14",
          "range": {
            "endCol": 24,
            "startCol": 17
          }
        }
      ],
      "source": null,
      "text": "        .quad   .Ltmp14"
    },
    {
      "labels": [
        {
          "name": ".Ltmp20",
          "range": {
            "endCol": 24,
            "startCol": 17
          }
        }
      ],
      "source": null,
      "text": "        .quad   .Ltmp20"
    },
    {
      "labels": [],
      "source": null,
      "text": "        .short  1                       # Loc expr size"
    },
    {
      "labels": [],
      "source": null,
      "text": "        .byte   82                      # DW_OP_reg2"
    },
    {
      "labels": [],
      "source": null,
      "text": "        .quad   0"
    },
    {
      "labels": [],
      "source": null,
      "text": "        .quad   0"
    },
    {
      "labels": [],
      "source": null,
      "text": ".Ldebug_loc12:"
    },
    {
      "labels": [
        {
          "name": ".Ltmp14",
          "range": {
            "endCol": 24,
            "startCol": 17
          }
        }
      ],
      "source": null,
      "text": "        .quad   .Ltmp14"
    },
    {
      "labels": [
        {
          "name": ".Ltmp24",
          "range": {
            "endCol": 24,
            "startCol": 17
          }
        }
      ],
      "source": null,
      "text": "        .quad   .Ltmp24"
    },
    {
      "labels": [],
      "source": null,
      "text": "        .short  1                       # Loc expr size"
    },
    {
      "labels": [],
      "source": null,
      "text": "        .byte   88                      # DW_OP_reg8"
    },
    {
      "labels": [],
      "source": null,
      "text": "        .quad   0"
    },
    {
      "labels": [],
      "source": null,
      "text": "        .quad   0"
    },
    {
      "labels": [],
      "source": null,
      "text": ".Ldebug_loc13:"
    },
    {
      "labels": [
        {
          "name": ".Ltmp14",
          "range": {
            "endCol": 24,
            "startCol": 17
          }
        }
      ],
      "source": null,
      "text": "        .quad   .Ltmp14"
    },
    {
      "labels": [
        {
          "name": ".Ltmp24",
          "range": {
            "endCol": 24,
            "startCol": 17
          }
        }
      ],
      "source": null,
      "text": "        .quad   .Ltmp24"
    },
    {
      "labels": [],
      "source": null,
      "text": "        .short  1                       # Loc expr size"
    },
    {
      "labels": [],
      "source": null,
      "text": "        .byte   81                      # DW_OP_reg1"
    },
    {
      "labels": [],
      "source": null,
      "text": "        .quad   0"
    },
    {
      "labels": [],
      "source": null,
      "text": "        .quad   0"
    },
    {
      "labels": [],
      "source": null,
      "text": ".Ldebug_loc14:"
    },
    {
      "labels": [
        {
          "name": ".Ltmp14",
          "range": {
            "endCol": 24,
            "startCol": 17
          }
        }
      ],
      "source": null,
      "text": "        .quad   .Ltmp14"
    },
    {
      "labels": [
        {
          "name": ".Ltmp24",
          "range": {
            "endCol": 24,
            "startCol": 17
          }
        }
      ],
      "source": null,
      "text": "        .quad   .Ltmp24"
    },
    {
      "labels": [],
      "source": null,
      "text": "        .short  1                       # Loc expr size"
    },
    {
      "labels": [],
      "source": null,
      "text": "        .byte   88                      # DW_OP_reg8"
    },
    {
      "labels": [],
      "source": null,
      "text": "        .quad   0"
    },
    {
      "labels": [],
      "source": null,
      "text": "        .quad   0"
    },
    {
      "labels": [],
      "source": null,
      "text": ".Ldebug_loc15:"
    },
    {
      "labels": [
        {
          "name": ".Ltmp14",
          "range": {
            "endCol": 24,
            "startCol": 17
          }
        }
      ],
      "source": null,
      "text": "        .quad   .Ltmp14"
    },
    {
      "labels": [
        {
          "name": ".Ltmp15",
          "range": {
            "endCol": 24,
            "startCol": 17
          }
        }
      ],
      "source": null,
      "text": "        .quad   .Ltmp15"
    },
    {
      "labels": [],
      "source": null,
      "text": "        .short  1                       # Loc expr size"
    },
    {
      "labels": [],
      "source": null,
      "text": "        .byte   85                      # DW_OP_reg5"
    },
    {
      "labels": [
        {
          "name": ".Ltmp15",
          "range": {
            "endCol": 24,
            "startCol": 17
          }
        }
      ],
      "source": null,
      "text": "        .quad   .Ltmp15"
    },
    {
      "labels": [
        {
          "name": ".Ltmp26",
          "range": {
            "endCol": 24,
            "startCol": 17
          }
        }
      ],
      "source": null,
      "text": "        .quad   .Ltmp26"
    },
    {
      "labels": [],
      "source": null,
      "text": "        .short  1                       # Loc expr size"
    },
    {
      "labels": [],
      "source": null,
      "text": "        .byte   83                      # DW_OP_reg3"
    },
    {
      "labels": [],
      "source": null,
      "text": "        .quad   0"
    },
    {
      "labels": [],
      "source": null,
      "text": "        .quad   0"
    },
    {
      "labels": [],
      "source": null,
      "text": ".Ldebug_loc16:"
    },
    {
      "labels": [
        {
          "name": ".Ltmp14",
          "range": {
            "endCol": 24,
            "startCol": 17
          }
        }
      ],
      "source": null,
      "text": "        .quad   .Ltmp14"
    },
    {
      "labels": [
        {
          "name": ".Ltmp15",
          "range": {
            "endCol": 24,
            "startCol": 17
          }
        }
      ],
      "source": null,
      "text": "        .quad   .Ltmp15"
    },
    {
      "labels": [],
      "source": null,
      "text": "        .short  1                       # Loc expr size"
    },
    {
      "labels": [],
      "source": null,
      "text": "        .byte   85                      # DW_OP_reg5"
    },
    {
      "labels": [
        {
          "name": ".Ltmp15",
          "range": {
            "endCol": 24,
            "startCol": 17
          }
        }
      ],
      "source": null,
      "text": "        .quad   .Ltmp15"
    },
    {
      "labels": [
        {
          "name": ".Ltmp26",
          "range": {
            "endCol": 24,
            "startCol": 17
          }
        }
      ],
      "source": null,
      "text": "        .quad   .Ltmp26"
    },
    {
      "labels": [],
      "source": null,
      "text": "        .short  1                       # Loc expr size"
    },
    {
      "labels": [],
      "source": null,
      "text": "        .byte   83                      # DW_OP_reg3"
    },
    {
      "labels": [],
      "source": null,
      "text": "        .quad   0"
    },
    {
      "labels": [],
      "source": null,
      "text": "        .quad   0"
    },
    {
      "labels": [],
      "source": null,
      "text": ".Ldebug_loc17:"
    },
    {
      "labels": [
        {
          "name": ".Ltmp14",
          "range": {
            "endCol": 24,
            "startCol": 17
          }
        }
      ],
      "source": null,
      "text": "        .quad   .Ltmp14"
    },
    {
      "labels": [
        {
          "name": ".Ltmp15",
          "range": {
            "endCol": 24,
            "startCol": 17
          }
        }
      ],
      "source": null,
      "text": "        .quad   .Ltmp15"
    },
    {
      "labels": [],
      "source": null,
      "text": "        .short  1                       # Loc expr size"
    },
    {
      "labels": [],
      "source": null,
      "text": "        .byte   85                      # DW_OP_reg5"
    },
    {
      "labels": [
        {
          "name": ".Ltmp15",
          "range": {
            "endCol": 24,
            "startCol": 17
          }
        }
      ],
      "source": null,
      "text": "        .quad   .Ltmp15"
    },
    {
      "labels": [
        {
          "name": ".Ltmp19",
          "range": {
            "endCol": 24,
            "startCol": 17
          }
        }
      ],
      "source": null,
      "text": "        .quad   .Ltmp19"
    },
    {
      "labels": [],
      "source": null,
      "text": "        .short  1                       # Loc expr size"
    },
    {
      "labels": [],
      "source": null,
      "text": "        .byte   83                      # DW_OP_reg3"
    },
    {
      "labels": [],
      "source": null,
      "text": "        .quad   0"
    },
    {
      "labels": [],
      "source": null,
      "text": "        .quad   0"
    },
    {
      "labels": [],
      "source": null,
      "text": ".Ldebug_loc18:"
    },
    {
      "labels": [
        {
          "name": ".Ltmp14",
          "range": {
            "endCol": 24,
            "startCol": 17
          }
        }
      ],
      "source": null,
      "text": "        .quad   .Ltmp14"
    },
    {
      "labels": [
        {
          "name": ".Ltmp15",
          "range": {
            "endCol": 24,
            "startCol": 17
          }
        }
      ],
      "source": null,
      "text": "        .quad   .Ltmp15"
    },
    {
      "labels": [],
      "source": null,
      "text": "        .short  1                       # Loc expr size"
    },
    {
      "labels": [],
      "source": null,
      "text": "        .byte   85                      # DW_OP_reg5"
    },
    {
      "labels": [
        {
          "name": ".Ltmp15",
          "range": {
            "endCol": 24,
            "startCol": 17
          }
        }
      ],
      "source": null,
      "text": "        .quad   .Ltmp15"
    },
    {
      "labels": [
        {
          "name": ".Ltmp19",
          "range": {
            "endCol": 24,
            "startCol": 17
          }
        }
      ],
      "source": null,
      "text": "        .quad   .Ltmp19"
    },
    {
      "labels": [],
      "source": null,
      "text": "        .short  1                       # Loc expr size"
    },
    {
      "labels": [],
      "source": null,
      "text": "        .byte   83                      # DW_OP_reg3"
    },
    {
      "labels": [],
      "source": null,
      "text": "        .quad   0"
    },
    {
      "labels": [],
      "source": null,
      "text": "        .quad   0"
    },
    {
      "labels": [],
      "source": null,
      "text": ".Ldebug_loc19:"
    },
    {
      "labels": [
        {
          "name": ".Ltmp14",
          "range": {
            "endCol": 24,
            "startCol": 17
          }
        }
      ],
      "source": null,
      "text": "        .quad   .Ltmp14"
    },
    {
      "labels": [
        {
          "name": ".Ltmp15",
          "range": {
            "endCol": 24,
            "startCol": 17
          }
        }
      ],
      "source": null,
      "text": "        .quad   .Ltmp15"
    },
    {
      "labels": [],
      "source": null,
      "text": "        .short  1                       # Loc expr size"
    },
    {
      "labels": [],
      "source": null,
      "text": "        .byte   85                      # DW_OP_reg5"
    },
    {
      "labels": [
        {
          "name": ".Ltmp15",
          "range": {
            "endCol": 24,
            "startCol": 17
          }
        }
      ],
      "source": null,
      "text": "        .quad   .Ltmp15"
    },
    {
      "labels": [
        {
          "name": ".Ltmp19",
          "range": {
            "endCol": 24,
            "startCol": 17
          }
        }
      ],
      "source": null,
      "text": "        .quad   .Ltmp19"
    },
    {
      "labels": [],
      "source": null,
