{
  "asm": [
    {
      "labels": [],
      "source": null,
      "text": "        .file   \"example.cpp\""
    },
    {
      "labels": [],
      "source": null,
      "text": "        .intel_syntax noprefix"
    },
    {
      "labels": [],
      "source": null,
      "text": "        .text"
    },
    {
      "labels": [],
      "source": null,
      "text": ".Ltext0:"
    },
    {
      "labels": [],
      "source": null,
      "text": "        .file 0 \"/app\" \"/app/example.cpp\""
    },
    {
      "labels": [],
      "source": null,
      "text": "        .p2align 4"
    },
    {
      "labels": [
        {
          "name": "std",
          "range": {
            "endCol": 20,
            "startCol": 17
          }
        },
        {
          "name": "main",
          "range": {
            "endCol": 53,
            "startCol": 49
          }
        }
      ],
      "source": null,
      "text": "        .type   std::_Function_handler<void (), main::{lambda()#1}>::_M_invoke(std::_Any_data const&), @function"
    },
    {
      "labels": [],
      "source": null,
      "text": "std::_Function_handler<void (), main::{lambda()#1}>::_M_invoke(std::_Any_data const&):"
    },
    {
      "labels": [],
      "source": null,
      "text": ".LVL0:"
    },
    {
      "labels": [],
      "source": null,
      "text": ".LFB2152:"
    },
    {
      "labels": [],
      "source": null,
      "text": "        .file 1 \"/opt/compiler-explorer/gcc-12.2.0/include/c++/12.2.0/bits/std_function.h\""
    },
    {
      "labels": [],
      "source": null,
      "text": "        .loc 1 288 7 view -0"
    },
    {
      "labels": [],
      "source": null,
      "text": "        .cfi_startproc"
    },
    {
      "labels": [],
      "source": null,
      "text": ".LBB138:"
    },
    {
      "labels": [],
      "source": null,
      "text": ".LBI138:"
    },
    {
      "labels": [],
      "source": null,
      "text": "        .file 2 \"/opt/compiler-explorer/gcc-12.2.0/include/c++/12.2.0/bits/invoke.h\""
    },
    {
      "labels": [],
      "source": null,
      "text": "        .loc 2 104 5 view .LVU1"
    },
    {
      "labels": [],
      "source": null,
      "text": ".LBB139:"
    },
    {
      "labels": [],
      "source": null,
      "text": ".LBB140:"
    },
    {
      "labels": [],
      "source": null,
      "text": ".LBI140:"
    },
    {
      "labels": [],
      "source": null,
      "text": "        .loc 2 60 5 view .LVU2"
    },
    {
      "labels": [],
      "source": null,
      "text": ".LBB141:"
    },
    {
      "labels": [],
      "source": null,
      "text": ".LBI141:"
    },
    {
      "labels": [],
      "source": null,
      "text": "        .file 3 \"/app/example.cpp\""
    },
    {
      "labels": [],
      "source": null,
      "text": "        .loc 3 23 12 view .LVU3"
    },
    {
      "labels": [],
      "source": null,
      "text": ".LBB142:"
    },
    {
      "labels": [],
      "source": null,
      "text": "        .loc 3 23 19 view .LVU4"
    },
    {
      "labels": [],
      "source": null,
      "text": "        .loc 3 23 25 is_stmt 0 view .LVU5"
    },
    {
      "labels": [],
      "source": {
        "column": 25,
        "file": null,
        "line": 23
      },
      "text": "        mov     rdi, QWORD PTR [rdi]"
    },
    {
      "labels": [],
      "source": null,
      "text": ".LVL1:"
    },
    {
      "labels": [],
      "source": null,
      "text": "        .loc 3 23 25 view .LVU6"
    },
    {
      "labels": [],
      "source": {
        "column": 25,
        "file": null,
        "line": 23
      },
      "text": "        jmp     fclose"
    },
    {
      "labels": [],
      "source": null,
      "text": ".LVL2:"
    },
    {
      "labels": [],
      "source": null,
      "text": ".LBE142:"
    },
    {
      "labels": [],
      "source": null,
      "text": ".LBE141:"
    },
    {
      "labels": [],
      "source": null,
      "text": ".LBE140:"
    },
    {
      "labels": [],
      "source": null,
      "text": ".LBE139:"
    },
    {
      "labels": [],
      "source": null,
      "text": ".LBE138:"
    },
    {
      "labels": [],
      "source": null,
      "text": "        .cfi_endproc"
    },
    {
      "labels": [],
      "source": null,
      "text": ".LFE2152:"
    },
    {
      "labels": [
        {
          "name": "std",
          "range": {
            "endCol": 20,
            "startCol": 17
          }
        },
        {
          "name": "main",
          "range": {
            "endCol": 53,
            "startCol": 49
          }
        }
      ],
      "source": null,
      "text": "        .size   std::_Function_handler<void (), main::{lambda()#1}>::_M_invoke(std::_Any_data const&), .-std::_Function_handler<void (), main::{lambda()#1}>::_M_invoke(std::_Any_data const&)"
    },
    {
      "labels": [],
      "source": null,
      "text": "        .p2align 4"
    },
    {
      "labels": [
        {
          "name": "std",
          "range": {
            "endCol": 20,
            "startCol": 17
          }
        },
        {
          "name": "main",
          "range": {
            "endCol": 53,
            "startCol": 49
          }
        }
      ],
      "source": null,
      "text": "        .type   std::_Function_handler<void (), main::{lambda()#1}>::_M_manager(std::_Any_data&, std::_Any_data const&, std::_Manager_operation), @function"
    },
    {
      "labels": [],
      "source": null,
      "text": "std::_Function_handler<void (), main::{lambda()#1}>::_M_manager(std::_Any_data&, std::_Any_data const&, std::_Manager_operation):"
    },
    {
      "labels": [],
      "source": null,
      "text": ".LVL3:"
    },
    {
      "labels": [],
      "source": null,
      "text": ".LFB2156:"
    },
    {
      "labels": [],
      "source": null,
      "text": "        .loc 1 267 7 is_stmt 1 view -0"
    },
    {
      "labels": [],
      "source": null,
      "text": "        .cfi_startproc"
    },
    {
      "labels": [],
      "source": null,
      "text": "        .loc 1 270 2 is_stmt 0 view .LVU8"
    },
    {
      "labels": [],
      "source": {
        "column": 2,
        "file": "/opt/compiler-explorer/gcc-12.2.0/include/c++/12.2.0/bits/std_function.h",
        "line": 270
      },
      "text": "        test    edx, edx"
    },
    {
      "labels": [
        {
          "name": ".L4",
          "range": {
            "endCol": 20,
            "startCol": 17
          }
        }
      ],
      "source": {
        "column": 2,
        "file": "/opt/compiler-explorer/gcc-12.2.0/include/c++/12.2.0/bits/std_function.h",
        "line": 270
      },
      "text": "        je      .L4"
    },
    {
      "labels": [],
      "source": {
        "column": 2,
        "file": "/opt/compiler-explorer/gcc-12.2.0/include/c++/12.2.0/bits/std_function.h",
        "line": 270
      },
      "text": "        cmp     edx, 1"
    },
    {
      "labels": [
        {
          "name": ".L5",
          "range": {
            "endCol": 20,
            "startCol": 17
          }
        }
      ],
      "source": {
        "column": 2,
        "file": "/opt/compiler-explorer/gcc-12.2.0/include/c++/12.2.0/bits/std_function.h",
        "line": 270
      },
      "text": "        je      .L5"
    },
    {
      "labels": [],
      "source": null,
      "text": ".LVL4:"
    },
    {
      "labels": [],
      "source": null,
      "text": ".LBB177:"
    },
    {
      "labels": [],
      "source": null,
      "text": ".LBI177:"
    },
    {
      "labels": [],
      "source": null,
      "text": "        .loc 1 180 2 is_stmt 1 view .LVU9"
    },
    {
      "labels": [],
      "source": null,
      "text": ".LBB178:"
    },
    {
      "labels": [],
      "source": null,
      "text": "        .loc 1 183 4 is_stmt 0 view .LVU10"
    },
    {
      "labels": [],
      "source": {
        "column": 4,
        "file": "/opt/compiler-explorer/gcc-12.2.0/include/c++/12.2.0/bits/std_function.h",
        "line": 183
      },
      "text": "        cmp     edx, 2"
    },
    {
      "labels": [
        {
          "name": ".L9",
          "range": {
            "endCol": 20,
            "startCol": 17
          }
        }
      ],
      "source": {
        "column": 4,
        "file": "/opt/compiler-explorer/gcc-12.2.0/include/c++/12.2.0/bits/std_function.h",
        "line": 183
      },
      "text": "        je      .L9"
    },
    {
      "labels": [],
      "source": null,
      "text": ".L7:"
    },
    {
      "labels": [],
      "source": null,
      "text": ".LVL5:"
    },
    {
      "labels": [],
      "source": null,
      "text": "        .loc 1 183 4 view .LVU11"
    },
    {
      "labels": [],
      "source": null,
      "text": ".LBE178:"
    },
    {
      "labels": [],
      "source": null,
      "text": ".LBE177:"
    },
    {
      "labels": [],
      "source": null,
      "text": "        .loc 1 285 7 view .LVU12"
    },
    {
      "labels": [],
      "source": {
        "column": 7,
        "file": "/opt/compiler-explorer/gcc-12.2.0/include/c++/12.2.0/bits/std_function.h",
        "line": 285
      },
      "text": "        xor     eax, eax"
    },
    {
      "labels": [],
      "source": {
        "column": 7,
        "file": "/opt/compiler-explorer/gcc-12.2.0/include/c++/12.2.0/bits/std_function.h",
        "line": 285
      },
      "text": "        ret"
    },
    {
      "labels": [],
      "source": null,
      "text": "        .p2align 4,,10"
    },
    {
      "labels": [],
      "source": null,
      "text": "        .p2align 3"
    },
    {
      "labels": [],
      "source": null,
      "text": ".L4:"
    },
    {
      "labels": [],
      "source": null,
      "text": "        .loc 1 274 43 view .LVU13"
    },
    {
      "labels": [
        {
          "name": "main",
          "range": {
            "endCol": 63,
            "startCol": 59
          }
        }
      ],
      "source": {
        "column": 43,
        "file": "/opt/compiler-explorer/gcc-12.2.0/include/c++/12.2.0/bits/std_function.h",
        "line": 274
      },
      "text": "        mov     QWORD PTR [rdi], OFFSET FLAT:typeinfo for main::{lambda()#1}"
    },
    {
      "labels": [],
      "source": null,
      "text": "        .loc 1 285 7 view .LVU14"
    },
    {
      "labels": [],
      "source": {
        "column": 7,
        "file": "/opt/compiler-explorer/gcc-12.2.0/include/c++/12.2.0/bits/std_function.h",
        "line": 285
      },
      "text": "        xor     eax, eax"
    },
    {
      "labels": [],
      "source": {
        "column": 7,
        "file": "/opt/compiler-explorer/gcc-12.2.0/include/c++/12.2.0/bits/std_function.h",
        "line": 285
      },
      "text": "        ret"
    },
    {
      "labels": [],
      "source": null,
      "text": "        .p2align 4,,10"
    },
    {
      "labels": [],
      "source": null,
      "text": "        .p2align 3"
    },
    {
      "labels": [],
      "source": null,
      "text": ".L5:"
    },
    {
      "labels": [],
      "source": null,
      "text": ".LVL6:"
    },
    {
      "labels": [],
      "source": null,
      "text": ".LBB184:"
    },
    {
      "labels": [],
      "source": null,
      "text": ".LBI184:"
    },
    {
      "labels": [],
      "source": null,
      "text": "        .loc 1 134 2 is_stmt 1 view .LVU15"
    },
    {
      "labels": [],
      "source": null,
      "text": ".LBB185:"
    },
    {
      "labels": [],
      "source": null,
      "text": ".LBB186:"
    },
    {
      "labels": [],
      "source": null,
      "text": ".LBI186:"
    },
    {
      "labels": [],
      "source": null,
      "text": "        .loc 1 95 7 view .LVU16"
    },
    {
      "labels": [],
      "source": null,
      "text": ".LBB187:"
    },
    {
      "labels": [],
      "source": null,
      "text": ".LBI187:"
    },
    {
      "labels": [],
      "source": null,
      "text": "        .loc 1 86 17 view .LVU17"
    },
    {
      "labels": [],
      "source": null,
      "text": ".LBB188:"
    },
    {
      "labels": [],
      "source": null,
      "text": "        .loc 1 86 46 view .LVU18"
    },
    {
      "labels": [],
      "source": null,
      "text": "        .loc 1 86 46 is_stmt 0 view .LVU19"
    },
    {
      "labels": [],
      "source": null,
      "text": ".LBE188:"
    },
    {
      "labels": [],
      "source": null,
      "text": ".LBE187:"
    },
    {
      "labels": [],
      "source": null,
      "text": ".LBE186:"
    },
    {
      "labels": [],
      "source": null,
      "text": ".LBE185:"
    },
    {
      "labels": [],
      "source": null,
      "text": ".LBE184:"
    },
    {
      "labels": [],
      "source": null,
      "text": "        .loc 1 278 36 view .LVU20"
    },
    {
      "labels": [],
      "source": {
        "column": 36,
        "file": "/opt/compiler-explorer/gcc-12.2.0/include/c++/12.2.0/bits/std_function.h",
        "line": 278
      },
      "text": "        mov     QWORD PTR [rdi], rsi"
    },
    {
      "labels": [],
      "source": null,
      "text": "        .loc 1 285 7 view .LVU21"
    },
    {
      "labels": [],
      "source": {
        "column": 7,
        "file": "/opt/compiler-explorer/gcc-12.2.0/include/c++/12.2.0/bits/std_function.h",
        "line": 285
      },
      "text": "        xor     eax, eax"
    },
    {
      "labels": [],
      "source": {
        "column": 7,
        "file": "/opt/compiler-explorer/gcc-12.2.0/include/c++/12.2.0/bits/std_function.h",
        "line": 285
      },
      "text": "        ret"
    },
    {
      "labels": [],
      "source": null,
      "text": ".LVL7:"
    },
    {
      "labels": [],
      "source": null,
      "text": "        .p2align 4,,10"
    },
    {
      "labels": [],
      "source": null,
      "text": "        .p2align 3"
    },
    {
      "labels": [],
      "source": null,
      "text": ".L9:"
    },
    {
      "labels": [],
      "source": null,
      "text": ".LBB189:"
    },
    {
      "labels": [],
      "source": null,
      "text": ".LBB183:"
    },
    {
      "labels": [],
      "source": null,
      "text": ".LBB179:"
    },
    {
      "labels": [],
      "source": null,
      "text": ".LBI179:"
    },
    {
      "labels": [],
      "source": null,
      "text": "        .loc 1 211 4 is_stmt 1 view .LVU22"
    },
    {
      "labels": [],
      "source": null,
      "text": ".LBB180:"
    },
    {
      "labels": [],
      "source": null,
      "text": ".LBB181:"
    },
    {
      "labels": [],
      "source": null,
      "text": ".LBI181:"
    },
    {
      "labels": [],
      "source": null,
      "text": "        .loc 1 150 4 view .LVU23"
    },
    {
      "labels": [],
      "source": null,
      "text": ".LBB182:"
    },
    {
      "labels": [],
      "source": null,
      "text": "        .loc 1 152 6 is_stmt 0 view .LVU24"
    },
    {
      "labels": [],
      "source": {
        "column": 6,
        "file": "/opt/compiler-explorer/gcc-12.2.0/include/c++/12.2.0/bits/std_function.h",
        "line": 152
      },
      "text": "        mov     rax, QWORD PTR [rsi]"
    },
    {
      "labels": [],
      "source": {
        "column": 6,
        "file": "/opt/compiler-explorer/gcc-12.2.0/include/c++/12.2.0/bits/std_function.h",
        "line": 152
      },
      "text": "        mov     QWORD PTR [rdi], rax"
    },
    {
      "labels": [],
      "source": null,
      "text": ".LVL8:"
    },
    {
      "labels": [],
      "source": null,
      "text": "        .loc 1 152 6 view .LVU25"
    },
    {
      "labels": [],
      "source": null,
      "text": ".LBE182:"
    },
    {
      "labels": [],
      "source": null,
      "text": ".LBE181:"
    },
    {
      "labels": [],
      "source": null,
      "text": "        .loc 1 216 4 view .LVU26"
    },
    {
      "labels": [
        {
          "name": ".L7",
          "range": {
            "endCol": 20,
            "startCol": 17
          }
        }
      ],
      "source": {
        "column": 4,
        "file": "/opt/compiler-explorer/gcc-12.2.0/include/c++/12.2.0/bits/std_function.h",
        "line": 216
      },
      "text": "        jmp     .L7"
    },
    {
      "labels": [],
      "source": null,
      "text": ".LBE180:"
    },
    {
      "labels": [],
      "source": null,
      "text": ".LBE179:"
    },
    {
      "labels": [],
      "source": null,
      "text": ".LBE183:"
    },
    {
      "labels": [],
      "source": null,
      "text": ".LBE189:"
    },
    {
      "labels": [],
      "source": null,
      "text": "        .cfi_endproc"
    },
    {
      "labels": [],
      "source": null,
      "text": ".LFE2156:"
    },
    {
      "labels": [
        {
          "name": "std",
          "range": {
            "endCol": 20,
            "startCol": 17
          }
        },
        {
          "name": "main",
          "range": {
            "endCol": 53,
            "startCol": 49
          }
        }
      ],
      "source": null,
      "text": "        .size   std::_Function_handler<void (), main::{lambda()#1}>::_M_manager(std::_Any_data&, std::_Any_data const&, std::_Manager_operation), .-std::_Function_handler<void (), main::{lambda()#1}>::_M_manager(std::_Any_data&, std::_Any_data const&, std::_Manager_operation)"
    },
    {
      "labels": [],
      "source": null,
      "text": "        .section        .text.std::_Function_base::~_Function_base() [base object destructor],\"axG\",@progbits,_ZNSt14_Function_baseD5Ev,comdat"
    },
    {
      "labels": [],
      "source": null,
      "text": "        .align 2"
    },
    {
      "labels": [],
      "source": null,
      "text": "        .p2align 4"
    },
    {
      "labels": [
        {
          "name": "std",
          "range": {
            "endCol": 20,
            "startCol": 17
          }
        }
      ],
      "source": null,
      "text": "        .weak   std::_Function_base::~_Function_base() [base object destructor]"
    },
    {
      "labels": [
        {
          "name": "std",
          "range": {
            "endCol": 20,
            "startCol": 17
          }
        }
      ],
      "source": null,
      "text": "        .type   std::_Function_base::~_Function_base() [base object destructor], @function"
    },
    {
      "labels": [],
      "source": null,
      "text": "std::_Function_base::~_Function_base() [base object destructor]:"
    },
    {
      "labels": [],
      "source": null,
      "text": ".LVL9:"
    },
    {
      "labels": [],
      "source": null,
      "text": ".LFB467:"
    },
    {
      "labels": [],
      "source": null,
      "text": "        .loc 1 241 5 is_stmt 1 view -0"
    },
    {
      "labels": [],
      "source": null,
      "text": "        .cfi_startproc"
    },
    {
      "labels": [],
      "source": null,
      "text": "        .cfi_personality 0x3,__gxx_personality_v0"
    },
    {
      "labels": [
        {
          "name": ".LLSDA467",
          "range": {
            "endCol": 32,
            "startCol": 23
          }
        }
      ],
      "source": null,
      "text": "        .cfi_lsda 0x3,.LLSDA467"
    },
    {
      "labels": [],
      "source": null,
      "text": ".LBB190:"
    },
    {
      "labels": [],
      "source": null,
      "text": "        .loc 1 243 7 view .LVU28"
    },
    {
      "labels": [],
      "source": null,
      "text": "        .loc 1 243 11 is_stmt 0 view .LVU29"
    },
    {
      "labels": [],
      "source": {
        "column": 11,
        "file": "/opt/compiler-explorer/gcc-12.2.0/include/c++/12.2.0/bits/std_function.h",
        "line": 243
      },
      "text": "        mov     rax, QWORD PTR [rdi+16]"
    },
    {
      "labels": [],
      "source": null,
      "text": "        .loc 1 243 7 view .LVU30"
    },
    {
      "labels": [],
      "source": {
        "column": 7,
        "file": "/opt/compiler-explorer/gcc-12.2.0/include/c++/12.2.0/bits/std_function.h",
        "line": 243
      },
      "text": "        test    rax, rax"
    },
    {
      "labels": [
        {
          "name": ".L16",
          "range": {
            "endCol": 21,
            "startCol": 17
          }
        }
      ],
      "source": {
        "column": 7,
        "file": "/opt/compiler-explorer/gcc-12.2.0/include/c++/12.2.0/bits/std_function.h",
        "line": 243
      },
      "text": "        je      .L16"
    },
    {
      "labels": [],
      "source": null,
      "text": "        .loc 1 244 2 is_stmt 1 view .LVU31"
    },
    {
      "labels": [],
      "source": null,
      "text": ".LBE190:"
    },
    {
      "labels": [],
      "source": null,
      "text": "        .loc 1 241 5 is_stmt 0 view .LVU32"
    },
    {
      "labels": [],
      "source": {
        "column": 5,
        "file": "/opt/compiler-explorer/gcc-12.2.0/include/c++/12.2.0/bits/std_function.h",
        "line": 241
      },
      "text": "        sub     rsp, 8"
    },
    {
      "labels": [],
      "source": null,
      "text": "        .cfi_def_cfa_offset 16"
    },
    {
      "labels": [],
      "source": null,
      "text": ".LBB191:"
    },
    {
      "labels": [],
      "source": null,
      "text": "        .loc 1 244 12 view .LVU33"
    },
    {
      "labels": [],
      "source": {
        "column": 12,
        "file": "/opt/compiler-explorer/gcc-12.2.0/include/c++/12.2.0/bits/std_function.h",
        "line": 244
      },
      "text": "        mov     edx, 3"
    },
    {
      "labels": [],
      "source": {
        "column": 12,
        "file": "/opt/compiler-explorer/gcc-12.2.0/include/c++/12.2.0/bits/std_function.h",
        "line": 244
      },
      "text": "        mov     rsi, rdi"
    },
    {
      "labels": [],
      "source": {
        "column": 12,
        "file": "/opt/compiler-explorer/gcc-12.2.0/include/c++/12.2.0/bits/std_function.h",
        "line": 244
      },
      "text": "        call    rax"
    },
    {
      "labels": [],
      "source": null,
      "text": ".LVL10:"
    },
    {
      "labels": [],
      "source": null,
      "text": "        .loc 1 244 12 view .LVU34"
    },
    {
      "labels": [],
      "source": null,
      "text": ".LBE191:"
    },
    {
      "labels": [],
      "source": null,
      "text": "        .loc 1 245 5 view .LVU35"
    },
    {
      "labels": [],
      "source": {
        "column": 5,
        "file": "/opt/compiler-explorer/gcc-12.2.0/include/c++/12.2.0/bits/std_function.h",
        "line": 245
      },
      "text": "        add     rsp, 8"
    },
    {
      "labels": [],
      "source": null,
      "text": "        .cfi_def_cfa_offset 8"
    },
    {
      "labels": [],
      "source": {
        "column": 5,
        "file": "/opt/compiler-explorer/gcc-12.2.0/include/c++/12.2.0/bits/std_function.h",
        "line": 245
      },
      "text": "        ret"
    },
    {
      "labels": [],
      "source": null,
      "text": ".LVL11:"
    },
    {
      "labels": [],
      "source": null,
      "text": "        .p2align 4,,10"
    },
    {
      "labels": [],
      "source": null,
      "text": "        .p2align 3"
    },
    {
      "labels": [],
      "source": null,
      "text": ".L16:"
    },
    {
      "labels": [],
      "source": null,
      "text": "        .loc 1 245 5 view .LVU36"
    },
    {
      "labels": [],
      "source": {
        "column": 5,
        "file": "/opt/compiler-explorer/gcc-12.2.0/include/c++/12.2.0/bits/std_function.h",
        "line": 245
      },
      "text": "        ret"
    },
    {
      "labels": [],
      "source": null,
      "text": "        .cfi_endproc"
    },
    {
      "labels": [],
      "source": null,
      "text": ".LFE467:"
    },
    {
      "labels": [],
      "source": null,
      "text": "        .globl  __gxx_personality_v0"
    },
    {
      "labels": [],
      "source": null,
      "text": "        .section        .gcc_except_table.std::_Function_base::~_Function_base() [base object destructor],\"aG\",@progbits,_ZNSt14_Function_baseD5Ev,comdat"
    },
    {
      "labels": [],
      "source": null,
      "text": ".LLSDA467:"
    },
    {
      "labels": [],
      "source": null,
      "text": "        .byte   0xff"
    },
    {
      "labels": [],
      "source": null,
      "text": "        .byte   0xff"
    },
    {
      "labels": [],
      "source": null,
      "text": "        .byte   0x1"
    },
    {
      "labels": [
        {
          "name": ".LLSDACSE467",
          "range": {
            "endCol": 30,
            "startCol": 18
          }
        },
        {
          "name": ".LLSDACSB467",
          "range": {
            "endCol": 43,
            "startCol": 31
          }
        }
      ],
      "source": null,
      "text": "        .uleb128 .LLSDACSE467-.LLSDACSB467"
    },
    {
      "labels": [],
      "source": null,
      "text": ".LLSDACSB467:"
    },
    {
      "labels": [],
      "source": null,
      "text": ".LLSDACSE467:"
    },
    {
      "labels": [],
      "source": null,
      "text": "        .section        .text.std::_Function_base::~_Function_base() [base object destructor],\"axG\",@progbits,_ZNSt14_Function_baseD5Ev,comdat"
    },
    {
      "labels": [
        {
          "name": "std",
          "range": {
            "endCol": 20,
            "startCol": 17
          }
        },
        {
          "name": "std",
          "range": {
            "endCol": 87,
            "startCol": 84
          }
        }
      ],
      "source": null,
      "text": "        .size   std::_Function_base::~_Function_base() [base object destructor], .-std::_Function_base::~_Function_base() [base object destructor]"
    },
    {
      "labels": [],
      "source": null,
      "text": "        .weak   _ZNSt14_Function_baseD1Ev"
    },
    {
      "labels": [
        {
          "name": "std",
          "range": {
            "endCol": 46,
            "startCol": 43
          }
        }
      ],
      "source": null,
      "text": "        .set    _ZNSt14_Function_baseD1Ev,std::_Function_base::~_Function_base() [base object destructor]"
    },
    {
      "labels": [],
      "source": null,
      "text": "        .section        .rodata.str1.1,\"aMS\",@progbits,1"
    },
    {
      "labels": [],
      "source": null,
      "text": ".LC0:"
    },
    {
      "labels": [],
      "source": null,
      "text": "        .string \"r\""
    },
    {
      "labels": [],
      "source": null,
      "text": ".LC1:"
    },
    {
      "labels": [],
      "source": null,
      "text": "        .string \"\""
    },
    {
      "labels": [],
      "source": null,
      "text": "        .section        .text.startup,\"ax\",@progbits"
    },
    {
      "labels": [],
      "source": null,
      "text": "        .p2align 4"
    },
    {
      "labels": [
        {
          "name": "main",
          "range": {
            "endCol": 21,
            "startCol": 17
          }
        }
      ],
      "source": null,
      "text": "        .globl  main"
    },
    {
      "labels": [
        {
          "name": "main",
          "range": {
            "endCol": 21,
            "startCol": 17
          }
        }
      ],
      "source": null,
      "text": "        .type   main, @function"
    },
    {
      "labels": [],
      "source": null,
      "text": "main:"
    },
    {
      "labels": [],
      "source": null,
      "text": ".LFB2122:"
    },
    {
      "labels": [],
      "source": null,
      "text": "        .loc 3 21 1 is_stmt 1 view -0"
    },
    {
      "labels": [],
      "source": null,
      "text": "        .cfi_startproc"
    },
    {
      "labels": [],
      "source": null,
      "text": "        .cfi_personality 0x3,__gxx_personality_v0"
    },
    {
      "labels": [
        {
          "name": ".LLSDA2122",
          "range": {
            "endCol": 33,
            "startCol": 23
          }
        }
      ],
      "source": null,
      "text": "        .cfi_lsda 0x3,.LLSDA2122"
    },
    {
      "labels": [
        {
          "name": "std",
          "range": {
            "endCol": 37,
            "startCol": 34
          }
        },
        {
          "name": "main",
          "range": {
            "endCol": 70,
            "startCol": 66
          }
        }
      ],
      "source": {
        "column": 1,
        "file": null,
        "line": 21
      },
      "text": "        mov     eax, OFFSET FLAT:std::_Function_handler<void (), main::{lambda()#1}>::_M_manager(std::_Any_data&, std::_Any_data const&, std::_Manager_operation)"
    },
    {
      "labels": [],
      "source": {
        "column": 1,
        "file": null,
        "line": 21
      },
      "text": "        sub     rsp, 88"
    },
    {
      "labels": [],
      "source": null,
      "text": "        .cfi_def_cfa_offset 96"
    },
    {
      "labels": [],
      "source": null,
      "text": "        .loc 3 22 20 is_stmt 0 view .LVU38"
    },
    {
      "labels": [
        {
          "name": ".LC0",
          "range": {
            "endCol": 38,
            "startCol": 34
          }
        }
      ],
      "source": {
        "column": 20,
        "file": null,
        "line": 22
      },
      "text": "        mov     esi, OFFSET FLAT:.LC0"
    },
    {
      "labels": [
        {
          "name": ".LC1",
          "range": {
            "endCol": 38,
            "startCol": 34
          }
        }
      ],
      "source": {
        "column": 20,
        "file": null,
        "line": 22
      },
      "text": "        mov     edi, OFFSET FLAT:.LC1"
    },
    {
      "labels": [],
      "source": {
        "column": 20,
        "file": null,
        "line": 22
      },
      "text": "        movq    xmm0, rax"
    },
    {
      "labels": [
        {
          "name": ".LC2",
          "range": {
            "endCol": 37,
            "startCol": 33
          }
        }
      ],
      "source": {
        "column": 20,
        "file": null,
        "line": 22
      },
      "text": "        movhps  xmm0, QWORD PTR .LC2[rip]"
    },
    {
      "labels": [],
      "source": {
        "column": 20,
        "file": null,
        "line": 22
      },
      "text": "        movaps  XMMWORD PTR [rsp], xmm0"
    },
    {
      "labels": [],
      "source": null,
      "text": "        .loc 3 22 5 is_stmt 1 view .LVU39"
    },
    {
      "labels": [],
      "source": null,
      "text": ".LEHB0:"
    },
    {
      "labels": [],
      "source": null,
      "text": "        .loc 3 22 20 is_stmt 0 view .LVU40"
    },
    {
      "labels": [],
      "source": {
        "column": 20,
        "file": null,
        "line": 22
      },
      "text": "        call    fopen"
    },
    {
      "labels": [],
      "source": null,
      "text": ".LVL12:"
    },
    {
      "labels": [],
      "source": null,
      "text": ".LEHE0:"
    },
    {
      "labels": [],
      "source": null,
      "text": "        .loc 3 23 5 is_stmt 1 view .LVU41"
    },
    {
      "labels": [],
      "source": null,
      "text": ".LBB243:"
    },
    {
      "labels": [],
      "source": null,
      "text": ".LBI243:"
    },
    {
      "labels": [],
      "source": null,
      "text": "        .loc 1 435 2 view .LVU42"
    },
    {
      "labels": [],
      "source": null,
      "text": ".LBB244:"
    },
    {
      "labels": [],
      "source": null,
      "text": ".LBB245:"
    },
    {
      "labels": [],
      "source": null,
      "text": ".LBB246:"
    },
    {
      "labels": [],
      "source": null,
      "text": "        .loc 1 452 19 is_stmt 0 view .LVU43"
    },
    {
      "labels": [],
      "source": {
        "column": 19,
        "file": "/opt/compiler-explorer/gcc-12.2.0/include/c++/12.2.0/bits/std_function.h",
        "line": 452
      },
      "text": "        movdqa  xmm0, XMMWORD PTR [rsp]"
    },
    {
      "labels": [],
      "source": null,
      "text": ".LBE246:"
    },
    {
      "labels": [],
      "source": null,
      "text": ".LBE245:"
    },
    {
      "labels": [],
      "source": null,
      "text": ".LBE244:"
    },
    {
      "labels": [],
      "source": null,
      "text": ".LBE243:"
    },
    {
      "labels": [],
      "source": null,
      "text": ".LBB258:"
    },
    {
      "labels": [],
      "source": null,
      "text": ".LBB259:"
    },
    {
      "labels": [],
      "source": null,
      "text": "        .loc 1 334 11 view .LVU44"
    },
    {
      "labels": [],
      "source": {
        "column": 11,
        "file": "/opt/compiler-explorer/gcc-12.2.0/include/c++/12.2.0/bits/std_function.h",
        "line": 334
      },
      "text": "        lea     rdi, [rsp+48]"
    },
    {
      "labels": [],
      "source": null,
      "text": ".LVL13:"
    },
    {
      "labels": [],
      "source": null,
      "text": "        .loc 1 334 11 view .LVU45"
    },
    {
      "labels": [],
      "source": null,
      "text": ".LBE259:"
    },
    {
      "labels": [],
      "source": null,
      "text": ".LBE258:"
    },
    {
      "labels": [],
      "source": null,
      "text": ".LBB261:"
    },
    {
      "labels": [],
      "source": null,
      "text": ".LBB256:"
    },
    {
      "labels": [],
      "source": null,
      "text": ".LBB254:"
    },
    {
      "labels": [],
      "source": null,
      "text": "        .loc 1 437 19 view .LVU46"
    },
    {
      "labels": [],
      "source": {
        "column": 19,
        "file": "/opt/compiler-explorer/gcc-12.2.0/include/c++/12.2.0/bits/std_function.h",
        "line": 437
      },
      "text": "        mov     QWORD PTR [rsp+56], 0"
    },
    {
      "labels": [],
      "source": null,
      "text": ".LVL14:"
    },
    {
      "labels": [],
      "source": null,
      "text": ".LBB251:"
    },
    {
      "labels": [],
      "source": null,
      "text": ".LBI251:"
    },
    {
      "labels": [],
      "source": null,
      "text": "        .loc 1 239 5 is_stmt 1 view .LVU47"
    },
    {
      "labels": [],
      "source": null,
      "text": "        .loc 1 239 5 is_stmt 0 view .LVU48"
    },
    {
      "labels": [],
      "source": null,
      "text": ".LBE251:"
    },
    {
      "labels": [],
      "source": null,
      "text": ".LBB252:"
    },
    {
      "labels": [],
      "source": null,
      "text": ".LBB247:"
    },
    {
      "labels": [],
      "source": null,
      "text": ".LBI247:"
    },
    {
      "labels": [],
      "source": null,
      "text": "        .loc 1 235 4 is_stmt 1 view .LVU49"
    },
    {
      "labels": [],
      "source": null,
      "text": "        .loc 1 235 4 is_stmt 0 view .LVU50"
    },
    {
      "labels": [],
      "source": null,
      "text": ".LBE247:"
    },
    {
      "labels": [],
      "source": null,
      "text": ".LBB248:"
    },
    {
      "labels": [],
      "source": null,
      "text": ".LBI248:"
    },
    {
      "labels": [],
      "source": null,
      "text": "        .loc 1 211 4 is_stmt 1 view .LVU51"
    },
    {
      "labels": [],
      "source": null,
      "text": ".LBB249:"
    },
    {
      "labels": [],
      "source": null,
      "text": ".LBI249:"
    },
    {
      "labels": [],
      "source": null,
      "text": "        .loc 1 150 4 view .LVU52"
    },
    {
      "labels": [],
      "source": null,
      "text": ".LBB250:"
    },
    {
      "labels": [],
      "source": null,
      "text": "        .loc 1 152 6 is_stmt 0 view .LVU53"
    },
    {
      "labels": [],
      "source": {
        "column": 6,
        "file": "/opt/compiler-explorer/gcc-12.2.0/include/c++/12.2.0/bits/std_function.h",
        "line": 152
      },
      "text": "        mov     QWORD PTR [rsp+48], rax"
    },
    {
      "labels": [],
      "source": null,
      "text": ".LVL15:"
    },
    {
      "labels": [],
      "source": null,
      "text": "        .loc 1 152 6 view .LVU54"
    },
    {
      "labels": [],
      "source": null,
      "text": ".LBE250:"
    },
    {
      "labels": [],
      "source": null,
      "text": ".LBE249:"
    },
    {
      "labels": [],
      "source": null,
      "text": ".LBE248:"
    },
    {
      "labels": [],
      "source": null,
      "text": ".LBE252:"
    },
    {
      "labels": [],
      "source": null,
      "text": ".LBE254:"
    },
    {
      "labels": [],
      "source": null,
      "text": ".LBE256:"
    },
    {
      "labels": [],
      "source": null,
      "text": ".LBE261:"
    },
    {
      "labels": [],
      "source": null,
      "text": ".LBB262:"
    },
    {
      "labels": [],
      "source": null,
      "text": ".LBB263:"
    },
    {
      "labels": [],
      "source": null,
      "text": ".LBB264:"
    },
    {
      "labels": [],
      "source": null,
      "text": ".LBB265:"
    },
    {
      "labels": [],
      "source": null,
      "text": "        .loc 1 387 24 view .LVU55"
    },
    {
      "labels": [],
      "source": {
        "column": 24,
        "file": "/opt/compiler-explorer/gcc-12.2.0/include/c++/12.2.0/bits/std_function.h",
        "line": 387
      },
      "text": "        mov     QWORD PTR [rsp+24], 0"
    },
    {
      "labels": [],
      "source": null,
      "text": ".LBB266:"
    },
    {
      "labels": [],
      "source": null,
      "text": ".LBB267:"
    },
    {
      "labels": [],
      "source": null,
      "text": ".LBB268:"
    },
    {
      "labels": [],
      "source": null,
      "text": ".LBB269:"
    },
    {
      "labels": [],
      "source": null,
      "text": ".LBB270:"
    },
    {
      "labels": [],
      "source": null,
      "text": "        .loc 1 152 6 view .LVU56"
    },
    {
      "labels": [],
      "source": {
        "column": 6,
        "file": "/opt/compiler-explorer/gcc-12.2.0/include/c++/12.2.0/bits/std_function.h",
        "line": 152
      },
      "text": "        mov     QWORD PTR [rsp+16], rax"
    },
    {
      "labels": [],
      "source": null,
      "text": ".LBE270:"
    },
    {
      "labels": [],
      "source": null,
      "text": ".LBE269:"
    },
    {
      "labels": [],
      "source": null,
      "text": ".LBE268:"
    },
    {
      "labels": [],
      "source": null,
      "text": ".LBE267:"
    },
    {
      "labels": [],
      "source": null,
      "text": ".LBE266:"
    },
    {
      "labels": [],
      "source": null,
      "text": ".LBE265:"
    },
    {
      "labels": [],
      "source": null,
      "text": ".LBE264:"
    },
    {
      "labels": [],
      "source": null,
      "text": ".LBE263:"
    },
    {
      "labels": [],
      "source": null,
      "text": ".LBE262:"
    },
    {
      "labels": [],
      "source": null,
      "text": ".LBB280:"
    },
    {
      "labels": [],
      "source": null,
      "text": ".LBB257:"
    },
    {
      "labels": [],
      "source": null,
      "text": ".LBB255:"
    },
    {
      "labels": [],
      "source": null,
      "text": ".LBB253:"
    },
    {
      "labels": [],
      "source": null,
      "text": "        .loc 1 452 19 view .LVU57"
    },
    {
      "labels": [],
      "source": {
        "column": 19,
        "file": "/opt/compiler-explorer/gcc-12.2.0/include/c++/12.2.0/bits/std_function.h",
        "line": 452
      },
      "text": "        movaps  XMMWORD PTR [rsp+64], xmm0"
    },
    {
      "labels": [],
      "source": null,
      "text": ".LVL16:"
    },
    {
      "labels": [],
      "source": null,
      "text": "        .loc 1 452 19 view .LVU58"
    },
    {
      "labels": [],
      "source": null,
      "text": ".LBE253:"
    },
    {
      "labels": [],
      "source": null,
      "text": ".LBE255:"
    },
    {
      "labels": [],
      "source": null,
      "text": ".LBE257:"
    },
    {
      "labels": [],
      "source": null,
      "text": ".LBE280:"
    },
    {
      "labels": [],
      "source": null,
      "text": ".LBB281:"
    },
    {
      "labels": [],
      "source": null,
      "text": ".LBI262:"
    },
    {
      "labels": [],
      "source": null,
      "text": "        .loc 3 7 5 is_stmt 1 view .LVU59"
    },
    {
      "labels": [],
      "source": null,
      "text": ".LBB279:"
    },
    {
      "labels": [],
      "source": null,
      "text": ".LBI263:"
    },
    {
      "labels": [],
      "source": null,
      "text": "        .loc 1 386 7 view .LVU60"
    },
    {
      "labels": [],
      "source": null,
      "text": ".LBB278:"
    },
    {
      "labels": [],
      "source": null,
      "text": ".LBB277:"
    },
    {
      "labels": [],
      "source": null,
      "text": ".LBB274:"
    },
    {
      "labels": [],
      "source": null,
      "text": ".LBI274:"
    },
    {
      "labels": [],
      "source": null,
      "text": "        .loc 1 239 5 view .LVU61"
    },
    {
      "labels": [],
      "source": null,
      "text": "        .loc 1 239 5 is_stmt 0 view .LVU62"
    },
    {
      "labels": [],
      "source": null,
      "text": ".LBE274:"
    },
    {
      "labels": [],
      "source": null,
      "text": ".LBB275:"
    },
    {
      "labels": [],
      "source": null,
      "text": ".LBI275:"
    },
    {
      "labels": [],
      "source": null,
      "text": "        .loc 1 573 16 is_stmt 1 view .LVU63"
    },
    {
      "labels": [],
      "source": null,
      "text": "        .loc 1 573 16 is_stmt 0 view .LVU64"
    },
    {
      "labels": [],
      "source": null,
      "text": ".LBE275:"
    },
    {
      "labels": [],
      "source": null,
      "text": ".LBB276:"
    },
    {
      "labels": [],
      "source": null,
      "text": ".LBI266:"
    },
    {
      "labels": [],
      "source": null,
      "text": "        .loc 1 267 7 is_stmt 1 view .LVU65"
    },
    {
      "labels": [],
      "source": null,
      "text": ".LBB273:"
    },
    {
      "labels": [],
      "source": null,
      "text": ".LBI267:"
    },
    {
      "labels": [],
      "source": null,
      "text": "        .loc 1 180 2 view .LVU66"
    },
    {
      "labels": [],
      "source": null,
      "text": ".LBB272:"
    },
    {
      "labels": [],
      "source": null,
      "text": ".LBI268:"
    },
    {
      "labels": [],
      "source": null,
      "text": "        .loc 1 211 4 view .LVU67"
    },
    {
      "labels": [],
      "source": null,
      "text": ".LBB271:"
    },
    {
      "labels": [],
      "source": null,
      "text": ".LBI269:"
    },
    {
      "labels": [],
      "source": null,
      "text": "        .loc 1 150 4 view .LVU68"
    },
    {
      "labels": [],
      "source": null,
      "text": "        .loc 1 150 4 is_stmt 0 view .LVU69"
    },
    {
      "labels": [],
      "source": null,
      "text": ".LBE271:"
    },
    {
      "labels": [],
      "source": null,
      "text": ".LBE272:"
    },
    {
      "labels": [],
      "source": null,
      "text": ".LBE273:"
    },
    {
      "labels": [],
      "source": null,
      "text": ".LBE276:"
    },
    {
      "labels": [],
      "source": null,
      "text": "        .loc 1 393 17 view .LVU70"
    },
    {
      "labels": [],
      "source": {
        "column": 17,
        "file": "/opt/compiler-explorer/gcc-12.2.0/include/c++/12.2.0/bits/std_function.h",
        "line": 393
      },
      "text": "        movaps  XMMWORD PTR [rsp+32], xmm0"
    },
    {
      "labels": [],
      "source": null,
      "text": ".LVL17:"
    },
    {
      "labels": [],
      "source": null,
      "text": "        .loc 1 393 17 view .LVU71"
    },
    {
      "labels": [],
      "source": null,
      "text": ".LBE277:"
    },
    {
      "labels": [],
      "source": null,
      "text": ".LBE278:"
    },
    {
      "labels": [],
      "source": null,
      "text": ".LBE279:"
    },
    {
      "labels": [],
      "source": null,
      "text": ".LBE281:"
    },
    {
      "labels": [],
      "source": null,
      "text": ".LBB282:"
    },
    {
      "labels": [],
      "source": null,
      "text": ".LBI258:"
    },
    {
      "labels": [],
      "source": null,
      "text": "        .loc 1 334 11 is_stmt 1 view .LVU72"
    },
    {
      "labels": [],
      "source": null,
      "text": ".LBB260:"
    },
    {
      "labels": [
        {
          "name": "std",
          "range": {
            "endCol": 20,
            "startCol": 17
          }
        }
      ],
      "source": {
        "column": 11,
        "file": "/opt/compiler-explorer/gcc-12.2.0/include/c++/12.2.0/bits/std_function.h",
        "line": 334
      },
      "text": "        call    std::_Function_base::~_Function_base() [base object destructor]"
    },
    {
      "labels": [],
      "source": null,
      "text": ".LVL18:"
    },
    {
      "labels": [],
      "source": null,
      "text": "        .loc 1 334 11 is_stmt 0 view .LVU73"
    },
    {
      "labels": [],
      "source": null,
      "text": ".LBE260:"
    },
    {
      "labels": [],
      "source": null,
      "text": ".LBE282:"
    },
    {
      "labels": [],
      "source": null,
      "text": ".LBB283:"
    },
    {
      "labels": [],
      "source": null,
      "text": ".LBI283:"
    },
    {
      "labels": [],
      "source": null,
      "text": "        .loc 3 12 5 is_stmt 1 view .LVU74"
    },
    {
      "labels": [],
      "source": null,
      "text": ".LBB284:"
    },
    {
      "labels": [],
      "source": null,
      "text": "        .loc 3 14 9 view .LVU75"
    },
    {
      "labels": [],
      "source": null,
      "text": ".LBB285:"
    },
    {
      "labels": [],
      "source": null,
      "text": ".LBI285:"
    },
    {
      "labels": [],
      "source": null,
      "text": "        .loc 1 587 7 view .LVU76"
    },
    {
      "labels": [],
      "source": null,
      "text": ".LBB286:"
    },
    {
      "labels": [],
      "source": null,
      "text": ".LBB287:"
    },
    {
      "labels": [],
      "source": null,
      "text": ".LBI287:"
    },
    {
      "labels": [],
      "source": null,
      "text": "        .loc 1 247 10 view .LVU77"
    },
    {
      "labels": [],
      "source": null,
      "text": ".LBB288:"
    },
    {
      "labels": [],
      "source": null,
      "text": "        .loc 1 247 29 view .LVU78"
    },
    {
      "labels": [],
      "source": null,
      "text": "        .loc 1 247 29 is_stmt 0 view .LVU79"
    },
    {
      "labels": [],
      "source": null,
      "text": ".LBE288:"
    },
    {
      "labels": [],
      "source": null,
      "text": ".LBE287:"
    },
    {
      "labels": [],
      "source": null,
      "text": "        .loc 1 589 2 view .LVU80"
    },
    {
      "labels": [],
      "source": {
        "column": 2,
        "file": "/opt/compiler-explorer/gcc-12.2.0/include/c++/12.2.0/bits/std_function.h",
        "line": 589
      },
      "text": "        cmp     QWORD PTR [rsp+32], 0"
    },
    {
      "labels": [
        {
          "name": ".L22",
          "range": {
            "endCol": 21,
            "startCol": 17
          }
        }
      ],
      "source": {
        "column": 2,
        "file": "/opt/compiler-explorer/gcc-12.2.0/include/c++/12.2.0/bits/std_function.h",
        "line": 589
      },
      "text": "        je      .L22"
    },
    {
      "labels": [],
      "source": null,
      "text": "        .loc 1 591 9 view .LVU81"
    },
    {
      "labels": [],
      "source": {
        "column": 9,
        "file": "/opt/compiler-explorer/gcc-12.2.0/include/c++/12.2.0/bits/std_function.h",
        "line": 591
      },
      "text": "        lea     rdi, [rsp+16]"
    },
    {
      "labels": [],
      "source": null,
      "text": ".LVL19:"
    },
    {
      "labels": [],
      "source": null,
      "text": "        .loc 1 591 9 view .LVU82"
    },
    {
      "labels": [],
      "source": {
        "column": 9,
        "file": "/opt/compiler-explorer/gcc-12.2.0/include/c++/12.2.0/bits/std_function.h",
        "line": 591
      },
      "text": "        call    [QWORD PTR [rsp+40]]"
    },
    {
      "labels": [],
      "source": null,
      "text": ".LVL20:"
    },
    {
      "labels": [],
      "source": null,
      "text": "        .loc 1 591 9 view .LVU83"
    },
    {
      "labels": [],
      "source": null,
      "text": ".LBE286:"
    },
    {
      "labels": [],
      "source": null,
      "text": ".LBE285:"
    },
    {
      "labels": [],
      "source": null,
      "text": ".LBB290:"
    },
    {
      "labels": [],
      "source": null,
      "text": ".LBI290:"
    },
    {
      "labels": [],
      "source": null,
      "text": "        .loc 1 334 11 is_stmt 1 view .LVU84"
    },
    {
      "labels": [],
      "source": null,
      "text": ".LBB291:"
    },
    {
      "labels": [],
      "source": {
        "column": 11,
        "file": "/opt/compiler-explorer/gcc-12.2.0/include/c++/12.2.0/bits/std_function.h",
        "line": 334
      },
      "text": "        lea     rdi, [rsp+16]"
    },
    {
      "labels": [],
      "source": null,
      "text": ".LVL21:"
    },
    {
      "labels": [],
      "source": null,
      "text": "        .loc 1 334 11 is_stmt 0 view .LVU85"
    },
    {
      "labels": [
        {
          "name": "std",
          "range": {
            "endCol": 20,
            "startCol": 17
          }
        }
      ],
      "source": {
        "column": 11,
        "file": "/opt/compiler-explorer/gcc-12.2.0/include/c++/12.2.0/bits/std_function.h",
        "line": 334
      },
      "text": "        call    std::_Function_base::~_Function_base() [base object destructor]"
    },
    {
      "labels": [],
      "source": null,
      "text": ".LVL22:"
    },
    {
      "labels": [],
      "source": null,
      "text": "        .loc 1 334 11 view .LVU86"
    },
    {
      "labels": [],
      "source": null,
      "text": ".LBE291:"
    },
    {
      "labels": [],
      "source": null,
      "text": ".LBE290:"
    },
    {
      "labels": [],
      "source": null,
      "text": ".LBE284:"
    },
    {
      "labels": [],
      "source": null,
      "text": ".LBE283:"
    },
    {
      "labels": [],
      "source": null,
      "text": "        .loc 3 24 1 view .LVU87"
    },
    {
      "labels": [],
      "source": {
        "column": 1,
        "file": null,
        "line": 24
      },
      "text": "        xor     eax, eax"
    },
    {
      "labels": [],
      "source": {
        "column": 1,
        "file": null,
        "line": 24
      },
      "text": "        add     rsp, 88"
    },
    {
      "labels": [],
      "source": null,
      "text": "        .cfi_remember_state"
    },
    {
      "labels": [],
      "source": null,
      "text": "        .cfi_def_cfa_offset 8"
    },
    {
      "labels": [],
      "source": {
        "column": 1,
        "file": null,
        "line": 24
      },
      "text": "        ret"
    },
    {
      "labels": [],
      "source": null,
      "text": ".LVL23:"
    },
    {
      "labels": [],
      "source": null,
      "text": ".L22:"
    },
    {
      "labels": [],
      "source": null,
      "text": "        .cfi_restore_state"
    },
    {
      "labels": [],
      "source": null,
      "text": ".LBB294:"
    },
    {
      "labels": [],
      "source": null,
      "text": ".LBB293:"
    },
    {
      "labels": [],
      "source": null,
      "text": ".LBB292:"
    },
    {
      "labels": [],
      "source": null,
      "text": ".LBB289:"
    },
    {
      "labels": [],
      "source": null,
      "text": "        .loc 1 590 29 view .LVU88"
    },
    {
      "labels": [
        {
          "name": "std",
          "range": {
            "endCol": 20,
            "startCol": 17
          }
        }
      ],
      "source": {
        "column": 29,
        "file": "/opt/compiler-explorer/gcc-12.2.0/include/c++/12.2.0/bits/std_function.h",
        "line": 590
      },
      "text": "        call    std::__throw_bad_function_call()"
    },
    {
      "labels": [],
      "source": null,
      "text": ".LVL24:"
    },
    {
      "labels": [],
      "source": null,
      "text": ".LBE289:"
    },
    {
      "labels": [],
      "source": null,
      "text": ".LBE292:"
    },
    {
      "labels": [],
      "source": null,
      "text": ".LBE293:"
    },
    {
      "labels": [],
      "source": null,
      "text": ".LBE294:"
    },
    {
      "labels": [],
      "source": null,
      "text": "        .cfi_endproc"
    },
    {
      "labels": [],
      "source": null,
      "text": ".LFE2122:"
    },
    {
      "labels": [],
      "source": null,
      "text": "        .section        .gcc_except_table,\"a\",@progbits"
    },
    {
      "labels": [],
      "source": null,
      "text": ".LLSDA2122:"
    },
    {
      "labels": [],
      "source": null,
      "text": "        .byte   0xff"
    },
    {
      "labels": [],
      "source": null,
      "text": "        .byte   0xff"
    },
    {
      "labels": [],
      "source": null,
      "text": "        .byte   0x1"
    },
    {
      "labels": [
        {
          "name": ".LLSDACSE2122",
          "range": {
            "endCol": 31,
            "startCol": 18
          }
        },
        {
          "name": ".LLSDACSB2122",
          "range": {
            "endCol": 45,
            "startCol": 32
          }
        }
      ],
      "source": null,
      "text": "        .uleb128 .LLSDACSE2122-.LLSDACSB2122"
    },
    {
      "labels": [],
      "source": null,
      "text": ".LLSDACSB2122:"
    },
    {
      "labels": [
        {
          "name": ".LEHB0",
          "range": {
            "endCol": 24,
            "startCol": 18
          }
        },
        {
          "name": ".LFB2122",
          "range": {
            "endCol": 33,
            "startCol": 25
          }
        }
      ],
      "source": null,
      "text": "        .uleb128 .LEHB0-.LFB2122"
    },
    {
      "labels": [
        {
          "name": ".LEHE0",
          "range": {
            "endCol": 24,
            "startCol": 18
          }
        },
        {
          "name": ".LEHB0",
          "range": {
            "endCol": 31,
            "startCol": 25
          }
        }
      ],
      "source": null,
      "text": "        .uleb128 .LEHE0-.LEHB0"
    },
    {
      "labels": [],
      "source": null,
      "text": "        .uleb128 0"
    },
    {
      "labels": [],
      "source": null,
      "text": "        .uleb128 0"
    },
    {
      "labels": [],
      "source": null,
      "text": ".LLSDACSE2122:"
    },
    {
      "labels": [],
      "source": null,
      "text": "        .section        .text.startup"
    },
    {
      "labels": [
        {
          "name": "main",
          "range": {
            "endCol": 21,
            "startCol": 17
          }
        },
        {
          "name": "main",
          "range": {
            "endCol": 29,
            "startCol": 25
          }
        }
      ],
      "source": null,
      "text": "        .size   main, .-main"
    },
    {
      "labels": [],
      "source": null,
      "text": "        .section        .rodata"
    },
    {
      "labels": [],
      "source": null,
      "text": "        .align 8"
    },
    {
      "labels": [
        {
          "name": "main",
          "range": {
            "endCol": 34,
            "startCol": 30
          }
        }
      ],
      "source": null,
      "text": "        .type   typeinfo for main::{lambda()#1}, @object"
    },
    {
      "labels": [
        {
          "name": "main",
          "range": {
            "endCol": 34,
            "startCol": 30
          }
        }
      ],
      "source": null,
      "text": "        .size   typeinfo for main::{lambda()#1}, 16"
    },
    {
      "labels": [
        {
          "name": "main",
          "range": {
            "endCol": 18,
            "startCol": 14
          }
        }
      ],
      "source": null,
      "text": "typeinfo for main::{lambda()#1}:"
    },
    {
      "labels": [],
      "source": null,
      "text": "        .quad   vtable for __cxxabiv1::__class_type_info+16"
    },
    {
      "labels": [
        {
          "name": "main",
          "range": {
            "endCol": 39,
            "startCol": 35
          }
        }
      ],
      "source": null,
      "text": "        .quad   typeinfo name for main::{lambda()#1}"
    },
    {
      "labels": [],
      "source": null,
      "text": "        .align 8"
    },
    {
      "labels": [
        {
          "name": "main",
          "range": {
            "endCol": 39,
            "startCol": 35
          }
        }
      ],
      "source": null,
      "text": "        .type   typeinfo name for main::{lambda()#1}, @object"
    },
    {
      "labels": [
        {
          "name": "main",
          "range": {
            "endCol": 39,
            "startCol": 35
          }
        }
      ],
      "source": null,
      "text": "        .size   typeinfo name for main::{lambda()#1}, 14"
    },
    {
      "labels": [
        {
          "name": "main",
          "range": {
            "endCol": 23,
            "startCol": 19
          }
        }
      ],
      "source": null,
      "text": "typeinfo name for main::{lambda()#1}:"
    },
    {
      "labels": [],
      "source": null,
      "text": "        .string \"*Z4mainEUlvE_\""
    },
    {
      "labels": [],
      "source": null,
      "text": "        .section        .rodata.cst8,\"aM\",@progbits,8"
    },
    {
      "labels": [],
      "source": null,
      "text": "        .align 8"
    },
    {
      "labels": [],
      "source": null,
      "text": ".LC2:"
    },
    {
      "labels": [
        {
          "name": "std",
          "range": {
            "endCol": 20,
            "startCol": 17
          }
        },
        {
          "name": "main",
          "range": {
            "endCol": 53,
            "startCol": 49
          }
        }
      ],
      "source": null,
      "text": "        .quad   std::_Function_handler<void (), main::{lambda()#1}>::_M_invoke(std::_Any_data const&)"
    },
    {
      "labels": [],
      "source": null,
      "text": "        .text"
    },
    {
      "labels": [],
      "source": null,
      "text": ".Letext0:"
    },
    {
      "labels": [],
      "source": null,
      "text": "        .file 4 \"/opt/compiler-explorer/gcc-12.2.0/lib/gcc/x86_64-linux-gnu/12.2.0/include/stddef.h\""
    },
    {
      "labels": [],
      "source": null,
      "text": "        .file 5 \"/usr/include/x86_64-linux-gnu/bits/types.h\""
    },
    {
      "labels": [],
      "source": null,
      "text": "        .file 6 \"/usr/include/x86_64-linux-gnu/bits/types/__mbstate_t.h\""
    },
    {
      "labels": [],
      "source": null,
      "text": "        .file 7 \"/usr/include/x86_64-linux-gnu/bits/types/__fpos_t.h\""
    },
    {
      "labels": [],
      "source": null,
      "text": "        .file 8 \"/usr/include/x86_64-linux-gnu/bits/types/struct_FILE.h\""
    },
    {
      "labels": [],
      "source": null,
      "text": "        .file 9 \"/usr/include/x86_64-linux-gnu/bits/types/FILE.h\""
    },
    {
      "labels": [],
      "source": null,
      "text": "        .file 10 \"/usr/include/stdio.h\""
    },
    {
      "labels": [],
      "source": null,
      "text": "        .file 11 \"/opt/compiler-explorer/gcc-12.2.0/include/c++/12.2.0/cstdio\""
    },
    {
      "labels": [],
      "source": null,
      "text": "        .file 12 \"/opt/compiler-explorer/gcc-12.2.0/include/c++/12.2.0/type_traits\""
    },
    {
      "labels": [],
      "source": null,
      "text": "        .file 13 \"/opt/compiler-explorer/gcc-12.2.0/include/c++/12.2.0/x86_64-linux-gnu/bits/c++config.h\""
    },
    {
      "labels": [],
      "source": null,
      "text": "        .file 14 \"/opt/compiler-explorer/gcc-12.2.0/include/c++/12.2.0/debug/debug.h\""
    },
    {
      "labels": [],
      "source": null,
      "text": "        .file 15 \"/opt/compiler-explorer/gcc-12.2.0/include/c++/12.2.0/cstdlib\""
    },
    {
      "labels": [],
      "source": null,
      "text": "        .file 16 \"/opt/compiler-explorer/gcc-12.2.0/include/c++/12.2.0/functional\""
    },
    {
      "labels": [],
      "source": null,
      "text": "        .file 17 \"/opt/compiler-explorer/gcc-12.2.0/include/c++/12.2.0/bits/refwrap.h\""
    },
    {
      "labels": [],
      "source": null,
      "text": "        .file 18 \"/usr/include/x86_64-linux-gnu/bits/stdio.h\""
    },
    {
      "labels": [],
      "source": null,
      "text": "        .file 19 \"/opt/compiler-explorer/gcc-12.2.0/include/c++/12.2.0/bits/predefined_ops.h\""
    },
    {
      "labels": [],
      "source": null,
      "text": "        .file 20 \"/usr/include/stdlib.h\""
    },
    {
      "labels": [],
      "source": null,
      "text": "        .file 21 \"/usr/include/x86_64-linux-gnu/bits/stdlib-float.h\""
    },
    {
      "labels": [],
      "source": null,
      "text": "        .file 22 \"/usr/include/x86_64-linux-gnu/bits/stdlib-bsearch.h\""
    },
    {
      "labels": [],
      "source": null,
      "text": "        .file 23 \"/opt/compiler-explorer/gcc-12.2.0/include/c++/12.2.0/new\""
    },
    {
      "labels": [],
      "source": null,
      "text": "        .file 24 \"/opt/compiler-explorer/gcc-12.2.0/include/c++/12.2.0/bits/functexcept.h\""
    },
    {
      "labels": [],
      "source": null,
      "text": "        .section        .debug_info,\"\",@progbits"
    },
    {
      "labels": [],
      "source": null,
      "text": ".Ldebug_info0:"
    },
    {
      "labels": [],
      "source": null,
      "text": "        .long   0x20c2"
    },
    {
      "labels": [],
      "source": null,
      "text": "        .value  0x5"
    },
    {
      "labels": [],
      "source": null,
      "text": "        .byte   0x1"
    },
    {
      "labels": [],
      "source": null,
      "text": "        .byte   0x8"
    },
    {
      "labels": [
        {
          "name": ".Ldebug_abbrev0",
          "range": {
            "endCol": 32,
            "startCol": 17
          }
        }
      ],
      "source": null,
      "text": "        .long   .Ldebug_abbrev0"
    },
    {
      "labels": [],
      "source": null,
      "text": "        .uleb128 0x48"
    },
    {
      "labels": [
        {
          "name": ".LASF250",
          "range": {
            "endCol": 25,
            "startCol": 17
          }
        }
      ],
      "source": null,
      "text": "        .long   .LASF250"
    },
    {
      "labels": [],
      "source": null,
      "text": "        .byte   0x21"
    },
    {
      "labels": [
        {
          "name": ".LASF0",
          "range": {
            "endCol": 23,
            "startCol": 17
          }
        }
      ],
      "source": null,
      "text": "        .long   .LASF0"
    },
    {
      "labels": [
        {
          "name": ".LASF1",
          "range": {
            "endCol": 23,
            "startCol": 17
          }
        }
      ],
      "source": null,
      "text": "        .long   .LASF1"
    },
    {
      "labels": [
        {
          "name": ".LLRL55",
          "range": {
            "endCol": 24,
            "startCol": 17
          }
        }
      ],
      "source": null,
      "text": "        .long   .LLRL55"
    },
    {
      "labels": [],
      "source": null,
      "text": "        .quad   0"
    },
    {
      "labels": [
        {
          "name": ".Ldebug_line0",
          "range": {
            "endCol": 30,
            "startCol": 17
          }
        }
      ],
      "source": null,
      "text": "        .long   .Ldebug_line0"
    },
    {
      "labels": [],
      "source": null,
      "text": "        .uleb128 0xe"
    },
    {
      "labels": [
        {
          "name": ".LASF9",
          "range": {
            "endCol": 23,
            "startCol": 17
          }
        }
      ],
      "source": null,
      "text": "        .long   .LASF9"
    },
    {
      "labels": [],
      "source": null,
      "text": "        .byte   0x4"
    },
    {
      "labels": [],
      "source": null,
      "text": "        .byte   0xd6"
    },
    {
      "labels": [],
      "source": null,
      "text": "        .byte   0x17"
    },
    {
      "labels": [],
      "source": null,
      "text": "        .long   0x36"
    },
    {
      "labels": [],
      "source": null,
      "text": "        .uleb128 0xa"
    },
    {
      "labels": [],
      "source": null,
      "text": "        .byte   0x8"
    },
    {
      "labels": [],
      "source": null,
      "text": "        .byte   0x7"
    },
    {
      "labels": [
        {
          "name": ".LASF2",
          "range": {
            "endCol": 23,
            "startCol": 17
          }
        }
      ],
      "source": null,
      "text": "        .long   .LASF2"
    },
    {
      "labels": [],
      "source": null,
      "text": "        .uleb128 0xa"
    },
    {
      "labels": [],
      "source": null,
      "text": "        .byte   0x4"
    },
    {
      "labels": [],
      "source": null,
      "text": "        .byte   0x7"
    },
    {
      "labels": [
        {
          "name": ".LASF3",
          "range": {
            "endCol": 23,
            "startCol": 17
          }
        }
      ],
      "source": null,
      "text": "        .long   .LASF3"
    },
    {
      "labels": [],
      "source": null,
      "text": "        .uleb128 0x49"
    },
    {
      "labels": [],
      "source": null,
      "text": "        .byte   0x8"
    },
    {
      "labels": [],
      "source": null,
      "text": "        .uleb128 0xa"
    },
    {
      "labels": [],
      "source": null,
      "text": "        .byte   0x1"
    },
    {
      "labels": [],
      "source": null,
      "text": "        .byte   0x8"
    },
    {
      "labels": [
        {
          "name": ".LASF4",
          "range": {
            "endCol": 23,
            "startCol": 17
          }
        }
      ],
      "source": null,
      "text": "        .long   .LASF4"
    },
    {
      "labels": [],
      "source": null,
      "text": "        .uleb128 0xa"
    },
    {
      "labels": [],
      "source": null,
      "text": "        .byte   0x2"
    },
    {
      "labels": [],
      "source": null,
      "text": "        .byte   0x7"
    },
    {
      "labels": [
        {
          "name": ".LASF5",
          "range": {
            "endCol": 23,
            "startCol": 17
          }
        }
      ],
      "source": null,
      "text": "        .long   .LASF5"
    },
    {
      "labels": [],
      "source": null,
      "text": "        .uleb128 0xa"
    },
    {
      "labels": [],
      "source": null,
      "text": "        .byte   0x1"
    },
    {
      "labels": [],
      "source": null,
      "text": "        .byte   0x6"
    },
    {
      "labels": [
        {
          "name": ".LASF6",
          "range": {
            "endCol": 23,
            "startCol": 17
          }
        }
      ],
      "source": null,
      "text": "        .long   .LASF6"
    },
    {
      "labels": [],
      "source": null,
      "text": "        .uleb128 0xa"
    },
    {
      "labels": [],
      "source": null,
      "text": "        .byte   0x2"
    },
    {
      "labels": [],
      "source": null,
      "text": "        .byte   0x5"
    },
    {
      "labels": [
        {
          "name": ".LASF7",
          "range": {
            "endCol": 23,
            "startCol": 17
          }
        }
      ],
      "source": null,
      "text": "        .long   .LASF7"
    },
    {
      "labels": [],
      "source": null,
      "text": "        .uleb128 0x4a"
    },
    {
      "labels": [],
      "source": null,
      "text": "        .byte   0x4"
    },
    {
      "labels": [],
      "source": null,
      "text": "        .byte   0x5"
    },
    {
      "labels": [],
      "source": null,
      "text": "        .string \"int\""
    },
    {
      "labels": [],
      "source": null,
      "text": "        .uleb128 0x8"
    },
    {
      "labels": [],
      "source": null,
      "text": "        .long   0x62"
    },
    {
      "labels": [],
      "source": null,
      "text": "        .uleb128 0xa"
    },
    {
      "labels": [],
      "source": null,
      "text": "        .byte   0x8"
    },
    {
      "labels": [],
      "source": null,
      "text": "        .byte   0x5"
    },
    {
      "labels": [
        {
          "name": ".LASF8",
          "range": {
            "endCol": 23,
            "startCol": 17
          }
        }
      ],
      "source": null,
      "text": "        .long   .LASF8"
    },
    {
      "labels": [],
      "source": null,
      "text": "        .uleb128 0xe"
    },
    {
      "labels": [
        {
          "name": ".LASF10",
          "range": {
            "endCol": 24,
            "startCol": 17
          }
        }
      ],
      "source": null,
      "text": "        .long   .LASF10"
    },
    {
      "labels": [],
      "source": null,
      "text": "        .byte   0x5"
    },
    {
      "labels": [],
      "source": null,
      "text": "        .byte   0x98"
    },
    {
      "labels": [],
      "source": null,
      "text": "        .byte   0x19"
    },
    {
      "labels": [],
      "source": null,
      "text": "        .long   0x6e"
    },
    {
      "labels": [],
      "source": null,
      "text": "        .uleb128 0xe"
    },
    {
      "labels": [
        {
          "name": ".LASF11",
          "range": {
            "endCol": 24,
            "startCol": 17
          }
        }
      ],
      "source": null,
      "text": "        .long   .LASF11"
    },
    {
      "labels": [],
      "source": null,
      "text": "        .byte   0x5"
    },
    {
      "labels": [],
      "source": null,
      "text": "        .byte   0x99"
    },
    {
      "labels": [],
      "source": null,
      "text": "        .byte   0x1b"
    },
    {
      "labels": [],
      "source": null,
      "text": "        .long   0x6e"
    },
    {
      "labels": [],
      "source": null,
      "text": "        .uleb128 0x6"
    },
    {
      "labels": [],
      "source": null,
      "text": "        .long   0x92"
    },
    {
      "labels": [],
      "source": null,
      "text": "        .uleb128 0xa"
    },
    {
      "labels": [],
      "source": null,
      "text": "        .byte   0x1"
    },
    {
      "labels": [],
      "source": null,
      "text": "        .byte   0x6"
    },
    {
      "labels": [
        {
          "name": ".LASF12",
          "range": {
            "endCol": 24,
            "startCol": 17
          }
        }
      ],
      "source": null,
      "text": "        .long   .LASF12"
    },
    {
      "labels": [],
      "source": null,
      "text": "        .uleb128 0x8"
    },
    {
      "labels": [],
      "source": null,
      "text": "        .long   0x92"
    },
    {
      "labels": [],
      "source": null,
      "text": "        .uleb128 0x22"
    },
    {
      "labels": [],
      "source": null,
      "text": "        .byte   0x8"
    },
    {
      "labels": [],
      "source": null,
      "text": "        .byte   0x6"
    },
    {
      "labels": [],
      "source": null,
      "text": "        .byte   0xe"
    },
    {
      "labels": [],
      "source": null,
      "text": "        .byte   0x1"
    },
    {
      "labels": [
        {
          "name": ".LASF185",
          "range": {
            "endCol": 25,
            "startCol": 17
          }
        }
      ],
      "source": null,
      "text": "        .long   .LASF185"
    },
    {
      "labels": [],
      "source": null,
      "text": "        .long   0xe8"
    },
    {
      "labels": [],
      "source": null,
      "text": "        .uleb128 0x4b"
    },
    {
      "labels": [],
      "source": null,
      "text": "        .byte   0x4"
    },
    {
      "labels": [],
      "source": null,
      "text": "        .byte   0x6"
    },
    {
      "labels": [],
      "source": null,
      "text": "        .byte   0x11"
    },
    {
      "labels": [],
      "source": null,
      "text": "        .byte   0x3"
    },
    {
      "labels": [],
      "source": null,
      "text": "        .long   0xcd"
    },
    {
      "labels": [],
      "source": null,
      "text": "        .uleb128 0x14"
    },
    {
      "labels": [
        {
          "name": ".LASF13",
          "range": {
            "endCol": 24,
            "startCol": 17
          }
        }
      ],
      "source": null,
      "text": "        .long   .LASF13"
    },
    {
      "labels": [],
      "source": null,
      "text": "        .byte   0x6"
    },
    {
      "labels": [],
      "source": null,
      "text": "        .byte   0x12"
    },
    {
      "labels": [],
      "source": null,
      "text": "        .byte   0x13"
    },
    {
      "labels": [],
      "source": null,
      "text": "        .long   0x3d"
    },
    {
      "labels": [],
      "source": null,
      "text": "        .uleb128 0x14"
    },
    {
      "labels": [
        {
          "name": ".LASF14",
          "range": {
            "endCol": 24,
            "startCol": 17
          }
        }
      ],
      "source": null,
      "text": "        .long   .LASF14"
    },
    {
      "labels": [],
      "source": null,
      "text": "        .byte   0x6"
    },
    {
      "labels": [],
      "source": null,
      "text": "        .byte   0x13"
    },
    {
      "labels": [],
      "source": null,
      "text": "        .byte   0xa"
    },
    {
      "labels": [],
      "source": null,
      "text": "        .long   0xe8"
    },
    {
      "labels": [],
      "source": null,
      "text": "        .byte   0"
    },
    {
      "labels": [],
      "source": null,
      "text": "        .uleb128 0x4"
    },
    {
      "labels": [
        {
          "name": ".LASF15",
          "range": {
            "endCol": 24,
            "startCol": 17
          }
        }
      ],
      "source": null,
      "text": "        .long   .LASF15"
    },
    {
      "labels": [],
      "source": null,
      "text": "        .byte   0x6"
    },
    {
      "labels": [],
      "source": null,
      "text": "        .byte   0xf"
    },
    {
      "labels": [],
      "source": null,
      "text": "        .byte   0x7"
    },
    {
      "labels": [],
      "source": null,
      "text": "        .long   0x62"
    },
    {
      "labels": [],
      "source": null,
      "text": "        .byte   0"
    },
    {
      "labels": [],
      "source": null,
      "text": "        .uleb128 0x4"
    },
    {
      "labels": [
        {
          "name": ".LASF16",
          "range": {
            "endCol": 24,
            "startCol": 17
          }
        }
      ],
      "source": null,
      "text": "        .long   .LASF16"
    },
    {
      "labels": [],
      "source": null,
      "text": "        .byte   0x6"
    },
    {
      "labels": [],
      "source": null,
      "text": "        .byte   0x14"
    },
    {
      "labels": [],
      "source": null,
      "text": "        .byte   0x5"
    },
    {
      "labels": [],
      "source": null,
      "text": "        .long   0xab"
    },
    {
      "labels": [],
      "source": null,
      "text": "        .byte   0x4"
    },
    {
      "labels": [],
      "source": null,
      "text": "        .byte   0"
    },
    {
      "labels": [],
      "source": null,
      "text": "        .uleb128 0x23"
    },
    {
      "labels": [],
      "source": null,
      "text": "        .long   0x92"
    },
    {
      "labels": [],
      "source": null,
      "text": "        .long   0xf8"
    },
    {
      "labels": [],
      "source": null,
      "text": "        .uleb128 0x24"
    },
    {
      "labels": [],
      "source": null,
      "text": "        .long   0x36"
    },
    {
      "labels": [],
      "source": null,
      "text": "        .byte   0x3"
    },
    {
      "labels": [],
      "source": null,
      "text": "        .byte   0"
    },
    {
      "labels": [],
      "source": null,
      "text": "        .uleb128 0xe"
    },
    {
      "labels": [
        {
          "name": ".LASF17",
          "range": {
            "endCol": 24,
            "startCol": 17
          }
        }
      ],
      "source": null,
      "text": "        .long   .LASF17"
    },
    {
      "labels": [],
      "source": null,
      "text": "        .byte   0x6"
    },
    {
      "labels": [],
      "source": null,
      "text": "        .byte   0x15"
    },
    {
      "labels": [],
      "source": null,
      "text": "        .byte   0x3"
    },
    {
      "labels": [],
      "source": null,
      "text": "        .long   0x9e"
    },
    {
      "labels": [],
      "source": null,
      "text": "        .uleb128 0x1b"
    },
    {
      "labels": [
        {
          "name": ".LASF21",
          "range": {
            "endCol": 24,
            "startCol": 17
          }
        }
      ],
      "source": null,
      "text": "        .long   .LASF21"
    },
    {
      "labels": [],
      "source": null,
      "text": "        .byte   0x10"
    },
    {
      "labels": [],
      "source": null,
      "text": "        .byte   0x7"
    },
    {
      "labels": [],
      "source": null,
      "text": "        .byte   0xa"
    },
    {
      "labels": [],
      "source": null,
      "text": "        .byte   0x10"
    },
    {
      "labels": [],
      "source": null,
      "text": "        .long   0x12c"
    },
    {
      "labels": [],
      "source": null,
      "text": "        .uleb128 0x4"
    },
    {
      "labels": [
        {
          "name": ".LASF18",
          "range": {
            "endCol": 24,
            "startCol": 17
          }
        }
      ],
      "source": null,
      "text": "        .long   .LASF18"
    },
    {
      "labels": [],
      "source": null,
      "text": "        .byte   0x7"
    },
    {
      "labels": [],
      "source": null,
      "text": "        .byte   0xc"
    },
    {
      "labels": [],
      "source": null,
      "text": "        .byte   0xb"
    },
    {
      "labels": [],
      "source": null,
      "text": "        .long   0x75"
    },
    {
      "labels": [],
      "source": null,
      "text": "        .byte   0"
    },
    {
      "labels": [],
      "source": null,
      "text": "        .uleb128 0x4"
    },
    {
      "labels": [
        {
          "name": ".LASF19",
          "range": {
            "endCol": 24,
            "startCol": 17
          }
        }
      ],
      "source": null,
      "text": "        .long   .LASF19"
    },
    {
      "labels": [],
      "source": null,
      "text": "        .byte   0x7"
    },
    {
      "labels": [],
      "source": null,
      "text": "        .byte   0xd"
    },
    {
      "labels": [],
      "source": null,
      "text": "        .byte   0xf"
    },
    {
      "labels": [],
      "source": null,
      "text": "        .long   0xf8"
    },
    {
      "labels": [],
      "source": null,
      "text": "        .byte   0x8"
    },
    {
      "labels": [],
      "source": null,
      "text": "        .byte   0"
    },
    {
      "labels": [],
      "source": null,
      "text": "        .uleb128 0xe"
    },
    {
      "labels": [
        {
          "name": ".LASF20",
          "range": {
            "endCol": 24,
            "startCol": 17
          }
        }
      ],
      "source": null,
      "text": "        .long   .LASF20"
    },
    {
      "labels": [],
      "source": null,
      "text": "        .byte   0x7"
    },
    {
      "labels": [],
      "source": null,
      "text": "        .byte   0xe"
    },
    {
      "labels": [],
      "source": null,
      "text": "        .byte   0x3"
    },
    {
      "labels": [],
      "source": null,
      "text": "        .long   0x104"
    },
    {
      "labels": [],
      "source": null,
      "text": "        .uleb128 0x1b"
    },
    {
      "labels": [
        {
          "name": ".LASF22",
          "range": {
            "endCol": 24,
            "startCol": 17
          }
        }
      ],
      "source": null,
      "text": "        .long   .LASF22"
    },
    {
      "labels": [],
      "source": null,
      "text": "        .byte   0xd8"
    },
    {
      "labels": [],
      "source": null,
      "text": "        .byte   0x8"
    },
    {
      "labels": [],
      "source": null,
      "text": "        .byte   0x31"
    },
    {
      "labels": [],
      "source": null,
      "text": "        .byte   0x8"
    },
    {
      "labels": [],
      "source": null,
      "text": "        .long   0x2bf"
    },
    {
      "labels": [],
      "source": null,
      "text": "        .uleb128 0x4"
    },
    {
      "labels": [
        {
          "name": ".LASF23",
          "range": {
            "endCol": 24,
            "startCol": 17
          }
        }
      ],
      "source": null,
      "text": "        .long   .LASF23"
    },
    {
      "labels": [],
      "source": null,
      "text": "        .byte   0x8"
    },
    {
      "labels": [],
      "source": null,
      "text": "        .byte   0x33"
    },
    {
      "labels": [],
      "source": null,
      "text": "        .byte   0x7"
    },
    {
      "labels": [],
      "source": null,
      "text": "        .long   0x62"
    },
    {
      "labels": [],
      "source": null,
      "text": "        .byte   0"
    },
    {
      "labels": [],
      "source": null,
      "text": "        .uleb128 0x4"
    },
    {
      "labels": [
        {
          "name": ".LASF24",
          "range": {
            "endCol": 24,
            "startCol": 17
          }
        }
      ],
      "source": null,
      "text": "        .long   .LASF24"
    },
    {
      "labels": [],
      "source": null,
      "text": "        .byte   0x8"
    },
    {
      "labels": [],
      "source": null,
      "text": "        .byte   0x36"
    },
    {
      "labels": [],
      "source": null,
      "text": "        .byte   0x9"
    },
    {
      "labels": [],
      "source": null,
      "text": "        .long   0x8d"
    },
    {
      "labels": [],
      "source": null,
      "text": "        .byte   0x8"
    },
    {
      "labels": [],
      "source": null,
      "text": "        .uleb128 0x4"
    },
    {
      "labels": [
        {
          "name": ".LASF25",
          "range": {
            "endCol": 24,
            "startCol": 17
          }
        }
      ],
      "source": null,
      "text": "        .long   .LASF25"
    },
    {
      "labels": [],
      "source": null,
      "text": "        .byte   0x8"
    },
    {
      "labels": [],
      "source": null,
      "text": "        .byte   0x37"
    },
    {
      "labels": [],
      "source": null,
      "text": "        .byte   0x9"
    },
    {
      "labels": [],
      "source": null,
      "text": "        .long   0x8d"
    },
    {
      "labels": [],
      "source": null,
      "text": "        .byte   0x10"
    },
    {
      "labels": [],
      "source": null,
      "text": "        .uleb128 0x4"
    },
    {
      "labels": [
        {
          "name": ".LASF26",
          "range": {
            "endCol": 24,
            "startCol": 17
          }
        }
      ],
      "source": null,
      "text": "        .long   .LASF26"
    },
    {
      "labels": [],
      "source": null,
      "text": "        .byte   0x8"
    },
    {
      "labels": [],
      "source": null,
      "text": "        .byte   0x38"
    },
    {
      "labels": [],
      "source": null,
      "text": "        .byte   0x9"
    },
    {
      "labels": [],
      "source": null,
      "text": "        .long   0x8d"
    },
    {
      "labels": [],
      "source": null,
      "text": "        .byte   0x18"
    },
    {
      "labels": [],
      "source": null,
      "text": "        .uleb128 0x4"
    },
    {
      "labels": [
        {
          "name": ".LASF27",
          "range": {
            "endCol": 24,
            "startCol": 17
          }
        }
      ],
      "source": null,
      "text": "        .long   .LASF27"
    },
    {
      "labels": [],
      "source": null,
      "text": "        .byte   0x8"
    },
    {
      "labels": [],
      "source": null,
      "text": "        .byte   0x39"
    },
    {
      "labels": [],
      "source": null,
      "text": "        .byte   0x9"
    },
    {
      "labels": [],
      "source": null,
      "text": "        .long   0x8d"
    },
    {
      "labels": [],
      "source": null,
      "text": "        .byte   0x20"
    },
    {
      "labels": [],
      "source": null,
      "text": "        .uleb128 0x4"
    },
    {
      "labels": [
        {
          "name": ".LASF28",
          "range": {
            "endCol": 24,
            "startCol": 17
          }
        }
      ],
      "source": null,
      "text": "        .long   .LASF28"
    },
    {
      "labels": [],
      "source": null,
      "text": "        .byte   0x8"
    },
    {
      "labels": [],
      "source": null,
      "text": "        .byte   0x3a"
    },
    {
      "labels": [],
      "source": null,
      "text": "        .byte   0x9"
    },
    {
      "labels": [],
      "source": null,
      "text": "        .long   0x8d"
    },
    {
      "labels": [],
      "source": null,
      "text": "        .byte   0x28"
    },
    {
      "labels": [],
      "source": null,
      "text": "        .uleb128 0x4"
    },
    {
      "labels": [
        {
          "name": ".LASF29",
          "range": {
            "endCol": 24,
            "startCol": 17
          }
        }
      ],
      "source": null,
      "text": "        .long   .LASF29"
    },
    {
      "labels": [],
      "source": null,
      "text": "        .byte   0x8"
    },
    {
      "labels": [],
      "source": null,
      "text": "        .byte   0x3b"
    },
    {
      "labels": [],
      "source": null,
      "text": "        .byte   0x9"
    },
    {
      "labels": [],
      "source": null,
      "text": "        .long   0x8d"
    },
    {
      "labels": [],
      "source": null,
      "text": "        .byte   0x30"
    },
    {
      "labels": [],
      "source": null,
      "text": "        .uleb128 0x4"
    },
    {
      "labels": [
        {
          "name": ".LASF30",
          "range": {
            "endCol": 24,
            "startCol": 17
          }
        }
      ],
      "source": null,
      "text": "        .long   .LASF30"
    },
    {
      "labels": [],
      "source": null,
      "text": "        .byte   0x8"
    },
    {
      "labels": [],
      "source": null,
      "text": "        .byte   0x3c"
    },
    {
      "labels": [],
      "source": null,
      "text": "        .byte   0x9"
    },
    {
      "labels": [],
      "source": null,
      "text": "        .long   0x8d"
    },
    {
      "labels": [],
      "source": null,
      "text": "        .byte   0x38"
    },
    {
      "labels": [],
      "source": null,
      "text": "        .uleb128 0x4"
    },
    {
      "labels": [
        {
          "name": ".LASF31",
          "range": {
            "endCol": 24,
            "startCol": 17
          }
        }
      ],
      "source": null,
      "text": "        .long   .LASF31"
    },
    {
      "labels": [],
      "source": null,
      "text": "        .byte   0x8"
    },
    {
      "labels": [],
      "source": null,
      "text": "        .byte   0x3d"
    },
    {
      "labels": [],
      "source": null,
      "text": "        .byte   0x9"
    },
    {
      "labels": [],
      "source": null,
      "text": "        .long   0x8d"
    },
    {
      "labels": [],
      "source": null,
      "text": "        .byte   0x40"
    },
    {
      "labels": [],
      "source": null,
      "text": "        .uleb128 0x4"
    },
    {
      "labels": [
        {
          "name": ".LASF32",
          "range": {
            "endCol": 24,
            "startCol": 17
          }
        }
      ],
      "source": null,
      "text": "        .long   .LASF32"
    },
    {
      "labels": [],
      "source": null,
      "text": "        .byte   0x8"
    },
    {
      "labels": [],
      "source": null,
      "text": "        .byte   0x40"
    },
    {
      "labels": [],
      "source": null,
      "text": "        .byte   0x9"
    },
    {
      "labels": [],
      "source": null,
      "text": "        .long   0x8d"
    },
    {
      "labels": [],
      "source": null,
      "text": "        .byte   0x48"
    },
    {
      "labels": [],
      "source": null,
      "text": "        .uleb128 0x4"
    },
    {
      "labels": [
        {
          "name": ".LASF33",
          "range": {
            "endCol": 24,
            "startCol": 17
          }
        }
      ],
      "source": null,
      "text": "        .long   .LASF33"
    },
    {
      "labels": [],
      "source": null,
      "text": "        .byte   0x8"
    },
    {
      "labels": [],
      "source": null,
      "text": "        .byte   0x41"
    },
    {
      "labels": [],
      "source": null,
      "text": "        .byte   0x9"
    },
    {
      "labels": [],
      "source": null,
      "text": "        .long   0x8d"
    },
    {
      "labels": [],
      "source": null,
      "text": "        .byte   0x50"
    },
    {
      "labels": [],
      "source": null,
      "text": "        .uleb128 0x4"
    },
    {
      "labels": [
        {
          "name": ".LASF34",
          "range": {
            "endCol": 24,
            "startCol": 17
          }
        }
      ],
      "source": null,
      "text": "        .long   .LASF34"
    },
    {
      "labels": [],
      "source": null,
      "text": "        .byte   0x8"
    },
    {
      "labels": [],
      "source": null,
      "text": "        .byte   0x42"
    },
    {
      "labels": [],
      "source": null,
      "text": "        .byte   0x9"
    },
    {
      "labels": [],
      "source": null,
      "text": "        .long   0x8d"
    },
    {
      "labels": [],
      "source": null,
      "text": "        .byte   0x58"
    },
    {
      "labels": [],
      "source": null,
      "text": "        .uleb128 0x4"
    },
    {
      "labels": [
        {
          "name": ".LASF35",
          "range": {
            "endCol": 24,
            "startCol": 17
          }
        }
      ],
      "source": null,
      "text": "        .long   .LASF35"
    },
    {
      "labels": [],
      "source": null,
      "text": "        .byte   0x8"
    },
    {
      "labels": [],
      "source": null,
      "text": "        .byte   0x44"
    },
    {
      "labels": [],
      "source": null,
      "text": "        .byte   0x16"
    },
    {
      "labels": [],
      "source": null,
      "text": "        .long   0x2d8"
    },
    {
      "labels": [],
      "source": null,
      "text": "        .byte   0x60"
    },
    {
      "labels": [],
      "source": null,
      "text": "        .uleb128 0x4"
    },
    {
      "labels": [
        {
          "name": ".LASF36",
          "range": {
            "endCol": 24,
            "startCol": 17
          }
        }
      ],
      "source": null,
      "text": "        .long   .LASF36"
    },
    {
      "labels": [],
      "source": null,
      "text": "        .byte   0x8"
    },
    {
      "labels": [],
      "source": null,
      "text": "        .byte   0x46"
    },
    {
      "labels": [],
      "source": null,
      "text": "        .byte   0x14"
    },
    {
      "labels": [],
      "source": null,
      "text": "        .long   0x2dd"
    },
    {
      "labels": [],
      "source": null,
      "text": "        .byte   0x68"
    },
    {
      "labels": [],
      "source": null,
      "text": "        .uleb128 0x4"
    },
    {
      "labels": [
        {
          "name": ".LASF37",
          "range": {
            "endCol": 24,
            "startCol": 17
          }
        }
      ],
      "source": null,
      "text": "        .long   .LASF37"
    },
    {
      "labels": [],
      "source": null,
      "text": "        .byte   0x8"
    },
    {
      "labels": [],
      "source": null,
      "text": "        .byte   0x48"
    },
    {
      "labels": [],
      "source": null,
      "text": "        .byte   0x7"
    },
    {
      "labels": [],
      "source": null,
      "text": "        .long   0x62"
    },
    {
      "labels": [],
      "source": null,
      "text": "        .byte   0x70"
    },
    {
      "labels": [],
      "source": null,
      "text": "        .uleb128 0x4"
    },
    {
      "labels": [
        {
          "name": ".LASF38",
          "range": {
            "endCol": 24,
            "startCol": 17
          }
        }
      ],
      "source": null,
      "text": "        .long   .LASF38"
    },
    {
      "labels": [],
      "source": null,
      "text": "        .byte   0x8"
    },
    {
      "labels": [],
      "source": null,
      "text": "        .byte   0x49"
    },
    {
      "labels": [],
      "source": null,
      "text": "        .byte   0x7"
    },
    {
      "labels": [],
      "source": null,
      "text": "        .long   0x62"
    },
    {
      "labels": [],
      "source": null,
      "text": "        .byte   0x74"
    },
    {
      "labels": [],
      "source": null,
      "text": "        .uleb128 0x4"
    },
    {
      "labels": [
        {
          "name": ".LASF39",
          "range": {
            "endCol": 24,
            "startCol": 17
          }
        }
      ],
      "source": null,
      "text": "        .long   .LASF39"
    },
    {
      "labels": [],
      "source": null,
      "text": "        .byte   0x8"
    },
    {
      "labels": [],
      "source": null,
      "text": "        .byte   0x4a"
    },
    {
      "labels": [],
      "source": null,
      "text": "        .byte   0xb"
    },
    {
      "labels": [],
      "source": null,
      "text": "        .long   0x75"
    },
    {
      "labels": [],
      "source": null,
      "text": "        .byte   0x78"
    },
    {
      "labels": [],
      "source": null,
      "text": "        .uleb128 0x4"
    },
    {
      "labels": [
        {
          "name": ".LASF40",
          "range": {
            "endCol": 24,
            "startCol": 17
          }
        }
      ],
      "source": null,
      "text": "        .long   .LASF40"
    },
    {
      "labels": [],
      "source": null,
      "text": "        .byte   0x8"
    },
    {
      "labels": [],
      "source": null,
      "text": "        .byte   0x4d"
    },
    {
      "labels": [],
      "source": null,
      "text": "        .byte   0x12"
    },
    {
      "labels": [],
      "source": null,
      "text": "        .long   0x4d"
    },
    {
      "labels": [],
      "source": null,
      "text": "        .byte   0x80"
    },
    {
      "labels": [],
      "source": null,
      "text": "        .uleb128 0x4"
    },
    {
      "labels": [
        {
          "name": ".LASF41",
          "range": {
            "endCol": 24,
            "startCol": 17
          }
        }
      ],
      "source": null,
      "text": "        .long   .LASF41"
    },
    {
      "labels": [],
      "source": null,
      "text": "        .byte   0x8"
    },
    {
      "labels": [],
      "source": null,
      "text": "        .byte   0x4e"
    },
    {
      "labels": [],
      "source": null,
      "text": "        .byte   0xf"
    },
    {
      "labels": [],
      "source": null,
      "text": "        .long   0x54"
    },
    {
      "labels": [],
      "source": null,
      "text": "        .byte   0x82"
    },
    {
      "labels": [],
      "source": null,
      "text": "        .uleb128 0x4"
    },
    {
      "labels": [
        {
          "name": ".LASF42",
          "range": {
            "endCol": 24,
            "startCol": 17
          }
        }
      ],
      "source": null,
      "text": "        .long   .LASF42"
    },
    {
      "labels": [],
      "source": null,
      "text": "        .byte   0x8"
    },
    {
      "labels": [],
      "source": null,
      "text": "        .byte   0x4f"
    },
    {
      "labels": [],
      "source": null,
      "text": "        .byte   0x8"
    },
    {
      "labels": [],
      "source": null,
      "text": "        .long   0x2e2"
    },
    {
      "labels": [],
      "source": null,
      "text": "        .byte   0x83"
    },
    {
      "labels": [],
      "source": null,
      "text": "        .uleb128 0x4"
    },
    {
      "labels": [
        {
          "name": ".LASF43",
          "range": {
            "endCol": 24,
            "startCol": 17
          }
        }
      ],
      "source": null,
      "text": "        .long   .LASF43"
    },
    {
      "labels": [],
      "source": null,
      "text": "        .byte   0x8"
    },
    {
      "labels": [],
      "source": null,
      "text": "        .byte   0x51"
    },
    {
      "labels": [],
      "source": null,
      "text": "        .byte   0xf"
    },
    {
      "labels": [],
      "source": null,
      "text": "        .long   0x2f2"
    },
    {
      "labels": [],
      "source": null,
      "text": "        .byte   0x88"
    },
    {
      "labels": [],
      "source": null,
      "text": "        .uleb128 0x4"
    },
    {
      "labels": [
        {
          "name": ".LASF44",
          "range": {
            "endCol": 24,
            "startCol": 17
          }
        }
      ],
      "source": null,
      "text": "        .long   .LASF44"
    },
    {
      "labels": [],
      "source": null,
      "text": "        .byte   0x8"
    },
    {
      "labels": [],
      "source": null,
      "text": "        .byte   0x59"
    },
    {
      "labels": [],
      "source": null,
      "text": "        .byte   0xd"
    },
    {
      "labels": [],
      "source": null,
      "text": "        .long   0x81"
    },
    {
      "labels": [],
      "source": null,
      "text": "        .byte   0x90"
    },
    {
      "labels": [],
      "source": null,
      "text": "        .uleb128 0x4"
    },
    {
      "labels": [
        {
          "name": ".LASF45",
          "range": {
            "endCol": 24,
            "startCol": 17
          }
        }
      ],
      "source": null,
      "text": "        .long   .LASF45"
    },
    {
      "labels": [],
      "source": null,
      "text": "        .byte   0x8"
    },
    {
      "labels": [],
      "source": null,
      "text": "        .byte   0x5b"
    },
    {
      "labels": [],
      "source": null,
      "text": "        .byte   0x17"
    },
    {
      "labels": [],
      "source": null,
      "text": "        .long   0x2fc"
    },
    {
      "labels": [],
      "source": null,
      "text": "        .byte   0x98"
    },
    {
      "labels": [],
      "source": null,
      "text": "        .uleb128 0x4"
    },
    {
      "labels": [
        {
          "name": ".LASF46",
          "range": {
            "endCol": 24,
            "startCol": 17
          }
        }
      ],
      "source": null,
      "text": "        .long   .LASF46"
    },
    {
      "labels": [],
      "source": null,
      "text": "        .byte   0x8"
    },
    {
      "labels": [],
      "source": null,
      "text": "        .byte   0x5c"
    },
    {
      "labels": [],
      "source": null,
      "text": "        .byte   0x19"
    },
    {
      "labels": [],
      "source": null,
      "text": "        .long   0x306"
    },
    {
      "labels": [],
      "source": null,
      "text": "        .byte   0xa0"
    },
    {
      "labels": [],
      "source": null,
      "text": "        .uleb128 0x4"
    },
    {
      "labels": [
        {
          "name": ".LASF47",
          "range": {
            "endCol": 24,
            "startCol": 17
          }
        }
      ],
      "source": null,
      "text": "        .long   .LASF47"
    },
    {
      "labels": [],
      "source": null,
      "text": "        .byte   0x8"
    },
    {
      "labels": [],
      "source": null,
      "text": "        .byte   0x5d"
    },
    {
      "labels": [],
      "source": null,
      "text": "        .byte   0x14"
    },
    {
      "labels": [],
      "source": null,
      "text": "        .long   0x2dd"
    },
    {
      "labels": [],
      "source": null,
      "text": "        .byte   0xa8"
    },
    {
      "labels": [],
      "source": null,
      "text": "        .uleb128 0x4"
    },
    {
      "labels": [
        {
          "name": ".LASF48",
          "range": {
            "endCol": 24,
            "startCol": 17
          }
        }
      ],
      "source": null,
      "text": "        .long   .LASF48"
    },
    {
      "labels": [],
      "source": null,
      "text": "        .byte   0x8"
    },
    {
      "labels": [],
      "source": null,
      "text": "        .byte   0x5e"
    },
    {
      "labels": [],
      "source": null,
      "text": "        .byte   0x9"
    },
    {
      "labels": [],
      "source": null,
      "text": "        .long   0x44"
    },
    {
      "labels": [],
      "source": null,
      "text": "        .byte   0xb0"
    },
    {
      "labels": [],
      "source": null,
      "text": "        .uleb128 0x4"
    },
    {
      "labels": [
        {
          "name": ".LASF49",
          "range": {
            "endCol": 24,
            "startCol": 17
          }
        }
      ],
      "source": null,
      "text": "        .long   .LASF49"
    },
    {
      "labels": [],
      "source": null,
      "text": "        .byte   0x8"
    },
    {
      "labels": [],
      "source": null,
      "text": "        .byte   0x5f"
    },
    {
      "labels": [],
      "source": null,
      "text": "        .byte   0xa"
    },
    {
      "labels": [],
      "source": null,
      "text": "        .long   0x2a"
    },
    {
      "labels": [],
      "source": null,
      "text": "        .byte   0xb8"
    },
    {
      "labels": [],
      "source": null,
      "text": "        .uleb128 0x4"
    },
    {
      "labels": [
        {
          "name": ".LASF50",
          "range": {
            "endCol": 24,
            "startCol": 17
          }
        }
      ],
      "source": null,
      "text": "        .long   .LASF50"
    },
    {
      "labels": [],
      "source": null,
      "text": "        .byte   0x8"
    },
    {
      "labels": [],
      "source": null,
      "text": "        .byte   0x60"
    },
    {
      "labels": [],
      "source": null,
      "text": "        .byte   0x7"
    },
    {
      "labels": [],
      "source": null,
      "text": "        .long   0x62"
    },
    {
      "labels": [],
      "source": null,
      "text": "        .byte   0xc0"
    },
    {
      "labels": [],
      "source": null,
      "text": "        .uleb128 0x4"
    },
    {
      "labels": [
        {
          "name": ".LASF51",
          "range": {
            "endCol": 24,
            "startCol": 17
          }
        }
      ],
      "source": null,
      "text": "        .long   .LASF51"
    },
    {
      "labels": [],
      "source": null,
      "text": "        .byte   0x8"
    },
    {
      "labels": [],
      "source": null,
      "text": "        .byte   0x62"
    },
    {
      "labels": [],
      "source": null,
      "text": "        .byte   0x8"
    },
    {
      "labels": [],
      "source": null,
      "text": "        .long   0x30b"
    },
    {
      "labels": [],
      "source": null,
      "text": "        .byte   0xc4"
    },
    {
      "labels": [],
      "source": null,
      "text": "        .byte   0"
    },
    {
      "labels": [],
      "source": null,
      "text": "        .uleb128 0xe"
    },
    {
      "labels": [
        {
          "name": ".LASF52",
          "range": {
            "endCol": 24,
            "startCol": 17
          }
        }
      ],
      "source": null,
      "text": "        .long   .LASF52"
    },
    {
      "labels": [],
      "source": null,
      "text": "        .byte   0x9"
    },
    {
      "labels": [],
      "source": null,
      "text": "        .byte   0x7"
    },
    {
      "labels": [],
      "source": null,
      "text": "        .byte   0x19"
    },
    {
      "labels": [],
      "source": null,
      "text": "        .long   0x138"
    },
    {
      "labels": [],
      "source": null,
      "text": "        .uleb128 0x4c"
    },
    {
      "labels": [
        {
          "name": ".LASF251",
          "range": {
            "endCol": 25,
            "startCol": 17
          }
        }
      ],
      "source": null,
      "text": "        .long   .LASF251"
    },
    {
      "labels": [],
      "source": null,
      "text": "        .byte   0x8"
    },
    {
      "labels": [],
      "source": null,
      "text": "        .byte   0x2b"
    },
    {
      "labels": [],
      "source": null,
      "text": "        .byte   0xe"
    },
    {
      "labels": [],
      "source": null,
      "text": "        .uleb128 0x2a"
    },
    {
      "labels": [
        {
          "name": ".LASF53",
          "range": {
            "endCol": 24,
            "startCol": 17
          }
        }
      ],
      "source": null,
      "text": "        .long   .LASF53"
    },
    {
      "labels": [],
      "source": null,
      "text": "        .uleb128 0x6"
    },
    {
      "labels": [],
      "source": null,
      "text": "        .long   0x2d3"
    },
    {
      "labels": [],
      "source": null,
      "text": "        .uleb128 0x6"
    },
    {
      "labels": [],
      "source": null,
      "text": "        .long   0x138"
    },
    {
      "labels": [],
      "source": null,
      "text": "        .uleb128 0x23"
    },
    {
      "labels": [],
      "source": null,
      "text": "        .long   0x92"
    },
    {
      "labels": [],
      "source": null,
      "text": "        .long   0x2f2"
    },
    {
      "labels": [],
      "source": null,
      "text": "        .uleb128 0x24"
    },
    {
      "labels": [],
      "source": null,
      "text": "        .long   0x36"
    },
    {
      "labels": [],
      "source": null,
      "text": "        .byte   0"
    },
    {
      "labels": [],
      "source": null,
      "text": "        .byte   0"
    },
    {
      "labels": [],
      "source": null,
      "text": "        .uleb128 0x6"
    },
    {
      "labels": [],
      "source": null,
      "text": "        .long   0x2cb"
    },
    {
      "labels": [],
      "source": null,
      "text": "        .uleb128 0x2a"
    },
    {
      "labels": [
        {
          "name": ".LASF54",
          "range": {
            "endCol": 24,
            "startCol": 17
          }
        }
      ],
      "source": null,
      "text": "        .long   .LASF54"
    },
    {
      "labels": [],
      "source": null,
      "text": "        .uleb128 0x6"
    },
    {
      "labels": [],
      "source": null,
      "text": "        .long   0x2f7"
    },
    {
      "labels": [],
      "source": null,
      "text": "        .uleb128 0x2a"
    },
    {
      "labels": [
        {
          "name": ".LASF55",
          "range": {
            "endCol": 24,
            "startCol": 17
          }
        }
      ],
      "source": null,
      "text": "        .long   .LASF55"
    },
    {
      "labels": [],
      "source": null,
      "text": "        .uleb128 0x6"
    },
    {
      "labels": [],
      "source": null,
      "text": "        .long   0x301"
    },
    {
      "labels": [],
      "source": null,
      "text": "        .uleb128 0x23"
    },
    {
      "labels": [],
      "source": null,
      "text": "        .long   0x92"
    },
    {
      "labels": [],
      "source": null,
      "text": "        .long   0x31b"
    },
    {
      "labels": [],
      "source": null,
      "text": "        .uleb128 0x24"
    },
    {
      "labels": [],
      "source": null,
      "text": "        .long   0x36"
    },
    {
      "labels": [],
      "source": null,
      "text": "        .byte   0x13"
    },
    {
      "labels": [],
      "source": null,
      "text": "        .byte   0"
    },
    {
      "labels": [],
      "source": null,
      "text": "        .uleb128 0x6"
    },
    {
      "labels": [],
      "source": null,
      "text": "        .long   0x99"
    },
    {
      "labels": [],
      "source": null,
      "text": "        .uleb128 0xe"
    },
    {
      "labels": [
        {
          "name": ".LASF56",
          "range": {
            "endCol": 24,
            "startCol": 17
          }
        }
      ],
      "source": null,
      "text": "        .long   .LASF56"
    },
    {
      "labels": [],
      "source": null,
      "text": "        .byte   0xa"
    },
    {
      "labels": [],
      "source": null,
      "text": "        .byte   0x54"
    },
    {
      "labels": [],
      "source": null,
      "text": "        .byte   0x12"
    },
    {
      "labels": [],
      "source": null,
      "text": "        .long   0x12c"
    },
    {
      "labels": [],
      "source": null,
      "text": "        .uleb128 0x8"
    },
    {
      "labels": [],
      "source": null,
      "text": "        .long   0x320"
    },
    {
      "labels": [],
      "source": null,
      "text": "        .uleb128 0x6"
    },
    {
      "labels": [],
      "source": null,
      "text": "        .long   0x2bf"
    },
    {
      "labels": [],
      "source": null,
      "text": "        .uleb128 0x8"
    },
    {
      "labels": [],
      "source": null,
      "text": "        .long   0x331"
    },
    {
      "labels": [],
      "source": null,
      "text": "        .uleb128 0x4d"
    },
    {
      "labels": [
        {
          "name": "std",
          "range": {
            "endCol": 21,
            "startCol": 18
          }
        }
      ],
      "source": null,
      "text": "        .string \"std\""
    },
    {
      "labels": [],
      "source": null,
      "text": "        .byte   0xd"
    },
    {
      "labels": [],
      "source": null,
      "text": "        .value  0x128"
    },
    {
      "labels": [],
      "source": null,
      "text": "        .byte   0xb"
    },
    {
      "labels": [],
      "source": null,
      "text": "        .long   0xc60"
    },
    {
      "labels": [],
      "source": null,
      "text": "        .uleb128 0x2"
    },
    {
      "labels": [],
      "source": null,
      "text": "        .byte   0xb"
    },
    {
      "labels": [],
      "source": null,
      "text": "        .byte   0x62"
    },
    {
      "labels": [],
      "source": null,
      "text": "        .byte   0xb"
    },
    {
      "labels": [],
      "source": null,
      "text": "        .long   0x2bf"
    },
    {
      "labels": [],
      "source": null,
      "text": "        .uleb128 0x2"
    },
    {
      "labels": [],
      "source": null,
      "text": "        .byte   0xb"
    },
    {
      "labels": [],
      "source": null,
      "text": "        .byte   0x63"
    },
    {
      "labels": [],
      "source": null,
      "text": "        .byte   0xb"
    },
    {
      "labels": [],
      "source": null,
      "text": "        .long   0x320"
    },
    {
      "labels": [],
      "source": null,
      "text": "        .uleb128 0x2"
    },
    {
      "labels": [],
      "source": null,
      "text": "        .byte   0xb"
    },
    {
      "labels": [],
      "source": null,
      "text": "        .byte   0x65"
    },
    {
      "labels": [],
      "source": null,
      "text": "        .byte   0xb"
    },
    {
      "labels": [],
      "source": null,
      "text": "        .long   0xc60"
    },
    {
      "labels": [],
      "source": null,
      "text": "        .uleb128 0x2"
    },
    {
      "labels": [],
      "source": null,
      "text": "        .byte   0xb"
    },
    {
      "labels": [],
      "source": null,
      "text": "        .byte   0x66"
    },
    {
      "labels": [],
      "source": null,
      "text": "        .byte   0xb"
    },
    {
      "labels": [],
      "source": null,
      "text": "        .long   0xc72"
    },
    {
      "labels": [],
      "source": null,
      "text": "        .uleb128 0x2"
    },
    {
      "labels": [],
      "source": null,
      "text": "        .byte   0xb"
    },
    {
      "labels": [],
      "source": null,
      "text": "        .byte   0x67"
    },
    {
      "labels": [],
      "source": null,
      "text": "        .byte   0xb"
    },
    {
      "labels": [],
      "source": null,
      "text": "        .long   0xc88"
    },
    {
      "labels": [],
      "source": null,
      "text": "        .uleb128 0x2"
    },
    {
      "labels": [],
      "source": null,
      "text": "        .byte   0xb"
    },
    {
      "labels": [],
      "source": null,
      "text": "        .byte   0x68"
    },
    {
      "labels": [],
      "source": null,
      "text": "        .byte   0xb"
    },
    {
      "labels": [],
      "source": null,
      "text": "        .long   0xc9f"
    },
    {
      "labels": [],
      "source": null,
      "text": "        .uleb128 0x2"
    },
    {
      "labels": [],
      "source": null,
      "text": "        .byte   0xb"
    },
    {
      "labels": [],
      "source": null,
      "text": "        .byte   0x69"
    },
    {
      "labels": [],
      "source": null,
      "text": "        .byte   0xb"
    },
    {
      "labels": [],
      "source": null,
      "text": "        .long   0xcb6"
    },
    {
      "labels": [],
      "source": null,
      "text": "        .uleb128 0x2"
    },
    {
      "labels": [],
      "source": null,
      "text": "        .byte   0xb"
    },
    {
      "labels": [],
      "source": null,
      "text": "        .byte   0x6a"
    },
    {
      "labels": [],
      "source": null,
      "text": "        .byte   0xb"
    },
    {
      "labels": [],
      "source": null,
      "text": "        .long   0xccc"
    },
    {
      "labels": [],
      "source": null,
      "text": "        .uleb128 0x2"
    },
    {
      "labels": [],
      "source": null,
      "text": "        .byte   0xb"
    },
    {
      "labels": [],
      "source": null,
      "text": "        .byte   0x6b"
    },
    {
      "labels": [],
      "source": null,
      "text": "        .byte   0xb"
    },
    {
      "labels": [],
      "source": null,
      "text": "        .long   0xce3"
    },
    {
      "labels": [],
      "source": null,
      "text": "        .uleb128 0x2"
    },
    {
      "labels": [],
      "source": null,
      "text": "        .byte   0xb"
    },
    {
      "labels": [],
      "source": null,
      "text": "        .byte   0x6c"
    },
    {
      "labels": [],
      "source": null,
      "text": "        .byte   0xb"
    },
    {
      "labels": [],
      "source": null,
      "text": "        .long   0xd04"
    },
    {
      "labels": [],
      "source": null,
      "text": "        .uleb128 0x2"
    },
    {
      "labels": [],
      "source": null,
      "text": "        .byte   0xb"
    },
    {
      "labels": [],
      "source": null,
      "text": "        .byte   0x6d"
    },
    {
      "labels": [],
      "source": null,
      "text": "        .byte   0xb"
    },
    {
      "labels": [],
      "source": null,
      "text": "        .long   0xd25"
    },
    {
      "labels": [],
      "source": null,
      "text": "        .uleb128 0x2"
    },
    {
      "labels": [],
      "source": null,
      "text": "        .byte   0xb"
    },
    {
      "labels": [],
      "source": null,
      "text": "        .byte   0x71"
    },
    {
      "labels": [],
      "source": null,
      "text": "        .byte   0xb"
    },
    {
      "labels": [],
      "source": null,
      "text": "        .long   0xd40"
    },
    {
      "labels": [],
      "source": null,
      "text": "        .uleb128 0x2"
    },
    {
      "labels": [],
      "source": null,
      "text": "        .byte   0xb"
    },
    {
      "labels": [],
      "source": null,
      "text": "        .byte   0x72"
    },
    {
      "labels": [],
      "source": null,
      "text": "        .byte   0xb"
    },
    {
      "labels": [],
      "source": null,
      "text": "        .long   0xd66"
    },
    {
      "labels": [],
      "source": null,
      "text": "        .uleb128 0x2"
    },
    {
      "labels": [],
      "source": null,
      "text": "        .byte   0xb"
    },
    {
      "labels": [],
      "source": null,
      "text": "        .byte   0x74"
    },
    {
      "labels": [],
      "source": null,
      "text": "        .byte   0xb"
    },
    {
      "labels": [],
      "source": null,
      "text": "        .long   0xd86"
    },
    {
      "labels": [],
      "source": null,
      "text": "        .uleb128 0x2"
    },
    {
      "labels": [],
      "source": null,
      "text": "        .byte   0xb"
    },
    {
      "labels": [],
      "source": null,
      "text": "        .byte   0x75"
    },
    {
      "labels": [],
      "source": null,
      "text": "        .byte   0xb"
    },
    {
      "labels": [],
      "source": null,
      "text": "        .long   0xda7"
    },
    {
      "labels": [],
      "source": null,
      "text": "        .uleb128 0x2"
    },
    {
      "labels": [],
      "source": null,
      "text": "        .byte   0xb"
    },
    {
      "labels": [],
      "source": null,
      "text": "        .byte   0x76"
    },
    {
      "labels": [],
      "source": null,
      "text": "        .byte   0xb"
    },
    {
      "labels": [],
      "source": null,
      "text": "        .long   0xdc8"
    },
    {
      "labels": [],
      "source": null,
      "text": "        .uleb128 0x2"
    },
    {
      "labels": [],
      "source": null,
      "text": "        .byte   0xb"
    },
    {
      "labels": [],
      "source": null,
      "text": "        .byte   0x78"
    },
    {
      "labels": [],
      "source": null,
      "text": "        .byte   0xb"
    },
    {
      "labels": [],
      "source": null,
      "text": "        .long   0xddf"
    },
    {
      "labels": [],
      "source": null,
      "text": "        .uleb128 0x2"
    },
    {
      "labels": [],
      "source": null,
      "text": "        .byte   0xb"
    },
    {
      "labels": [],
      "source": null,
      "text": "        .byte   0x79"
    },
    {
      "labels": [],
      "source": null,
      "text": "        .byte   0xb"
    },
    {
      "labels": [],
      "source": null,
      "text": "        .long   0xdf6"
    },
    {
      "labels": [],
      "source": null,
      "text": "        .uleb128 0x2"
    },
    {
      "labels": [],
      "source": null,
      "text": "        .byte   0xb"
    },
    {
      "labels": [],
      "source": null,
      "text": "        .byte   0x7e"
    },
    {
      "labels": [],
      "source": null,
      "text": "        .byte   0xb"
    },
    {
      "labels": [],
      "source": null,
      "text": "        .long   0xe02"
    },
    {
      "labels": [],
      "source": null,
      "text": "        .uleb128 0x2"
    },
    {
      "labels": [],
      "source": null,
      "text": "        .byte   0xb"
    },
    {
      "labels": [],
      "source": null,
      "text": "        .byte   0x83"
    },
    {
      "labels": [],
      "source": null,
      "text": "        .byte   0xb"
    },
    {
      "labels": [],
      "source": null,
      "text": "        .long   0xe14"
    },
    {
      "labels": [],
      "source": null,
      "text": "        .uleb128 0x2"
    },
    {
      "labels": [],
      "source": null,
      "text": "        .byte   0xb"
    },
    {
      "labels": [],
      "source": null,
      "text": "        .byte   0x84"
    },
    {
      "labels": [],
      "source": null,
      "text": "        .byte   0xb"
    },
    {
      "labels": [],
      "source": null,
      "text": "        .long   0xe2a"
    },
    {
      "labels": [],
      "source": null,
      "text": "        .uleb128 0x2"
    },
    {
      "labels": [],
      "source": null,
      "text": "        .byte   0xb"
    },
    {
      "labels": [],
      "source": null,
      "text": "        .byte   0x85"
    },
    {
      "labels": [],
      "source": null,
      "text": "        .byte   0xb"
    },
    {
      "labels": [],
      "source": null,
      "text": "        .long   0xe45"
    },
    {
      "labels": [],
      "source": null,
      "text": "        .uleb128 0x2"
    },
    {
      "labels": [],
      "source": null,
      "text": "        .byte   0xb"
    },
    {
      "labels": [],
      "source": null,
      "text": "        .byte   0x87"
    },
    {
      "labels": [],
      "source": null,
      "text": "        .byte   0xb"
    },
    {
      "labels": [],
      "source": null,
      "text": "        .long   0xe57"
    },
    {
      "labels": [],
      "source": null,
      "text": "        .uleb128 0x2"
    },
    {
      "labels": [],
      "source": null,
      "text": "        .byte   0xb"
    },
    {
      "labels": [],
      "source": null,
      "text": "        .byte   0x88"
    },
    {
      "labels": [],
      "source": null,
      "text": "        .byte   0xb"
    },
    {
      "labels": [],
      "source": null,
      "text": "        .long   0xe6e"
    },
    {
      "labels": [],
      "source": null,
      "text": "        .uleb128 0x2"
    },
    {
      "labels": [],
      "source": null,
      "text": "        .byte   0xb"
    },
    {
      "labels": [],
      "source": null,
      "text": "        .byte   0x8b"
    },
    {
      "labels": [],
      "source": null,
      "text": "        .byte   0xb"
    },
    {
      "labels": [],
      "source": null,
      "text": "        .long   0xe94"
    },
    {
      "labels": [],
      "source": null,
      "text": "        .uleb128 0x2"
    },
    {
      "labels": [],
      "source": null,
      "text": "        .byte   0xb"
    },
    {
      "labels": [],
      "source": null,
      "text": "        .byte   0x8d"
    },
    {
      "labels": [],
      "source": null,
      "text": "        .byte   0xb"
    },
    {
      "labels": [],
      "source": null,
      "text": "        .long   0xea0"
    },
    {
      "labels": [],
      "source": null,
      "text": "        .uleb128 0x2"
    },
    {
      "labels": [],
      "source": null,
      "text": "        .byte   0xb"
    },
    {
      "labels": [],
      "source": null,
      "text": "        .byte   0x8f"
    },
    {
      "labels": [],
      "source": null,
      "text": "        .byte   0xb"
    },
    {
      "labels": [],
      "source": null,
      "text": "        .long   0xeb6"
    },
    {
      "labels": [],
      "source": null,
      "text": "        .uleb128 0x1b"
    },
    {
      "labels": [
        {
          "name": ".LASF57",
          "range": {
            "endCol": 24,
            "startCol": 17
          }
        }
      ],
      "source": null,
      "text": "        .long   .LASF57"
    },
    {
      "labels": [],
      "source": null,
      "text": "        .byte   0x1"
    },
    {
      "labels": [],
      "source": null,
      "text": "        .byte   0xc"
    },
    {
      "labels": [],
      "source": null,
      "text": "        .byte   0x3e"
    },
    {
      "labels": [],
      "source": null,
      "text": "        .byte   0xc"
    },
    {
      "labels": [],
      "source": null,
      "text": "        .long   0x489"
    },
    {
      "labels": [],
      "source": null,
      "text": "        .uleb128 0xe"
    },
    {
      "labels": [
        {
          "name": ".LASF58",
          "range": {
            "endCol": 24,
            "startCol": 17
          }
        }
      ],
      "source": null,
      "text": "        .long   .LASF58"
    },
    {
      "labels": [],
      "source": null,
      "text": "        .byte   0xc"
    },
    {
      "labels": [],
      "source": null,
      "text": "        .byte   0x41"
    },
    {
      "labels": [],
      "source": null,
      "text": "        .byte   0x2d"
    },
    {
      "labels": [],
      "source": null,
      "text": "        .long   0xed2"
    },
    {
      "labels": [],
      "source": null,
      "text": "        .uleb128 0x17"
    },
    {
      "labels": [
        {
          "name": ".LASF59",
          "range": {
            "endCol": 24,
            "startCol": 17
          }
        }
      ],
      "source": null,
      "text": "        .long   .LASF59"
    },
    {
      "labels": [],
      "source": null,
      "text": "        .byte   0xc"
    },
    {
      "labels": [],
      "source": null,
      "text": "        .byte   0x43"
    },
    {
      "labels": [],
      "source": null,
      "text": "        .byte   0x11"
    },
    {
      "labels": [
        {
          "name": ".LASF61",
          "range": {
            "endCol": 24,
            "startCol": 17
          }
        }
      ],
      "source": null,
      "text": "        .long   .LASF61"
    },
    {
      "labels": [],
      "source": null,
      "text": "        .long   0x42d"
    },
    {
      "labels": [],
      "source": null,
      "text": "        .long   0x451"
    },
    {
      "labels": [],
      "source": null,
      "text": "        .long   0x457"
    },
    {
      "labels": [],
      "source": null,
      "text": "        .uleb128 0x5"
    },
    {
      "labels": [],
      "source": null,
      "text": "        .long   0xede"
    },
    {
      "labels": [],
      "source": null,
      "text": "        .byte   0"
    },
    {
      "labels": [],
      "source": null,
      "text": "        .uleb128 0x17"
    },
    {
      "labels": [
        {
          "name": ".LASF60",
          "range": {
            "endCol": 24,
            "startCol": 17
          }
        }
      ],
      "source": null,
      "text": "        .long   .LASF60"
    },
    {
      "labels": [],
      "source": null,
      "text": "        .byte   0xc"
    },
    {
      "labels": [],
      "source": null,
      "text": "        .byte   0x48"
    },
    {
      "labels": [],
      "source": null,
      "text": "        .byte   0x1c"
    },
    {
      "labels": [
        {
          "name": ".LASF62",
          "range": {
            "endCol": 24,
            "startCol": 17
          }
        }
      ],
      "source": null,
      "text": "        .long   .LASF62"
    },
    {
      "labels": [],
      "source": null,
      "text": "        .long   0x42d"
    },
    {
      "labels": [],
      "source": null,
      "text": "        .long   0x46f"
    },
    {
      "labels": [],
      "source": null,
      "text": "        .long   0x475"
    },
    {
      "labels": [],
      "source": null,
      "text": "        .uleb128 0x5"
    },
    {
      "labels": [],
      "source": null,
      "text": "        .long   0xede"
    },
    {
      "labels": [],
      "source": null,
      "text": "        .byte   0"
    },
    {
      "labels": [],
      "source": null,
      "text": "        .uleb128 0x9"
    },
    {
      "labels": [],
      "source": null,
      "text": "        .string \"_Tp\""
    },
    {
      "labels": [],
      "source": null,
      "text": "        .long   0xed2"
    },
    {
      "labels": [],
      "source": null,
      "text": "        .uleb128 0x35"
    },
    {
      "labels": [],
      "source": null,
      "text": "        .string \"__v\""
    },
    {
      "labels": [],
      "source": null,
      "text": "        .long   0xed2"
    },
    {
      "labels": [],
      "source": null,
      "text": "        .byte   0"
    },
    {
      "labels": [],
      "source": null,
      "text": "        .byte   0"
    },
    {
      "labels": [],
      "source": null,
      "text": "        .uleb128 0x8"
    },
    {
      "labels": [],
      "source": null,
      "text": "        .long   0x420"
    },
    {
      "labels": [],
      "source": null,
      "text": "        .uleb128 0x1b"
    },
    {
      "labels": [
        {
          "name": ".LASF63",
          "range": {
            "endCol": 24,
            "startCol": 17
          }
        }
      ],
      "source": null,
      "text": "        .long   .LASF63"
    },
    {
      "labels": [],
      "source": null,
      "text": "        .byte   0x1"
    },
    {
      "labels": [],
      "source": null,
      "text": "        .byte   0xc"
    },
    {
      "labels": [],
      "source": null,
      "text": "        .byte   0x3e"
    },
    {
      "labels": [],
      "source": null,
      "text": "        .byte   0xc"
    },
    {
      "labels": [],
      "source": null,
      "text": "        .long   0x4f7"
    },
    {
      "labels": [],
      "source": null,
      "text": "        .uleb128 0xe"
    },
    {
      "labels": [
        {
          "name": ".LASF58",
          "range": {
            "endCol": 24,
            "startCol": 17
          }
        }
      ],
      "source": null,
      "text": "        .long   .LASF58"
    },
    {
      "labels": [],
      "source": null,
      "text": "        .byte   0xc"
    },
    {
      "labels": [],
      "source": null,
      "text": "        .byte   0x41"
    },
    {
      "labels": [],
      "source": null,
      "text": "        .byte   0x2d"
    },
    {
      "labels": [],
      "source": null,
      "text": "        .long   0xed2"
    },
    {
      "labels": [],
      "source": null,
      "text": "        .uleb128 0x17"
    },
    {
      "labels": [
        {
          "name": ".LASF64",
          "range": {
            "endCol": 24,
            "startCol": 17
          }
        }
      ],
      "source": null,
      "text": "        .long   .LASF64"
    },
    {
      "labels": [],
      "source": null,
      "text": "        .byte   0xc"
    },
    {
      "labels": [],
      "source": null,
      "text": "        .byte   0x43"
    },
    {
      "labels": [],
      "source": null,
      "text": "        .byte   0x11"
    },
    {
      "labels": [
        {
          "name": ".LASF65",
          "range": {
            "endCol": 24,
            "startCol": 17
          }
        }
      ],
      "source": null,
      "text": "        .long   .LASF65"
    },
    {
      "labels": [],
      "source": null,
      "text": "        .long   0x49b"
    },
    {
      "labels": [],
      "source": null,
      "text": "        .long   0x4bf"
    },
    {
      "labels": [],
      "source": null,
      "text": "        .long   0x4c5"
    },
    {
      "labels": [],
      "source": null,
      "text": "        .uleb128 0x5"
    },
    {
      "labels": [],
      "source": null,
      "text": "        .long   0xee3"
    },
    {
      "labels": [],
      "source": null,
      "text": "        .byte   0"
    },
    {
      "labels": [],
      "source": null,
      "text": "        .uleb128 0x17"
    },
    {
      "labels": [
        {
          "name": ".LASF60",
          "range": {
            "endCol": 24,
            "startCol": 17
          }
        }
      ],
      "source": null,
      "text": "        .long   .LASF60"
    },
    {
      "labels": [],
      "source": null,
      "text": "        .byte   0xc"
    },
    {
      "labels": [],
      "source": null,
      "text": "        .byte   0x48"
    },
    {
      "labels": [],
      "source": null,
      "text": "        .byte   0x1c"
    },
    {
      "labels": [
        {
          "name": ".LASF66",
          "range": {
            "endCol": 24,
            "startCol": 17
          }
        }
      ],
      "source": null,
      "text": "        .long   .LASF66"
    },
    {
      "labels": [],
      "source": null,
      "text": "        .long   0x49b"
    },
    {
      "labels": [],
      "source": null,
      "text": "        .long   0x4dd"
    },
    {
      "labels": [],
      "source": null,
      "text": "        .long   0x4e3"
    },
    {
      "labels": [],
      "source": null,
      "text": "        .uleb128 0x5"
    },
    {
      "labels": [],
      "source": null,
      "text": "        .long   0xee3"
    },
    {
      "labels": [],
      "source": null,
      "text": "        .byte   0"
    },
    {
      "labels": [],
      "source": null,
      "text": "        .uleb128 0x9"
    },
    {
      "labels": [],
      "source": null,
      "text": "        .string \"_Tp\""
    },
    {
      "labels": [],
      "source": null,
      "text": "        .long   0xed2"
    },
    {
      "labels": [],
      "source": null,
      "text": "        .uleb128 0x35"
    },
    {
      "labels": [],
      "source": null,
      "text": "        .string \"__v\""
    },
    {
      "labels": [],
      "source": null,
      "text": "        .long   0xed2"
    },
    {
      "labels": [],
      "source": null,
      "text": "        .byte   0x1"
    },
    {
      "labels": [],
      "source": null,
      "text": "        .byte   0"
    },
    {
      "labels": [],
      "source": null,
      "text": "        .uleb128 0x8"
    },
    {
      "labels": [],
      "source": null,
      "text": "        .long   0x48e"
    },
    {
      "labels": [],
      "source": null,
      "text": "        .uleb128 0xe"
    },
    {
      "labels": [
        {
          "name": ".LASF67",
          "range": {
            "endCol": 24,
            "startCol": 17
          }
        }
      ],
      "source": null,
      "text": "        .long   .LASF67"
    },
    {
      "labels": [],
      "source": null,
      "text": "        .byte   0xc"
    },
    {
      "labels": [],
      "source": null,
      "text": "        .byte   0x55"
    },
    {
      "labels": [],
      "source": null,
      "text": "        .byte   0x9"
    },
    {
      "labels": [],
      "source": null,
      "text": "        .long   0x420"
    },
    {
      "labels": [],
      "source": null,
      "text": "        .uleb128 0x25"
    },
    {
      "labels": [
        {
          "name": ".LASF9",
          "range": {
            "endCol": 23,
            "startCol": 17
          }
        }
      ],
      "source": null,
      "text": "        .long   .LASF9"
    },
    {
      "labels": [],
      "source": null,
      "text": "        .byte   0xd"
    },
    {
      "labels": [],
      "source": null,
      "text": "        .value  0x12a"
    },
    {
      "labels": [],
      "source": null,
      "text": "        .byte   0x1a"
    },
    {
      "labels": [],
      "source": null,
      "text": "        .long   0x36"
    },
    {
      "labels": [],
      "source": null,
      "text": "        .uleb128 0x8"
    },
    {
      "labels": [],
      "source": null,
      "text": "        .long   0x508"
    },
    {
      "labels": [],
      "source": null,
      "text": "        .uleb128 0x4e"
    },
    {
      "labels": [
        {
          "name": ".LASF252",
          "range": {
            "endCol": 25,
            "startCol": 17
          }
        }
      ],
      "source": null,
      "text": "        .long   .LASF252"
    },
    {
      "labels": [],
      "source": null,
      "text": "        .byte   0x1"
    },
    {
      "labels": [],
      "source": null,
      "text": "        .byte   0xc"
    },
    {
      "labels": [],
      "source": null,
      "text": "        .value  0x96d"
    },
    {
      "labels": [],
      "source": null,
      "text": "        .byte   0xa"
    },
    {
      "labels": [],
      "source": null,
      "text": "        .uleb128 0x26"
    },
    {
      "labels": [
        {
          "name": ".LASF68",
          "range": {
            "endCol": 24,
            "startCol": 17
          }
        }
      ],
      "source": null,
      "text": "        .long   .LASF68"
    },
    {
      "labels": [],
      "source": null,
      "text": "        .byte   0xc"
    },
    {
      "labels": [],
      "source": null,
      "text": "        .value  0xa9f"
    },
    {
      "labels": [],
      "source": null,
      "text": "        .uleb128 0x26"
    },
    {
      "labels": [
        {
          "name": ".LASF69",
          "range": {
            "endCol": 24,
            "startCol": 17
          }
        }
      ],
      "source": null,
      "text": "        .long   .LASF69"
    },
    {
      "labels": [],
      "source": null,
      "text": "        .byte   0xc"
    },
    {
      "labels": [],
      "source": null,
      "text": "        .value  0xaf5"
    },
    {
      "labels": [],
      "source": null,
      "text": "        .uleb128 0x25"
    },
    {
      "labels": [
        {
          "name": ".LASF70",
          "range": {
            "endCol": 24,
            "startCol": 17
          }
        }
      ],
      "source": null,
      "text": "        .long   .LASF70"
    },
    {
      "labels": [],
      "source": null,
      "text": "        .byte   0xd"
    },
    {
      "labels": [],
      "source": null,
      "text": "        .value  0x12e"
    },
    {
      "labels": [],
      "source": null,
      "text": "        .byte   0x1d"
    },
    {
      "labels": [],
      "source": null,
      "text": "        .long   0xf2b"
    },
    {
      "labels": [],
      "source": null,
      "text": "        .uleb128 0x36"
    },
    {
      "labels": [
        {
          "name": ".LASF75",
          "range": {
            "endCol": 24,
            "startCol": 17
          }
        }
      ],
      "source": null,
      "text": "        .long   .LASF75"
    },
    {
      "labels": [],
      "source": null,
      "text": "        .byte   0x4b"
    },
    {
      "labels": [],
      "source": null,
      "text": "        .byte   0x9"
    },
    {
      "labels": [],
      "source": null,
      "text": "        .long   0x57d"
    },
    {
      "labels": [],
      "source": null,
      "text": "        .uleb128 0x14"
    },
    {
      "labels": [
        {
          "name": ".LASF71",
          "range": {
            "endCol": 24,
            "startCol": 17
          }
        }
      ],
      "source": null,
      "text": "        .long   .LASF71"
    },
    {
      "labels": [],
      "source": null,
      "text": "        .byte   0x1"
    },
    {
      "labels": [],
      "source": null,
      "text": "        .byte   0x4d"
    },
    {
      "labels": [],
      "source": null,
      "text": "        .byte   0x11"
    },
    {
      "labels": [],
      "source": null,
      "text": "        .long   0x44"
    },
    {
      "labels": [],
      "source": null,
      "text": "        .uleb128 0x14"
    },
    {
      "labels": [
        {
          "name": ".LASF72",
          "range": {
            "endCol": 24,
            "startCol": 17
          }
        }
      ],
      "source": null,
      "text": "        .long   .LASF72"
    },
    {
      "labels": [],
      "source": null,
      "text": "        .byte   0x1"
    },
    {
      "labels": [],
      "source": null,
      "text": "        .byte   0x4e"
    },
    {
      "labels": [],
      "source": null,
      "text": "        .byte   0x11"
    },
    {
      "labels": [],
      "source": null,
      "text": "        .long   0xf11"
    },
    {
      "labels": [],
      "source": null,
      "text": "        .uleb128 0x14"
    },
    {
      "labels": [
        {
          "name": ".LASF73",
          "range": {
            "endCol": 24,
            "startCol": 17
          }
        }
      ],
      "source": null,
      "text": "        .long   .LASF73"
    },
    {
      "labels": [],
      "source": null,
      "text": "        .byte   0x1"
    },
    {
      "labels": [],
      "source": null,
      "text": "        .byte   0x4f"
    },
    {
      "labels": [],
      "source": null,
      "text": "        .byte   0xc"
    },
    {
      "labels": [],
      "source": null,
      "text": "        .long   0xf31"
    },
    {
      "labels": [],
      "source": null,
      "text": "        .uleb128 0x14"
    },
    {
      "labels": [
        {
          "name": ".LASF74",
          "range": {
            "endCol": 24,
            "startCol": 17
          }
        }
      ],
      "source": null,
      "text": "        .long   .LASF74"
    },
    {
      "labels": [],
      "source": null,
      "text": "        .byte   0x1"
    },
    {
      "labels": [],
      "source": null,
      "text": "        .byte   0x50"
    },
    {
      "labels": [],
      "source": null,
      "text": "        .byte   0x1e"
    },
    {
      "labels": [],
      "source": null,
      "text": "        .long   0xf4a"
    },
    {
      "labels": [],
      "source": null,
      "text": "        .byte   0"
    },
    {
      "labels": [],
      "source": null,
      "text": "        .uleb128 0x37"
    },
    {
      "labels": [
        {
          "name": ".LASF134",
          "range": {
            "endCol": 25,
            "startCol": 17
          }
        }
      ],
      "source": null,
      "text": "        .long   .LASF134"
    },
    {
      "labels": [],
      "source": null,
      "text": "        .uleb128 0x36"
    },
    {
      "labels": [
        {
          "name": ".LASF76",
          "range": {
            "endCol": 24,
            "startCol": 17
          }
        }
      ],
      "source": null,
      "text": "        .long   .LASF76"
    },
    {
      "labels": [],
      "source": null,
      "text": "        .byte   0x53"
    },
    {
      "labels": [],
      "source": null,
      "text": "        .byte   0x1c"
    },
    {
      "labels": [],
      "source": null,
      "text": "        .long   0x668"
    },
    {
      "labels": [],
      "source": null,
      "text": "        .uleb128 0x17"
    },
    {
      "labels": [
        {
          "name": ".LASF77",
          "range": {
            "endCol": 24,
            "startCol": 17
          }
        }
      ],
      "source": null,
      "text": "        .long   .LASF77"
    },
    {
      "labels": [],
      "source": null,
      "text": "        .byte   0x1"
    },
    {
      "labels": [],
      "source": null,
      "text": "        .byte   0x55"
    },
    {
      "labels": [],
      "source": null,
      "text": "        .byte   0x11"
    },
    {
      "labels": [
        {
          "name": ".LASF78",
          "range": {
            "endCol": 24,
            "startCol": 17
          }
        }
      ],
      "source": null,
      "text": "        .long   .LASF78"
    },
    {
      "labels": [],
      "source": null,
      "text": "        .long   0x44"
    },
    {
      "labels": [],
      "source": null,
      "text": "        .long   0x5a5"
    },
    {
      "labels": [],
      "source": null,
      "text": "        .long   0x5ab"
    },
    {
      "labels": [],
      "source": null,
      "text": "        .uleb128 0x5"
    },
    {
      "labels": [],
      "source": null,
      "text": "        .long   0xf53"
    },
    {
      "labels": [],
      "source": null,
      "text": "        .byte   0"
    },
    {
      "labels": [],
      "source": null,
      "text": "        .uleb128 0x17"
    },
    {
      "labels": [
        {
          "name": ".LASF77",
          "range": {
            "endCol": 24,
            "startCol": 17
          }
        }
      ],
      "source": null,
      "text": "        .long   .LASF77"
    },
    {
      "labels": [],
      "source": null,
      "text": "        .byte   0x1"
    },
    {
      "labels": [],
      "source": null,
      "text": "        .byte   0x56"
    },
    {
      "labels": [],
      "source": null,
      "text": "        .byte   0x11"
    },
    {
      "labels": [
        {
          "name": ".LASF79",
          "range": {
            "endCol": 24,
            "startCol": 17
          }
        }
      ],
      "source": null,
      "text": "        .long   .LASF79"
    },
    {
      "labels": [],
      "source": null,
      "text": "        .long   0xf11"
    },
    {
      "labels": [],
      "source": null,
      "text": "        .long   0x5c3"
    },
    {
      "labels": [],
      "source": null,
      "text": "        .long   0x5c9"
    },
    {
      "labels": [],
      "source": null,
      "text": "        .uleb128 0x5"
    },
    {
      "labels": [],
      "source": null,
      "text": "        .long   0xf5d"
    },
    {
      "labels": [],
      "source": null,
      "text": "        .byte   0"
    },
    {
      "labels": [],
      "source": null,
      "text": "        .uleb128 0x14"
    },
    {
      "labels": [
        {
          "name": ".LASF80",
          "range": {
            "endCol": 24,
            "startCol": 17
          }
        }
      ],
      "source": null,
      "text": "        .long   .LASF80"
    },
    {
      "labels": [],
      "source": null,
      "text": "        .byte   0x1"
    },
    {
      "labels": [],
      "source": null,
      "text": "        .byte   0x62"
    },
    {
      "labels": [],
      "source": null,
      "text": "        .byte   0x13"
    },
    {
      "labels": [],
      "source": null,
      "text": "        .long   0x541"
    },
    {
      "labels": [],
      "source": null,
      "text": "        .uleb128 0x14"
    },
    {
      "labels": [
        {
          "name": ".LASF81",
          "range": {
            "endCol": 24,
            "startCol": 17
          }
        }
      ],
      "source": null,
      "text": "        .long   .LASF81"
    },
    {
      "labels": [],
      "source": null,
      "text": "        .byte   0x1"
    },
    {
      "labels": [],
      "source": null,
      "text": "        .byte   0x63"
    },
    {
      "labels": [],
      "source": null,
      "text": "        .byte   0xa"
    },
    {
      "labels": [],
      "source": null,
      "text": "        .long   0xf67"
    },
    {
      "labels": [],
      "source": null,
      "text": "        .uleb128 0x2b"
    },
    {
      "labels": [
        {
          "name": ".LASF82",
          "range": {
            "endCol": 24,
            "startCol": 17
          }
        }
      ],
      "source": null,
      "text": "        .long   .LASF82"
    },
    {
      "labels": [],
      "source": null,
      "text": "        .byte   0x5a"
    },
    {
      "labels": [],
      "source": null,
      "text": "        .long   0x14ab"
    },
    {
      "labels": [],
      "source": null,
      "text": "        .long   0x5fc"
    },
    {
      "labels": [],
      "source": null,
      "text": "        .long   0x602"
    },
    {
      "labels": [],
      "source": null,
      "text": "        .uleb128 0x9"
    },
    {
      "labels": [],
      "source": null,
      "text": "        .string \"_Tp\""
    },
    {
      "labels": [],
      "source": null,
      "text": "        .long   0x1939"
    },
    {
      "labels": [],
      "source": null,
      "text": "        .uleb128 0x5"
    },
    {
      "labels": [],
      "source": null,
      "text": "        .long   0xf53"
    },
    {
      "labels": [],
      "source": null,
      "text": "        .byte   0"
    },
    {
      "labels": [],
      "source": null,
      "text": "        .uleb128 0x2b"
    },
    {
      "labels": [
        {
          "name": ".LASF82",
          "range": {
            "endCol": 24,
            "startCol": 17
          }
        }
      ],
      "source": null,
      "text": "        .long   .LASF82"
    },
    {
      "labels": [],
      "source": null,
      "text": "        .byte   0x5f"
    },
    {
      "labels": [],
      "source": null,
      "text": "        .long   0x14db"
    },
    {
      "labels": [],
      "source": null,
      "text": "        .long   0x61d"
    },
    {
      "labels": [],
      "source": null,
      "text": "        .long   0x623"
    },
    {
      "labels": [],
      "source": null,
      "text": "        .uleb128 0x9"
    },
    {
      "labels": [],
      "source": null,
      "text": "        .string \"_Tp\""
    },
    {
      "labels": [],
      "source": null,
      "text": "        .long   0x1939"
    },
    {
      "labels": [],
      "source": null,
      "text": "        .uleb128 0x5"
    },
    {
      "labels": [],
      "source": null,
      "text": "        .long   0xf5d"
    },
    {
      "labels": [],
      "source": null,
      "text": "        .byte   0"
    },
    {
      "labels": [],
      "source": null,
      "text": "        .uleb128 0x2b"
    },
    {
      "labels": [
        {
          "name": ".LASF83",
          "range": {
            "endCol": 24,
            "startCol": 17
          }
        }
      ],
      "source": null,
      "text": "        .long   .LASF83"
    },
    {
      "labels": [],
      "source": null,
      "text": "        .byte   0x5a"
    },
    {
      "labels": [],
      "source": null,
      "text": "        .long   0x15d6"
    },
    {
      "labels": [],
      "source": null,
      "text": "        .long   0x63e"
    },
    {
      "labels": [],
      "source": null,
      "text": "        .long   0x644"
    },
    {
      "labels": [],
      "source": null,
      "text": "        .uleb128 0x9"
    },
    {
      "labels": [],
      "source": null,
      "text": "        .string \"_Tp\""
    },
    {
      "labels": [],
      "source": null,
      "text": "        .long   0x14a1"
    },
    {
      "labels": [],
      "source": null,
      "text": "        .uleb128 0x5"
    },
    {
      "labels": [],
      "source": null,
      "text": "        .long   0xf53"
    },
    {
      "labels": [],
      "source": null,
      "text": "        .byte   0"
    },
    {
      "labels": [],
      "source": null,
      "text": "        .uleb128 0x4f"
    },
    {
      "labels": [
        {
          "name": ".LASF195",
          "range": {
            "endCol": 25,
            "startCol": 17
          }
        }
      ],
      "source": null,
      "text": "        .long   .LASF195"
    },
    {
      "labels": [],
      "source": null,
      "text": "        .byte   0x1"
    },
    {
      "labels": [],
      "source": null,
      "text": "        .byte   0x5a"
    },
    {
      "labels": [],
      "source": null,
      "text": "        .byte   0x7"
    },
    {
      "labels": [
        {
          "name": ".LASF246",
          "range": {
            "endCol": 25,
            "startCol": 17
          }
        }
      ],
      "source": null,
      "text": "        .long   .LASF246"
    },
    {
      "labels": [],
      "source": null,
      "text": "        .long   0x15fc"
    },
    {
      "labels": [],
      "source": null,
      "text": "        .long   0x661"
    },
    {
      "labels": [],
      "source": null,
      "text": "        .uleb128 0x9"
    },
    {
      "labels": [],
      "source": null,
      "text": "        .string \"_Tp\""
    },
    {
      "labels": [],
      "source": null,
      "text": "        .long   0x1601"
    },
    {
      "labels": [],
      "source": null,
      "text": "        .uleb128 0x5"
    },
    {
      "labels": [],
      "source": null,
      "text": "        .long   0xf53"
    },
    {
      "labels": [],
      "source": null,
      "text": "        .byte   0"
    },
    {
      "labels": [],
      "source": null,
      "text": "        .byte   0"
    },
    {
      "labels": [],
      "source": null,
      "text": "        .uleb128 0x8"
    },
    {
      "labels": [],
      "source": null,
      "text": "        .long   0x582"
    },
    {
      "labels": [],
      "source": null,
      "text": "        .uleb128 0x50"
    },
    {
      "labels": [
        {
          "name": ".LASF253",
          "range": {
            "endCol": 25,
            "startCol": 17
          }
        }
      ],
      "source": null,
      "text": "        .long   .LASF253"
    },
    {
      "labels": [],
      "source": null,
      "text": "        .byte   0x7"
    },
    {
      "labels": [],
      "source": null,
      "text": "        .byte   0x4"
    },
    {
      "labels": [],
      "source": null,
      "text": "        .long   0x3d"
    },
    {
      "labels": [],
      "source": null,
      "text": "        .byte   0x1"
    },
    {
      "labels": [],
      "source": null,
      "text": "        .byte   0x66"
    },
    {
      "labels": [],
      "source": null,
      "text": "        .byte   0x8"
    },
    {
      "labels": [],
      "source": null,
      "text": "        .long   0x698"
    },
    {
      "labels": [],
      "source": null,
      "text": "        .uleb128 0x27"
    },
    {
      "labels": [
        {
          "name": ".LASF84",
          "range": {
            "endCol": 24,
            "startCol": 17
          }
        }
      ],
      "source": null,
      "text": "        .long   .LASF84"
    },
    {
      "labels": [],
      "source": null,
      "text": "        .byte   0"
    },
    {
      "labels": [],
      "source": null,
      "text": "        .uleb128 0x27"
    },
    {
      "labels": [
        {
          "name": ".LASF85",
          "range": {
            "endCol": 24,
            "startCol": 17
          }
        }
      ],
      "source": null,
      "text": "        .long   .LASF85"
    },
    {
      "labels": [],
      "source": null,
      "text": "        .byte   0x1"
    },
    {
      "labels": [],
      "source": null,
      "text": "        .uleb128 0x27"
    },
    {
      "labels": [
        {
          "name": ".LASF86",
          "range": {
            "endCol": 24,
            "startCol": 17
          }
        }
      ],
      "source": null,
      "text": "        .long   .LASF86"
    },
    {
      "labels": [],
      "source": null,
      "text": "        .byte   0x2"
    },
    {
      "labels": [],
      "source": null,
      "text": "        .uleb128 0x27"
    },
    {
      "labels": [
        {
          "name": ".LASF87",
          "range": {
            "endCol": 24,
            "startCol": 17
          }
        }
      ],
      "source": null,
      "text": "        .long   .LASF87"
    },
    {
      "labels": [],
      "source": null,
      "text": "        .byte   0x3"
    },
    {
      "labels": [],
      "source": null,
      "text": "        .byte   0"
    },
    {
      "labels": [],
      "source": null,
      "text": "        .uleb128 0x38"
    },
    {
      "labels": [
        {
          "name": ".LASF94",
          "range": {
            "endCol": 24,
            "startCol": 17
          }
        }
      ],
      "source": null,
      "text": "        .long   .LASF94"
    },
    {
      "labels": [],
      "source": null,
      "text": "        .byte   0x18"
    },
    {
      "labels": [],
      "source": null,
      "text": "        .byte   0x1"
    },
    {
      "labels": [],
      "source": null,
      "text": "        .byte   0x72"
    },
    {
      "labels": [],
      "source": null,
      "text": "        .byte   0x9"
    },
    {
      "labels": [],
      "source": null,
      "text": "        .long   0x86f"
    },
    {
      "labels": [],
      "source": null,
      "text": "        .uleb128 0x39"
    },
    {
      "labels": [
        {
          "name": ".LASF88",
          "range": {
            "endCol": 24,
            "startCol": 17
          }
        }
      ],
      "source": null,
      "text": "        .long   .LASF88"
    },
    {
      "labels": [],
      "source": null,
      "text": "        .byte   0x75"
    },
    {
      "labels": [
        {
          "name": ".LASF90",
          "range": {
            "endCol": 24,
            "startCol": 17
          }
        }
      ],
      "source": null,
      "text": "        .long   .LASF90"
    },
    {
      "labels": [],
      "source": null,
      "text": "        .long   0x515"
    },
    {
      "labels": [],
      "source": null,
      "text": "        .byte   0x10"
    },
    {
      "labels": [],
      "source": null,
      "text": "        .uleb128 0x39"
    },
    {
      "labels": [
        {
          "name": ".LASF89",
          "range": {
            "endCol": 24,
            "startCol": 17
          }
        }
      ],
      "source": null,
      "text": "        .long   .LASF89"
    },
    {
      "labels": [],
      "source": null,
      "text": "        .byte   0x76"
    },
    {
      "labels": [
        {
          "name": ".LASF91",
          "range": {
            "endCol": 24,
            "startCol": 17
          }
        }
      ],
      "source": null,
      "text": "        .long   .LASF91"
    },
    {
      "labels": [],
      "source": null,
      "text": "        .long   0x515"
    },
    {
      "labels": [],
      "source": null,
      "text": "        .byte   0x8"
    },
    {
      "labels": [],
      "source": null,
      "text": "        .uleb128 0x51"
    },
    {
      "labels": [
        {
          "name": ".LASF94",
          "range": {
            "endCol": 24,
            "startCol": 17
          }
        }
      ],
      "source": null,
      "text": "        .long   .LASF94"
    },
    {
      "labels": [],
      "source": null,
      "text": "        .byte   0x1"
    },
    {
      "labels": [],
      "source": null,
      "text": "        .byte   0xef"
    },
    {
      "labels": [],
      "source": null,
      "text": "        .byte   0x5"
    },
    {
      "labels": [
        {
          "name": ".LASF96",
          "range": {
            "endCol": 24,
            "startCol": 17
          }
        }
      ],
      "source": null,
      "text": "        .long   .LASF96"
    },
    {
      "labels": [],
      "source": null,
      "text": "        .byte   0x1"
    },
    {
      "labels": [],
      "source": null,
      "text": "        .byte   0x1"
    },
    {
      "labels": [],
      "source": null,
      "text": "        .long   0x6d9"
    },
    {
      "labels": [],
      "source": null,
      "text": "        .long   0x6df"
    },
    {
      "labels": [],
      "source": null,
      "text": "        .uleb128 0x5"
    },
    {
      "labels": [],
      "source": null,
      "text": "        .long   0xf77"
    },
    {
      "labels": [],
      "source": null,
      "text": "        .byte   0"
    },
    {
      "labels": [],
      "source": null,
      "text": "        .uleb128 0x2c"
    },
    {
      "labels": [
        {
          "name": ".LASF92",
          "range": {
            "endCol": 24,
            "startCol": 17
          }
        }
      ],
      "source": null,
      "text": "        .long   .LASF92"
    },
    {
      "labels": [],
      "source": null,
      "text": "        .byte   0x1"
    },
    {
      "labels": [],
      "source": null,
      "text": "        .byte   0xf1"
    },
    {
      "labels": [
        {
          "name": ".LASF93",
          "range": {
            "endCol": 24,
            "startCol": 17
          }
        }
      ],
      "source": null,
      "text": "        .long   .LASF93"
    },
    {
      "labels": [],
      "source": null,
      "text": "        .long   0x6f2"
    },
    {
      "labels": [],
      "source": null,
      "text": "        .long   0x6fd"
    },
    {
      "labels": [],
      "source": null,
      "text": "        .uleb128 0x5"
    },
    {
      "labels": [],
      "source": null,
      "text": "        .long   0xf77"
    },
    {
      "labels": [],
      "source": null,
      "text": "        .uleb128 0x5"
    },
    {
      "labels": [],
      "source": null,
      "text": "        .long   0x62"
    },
    {
      "labels": [],
      "source": null,
      "text": "        .byte   0"
    },
    {
      "labels": [],
      "source": null,
      "text": "        .uleb128 0x52"
    },
    {
      "labels": [
        {
          "name": ".LASF95",
          "range": {
            "endCol": 24,
            "startCol": 17
          }
        }
      ],
      "source": null,
      "text": "        .long   .LASF95"
    },
    {
      "labels": [],
      "source": null,
      "text": "        .byte   0x1"
    },
    {
      "labels": [],
      "source": null,
      "text": "        .byte   0xf7"
    },
    {
      "labels": [],
      "source": null,
      "text": "        .byte   0xa"
    },
    {
      "labels": [
        {
          "name": ".LASF97",
          "range": {
            "endCol": 24,
            "startCol": 17
          }
        }
      ],
      "source": null,
      "text": "        .long   .LASF97"
    },
    {
      "labels": [],
      "source": null,
      "text": "        .long   0xed2"
    },
    {
      "labels": [],
      "source": null,
      "text": "        .byte   0x1"
    },
    {
      "labels": [],
      "source": null,
      "text": "        .long   0x716"
    },
    {
      "labels": [],
      "source": null,
      "text": "        .long   0x71c"
    },
    {
      "labels": [],
      "source": null,
      "text": "        .uleb128 0x5"
    },
    {
      "labels": [],
      "source": null,
      "text": "        .long   0xf81"
    },
    {
      "labels": [],
      "source": null,
      "text": "        .byte   0"
    },
    {
      "labels": [],
      "source": null,
      "text": "        .uleb128 0x2d"
    },
    {
      "labels": [
        {
          "name": ".LASF98",
          "range": {
            "endCol": 24,
            "startCol": 17
          }
        }
      ],
      "source": null,
      "text": "        .long   .LASF98"
    },
    {
      "labels": [],
      "source": null,
      "text": "        .byte   0x1"
    },
    {
      "labels": [],
      "source": null,
      "text": "        .byte   0xfc"
    },
    {
      "labels": [],
      "source": null,
      "text": "        .byte   0x13"
    },
    {
      "labels": [],
      "source": null,
      "text": "        .long   0x582"
    },
    {
      "labels": [],
      "source": null,
      "text": "        .byte   0"
    },
    {
      "labels": [],
      "source": null,
      "text": "        .uleb128 0x53"
    },
    {
      "labels": [
        {
          "name": ".LASF254",
          "range": {
            "endCol": 25,
            "startCol": 17
          }
        }
      ],
      "source": null,
      "text": "        .long   .LASF254"
    },
    {
      "labels": [],
      "source": null,
      "text": "        .byte   0x1"
    },
    {
      "labels": [],
      "source": null,
      "text": "        .byte   0xf9"
    },
    {
      "labels": [],
      "source": null,
      "text": "        .byte   0xb"
    },
    {
      "labels": [],
      "source": null,
      "text": "        .long   0xf8b"
    },
    {
      "labels": [],
      "source": null,
      "text": "        .byte   0x1"
    },
    {
      "labels": [],
      "source": null,
      "text": "        .uleb128 0x2d"
    },
    {
      "labels": [
        {
          "name": ".LASF99",
          "range": {
            "endCol": 24,
            "startCol": 17
          }
        }
      ],
      "source": null,
      "text": "        .long   .LASF99"
    },
    {
      "labels": [],
      "source": null,
      "text": "        .byte   0x1"
    },
    {
      "labels": [],
      "source": null,
      "text": "        .byte   0xfd"
    },
    {
      "labels": [],
      "source": null,
      "text": "        .byte   0x13"
    },
    {
      "labels": [],
      "source": null,
      "text": "        .long   0x729"
    },
    {
      "labels": [],
      "source": null,
      "text": "        .byte   0x10"
    },
    {
      "labels": [],
      "source": null,
      "text": "        .uleb128 0x54"
    },
    {
      "labels": [
        {
          "name": ".LASF100",
          "range": {
            "endCol": 25,
            "startCol": 17
          }
        }
      ],
      "source": null,
      "text": "        .long   .LASF100"
    },
    {
      "labels": [],
      "source": null,
      "text": "        .byte   0x1"
    },
    {
      "labels": [],
      "source": null,
      "text": "        .byte   0x1"
    },
    {
      "labels": [],
      "source": null,
      "text": "        .byte   0x79"
    },
    {
      "labels": [],
      "source": null,
      "text": "        .byte   0xd"
    },
    {
      "labels": [],
      "source": null,
      "text": "        .byte   0x1"
    },
    {
      "labels": [],
      "source": null,
      "text": "        .uleb128 0x55"
    },
    {
      "labels": [
        {
          "name": ".LASF255",
          "range": {
            "endCol": 25,
            "startCol": 17
          }
        }
      ],
      "source": null,
      "text": "        .long   .LASF255"
    },
    {
      "labels": [],
      "source": null,
      "text": "        .byte   0x1"
    },
    {
      "labels": [],
      "source": null,
      "text": "        .byte   0x7c"
    },
    {
      "labels": [],
      "source": null,
      "text": "        .byte   0x14"
    },
    {
      "labels": [],
      "source": null,
      "text": "        .long   0xed9"
    },
    {
      "labels": [],
      "source": null,
      "text": "        .byte   0x2"
    },
    {
      "labels": [],
      "source": null,
      "text": "        .byte   0x1"
    },
    {
      "labels": [],
      "source": null,
      "text": "        .uleb128 0x2e"
    },
    {
      "labels": [
        {
          "name": ".LASF101",
          "range": {
            "endCol": 25,
            "startCol": 17
          }
        }
      ],
      "source": null,
      "text": "        .long   .LASF101"
    },
    {
      "labels": [],
      "source": null,
      "text": "        .byte   0x86"
    },
    {
      "labels": [],
      "source": null,
      "text": "        .byte   0x2"
    },
    {
      "labels": [],
      "source": null,
      "text": "        .long   0x14a1"
    },
    {
      "labels": [],
      "source": null,
      "text": "        .byte   0x2"
    },
    {
      "labels": [],
      "source": null,
      "text": "        .long   0x771"
    },
    {
      "labels": [],
      "source": null,
      "text": "        .uleb128 0x1"
    },
    {
      "labels": [],
      "source": null,
      "text": "        .long   0xfae"
    },
    {
      "labels": [],
      "source": null,
      "text": "        .byte   0"
    },
    {
      "labels": [],
      "source": null,
      "text": "        .uleb128 0x1c"
    },
    {
      "labels": [
        {
          "name": ".LASF102",
          "range": {
            "endCol": 25,
            "startCol": 17
          }
        }
      ],
      "source": null,
      "text": "        .long   .LASF102"
    },
    {
      "labels": [],
      "source": null,
      "text": "        .byte   0x1"
    },
    {
      "labels": [],
      "source": null,
      "text": "        .byte   0xa6"
    },
    {
      "labels": [],
      "source": null,
      "text": "        .byte   0x2"
    },
    {
      "labels": [],
      "source": null,
      "text": "        .long   0x788"
    },
    {
      "labels": [],
      "source": null,
      "text": "        .uleb128 0x1"
    },
    {
      "labels": [],
      "source": null,
      "text": "        .long   0xfa9"
    },
    {
      "labels": [],
      "source": null,
      "text": "        .uleb128 0x1"
    },
    {
      "labels": [],
      "source": null,
      "text": "        .long   0x874"
    },
    {
      "labels": [],
      "source": null,
      "text": "        .byte   0"
    },
    {
      "labels": [],
      "source": null,
      "text": "        .uleb128 0x1c"
    },
    {
      "labels": [
        {
          "name": ".LASF102",
          "range": {
            "endCol": 25,
            "startCol": 17
          }
        }
      ],
      "source": null,
      "text": "        .long   .LASF102"
    },
    {
      "labels": [],
      "source": null,
      "text": "        .byte   0x1"
    },
    {
      "labels": [],
      "source": null,
      "text": "        .byte   0xad"
    },
    {
      "labels": [],
      "source": null,
      "text": "        .byte   0x2"
    },
    {
      "labels": [],
      "source": null,
      "text": "        .long   0x79f"
    },
    {
      "labels": [],
      "source": null,
      "text": "        .uleb128 0x1"
    },
    {
      "labels": [],
      "source": null,
      "text": "        .long   0xfa9"
    },
    {
      "labels": [],
      "source": null,
      "text": "        .uleb128 0x1"
    },
    {
      "labels": [],
      "source": null,
      "text": "        .long   0x4fc"
    },
    {
      "labels": [],
      "source": null,
      "text": "        .byte   0"
    },
    {
      "labels": [],
      "source": null,
      "text": "        .uleb128 0x2e"
    },
    {
      "labels": [
        {
          "name": ".LASF99",
          "range": {
            "endCol": 24,
            "startCol": 17
          }
        }
      ],
      "source": null,
      "text": "        .long   .LASF99"
    },
    {
      "labels": [],
      "source": null,
      "text": "        .byte   0xb4"
    },
    {
      "labels": [],
      "source": null,
      "text": "        .byte   0x2"
    },
    {
      "labels": [],
      "source": null,
      "text": "        .long   0xed2"
    },
    {
      "labels": [],
      "source": null,
      "text": "        .byte   0x1"
    },
    {
      "labels": [],
      "source": null,
      "text": "        .long   0x7bf"
    },
    {
      "labels": [],
      "source": null,
      "text": "        .uleb128 0x1"
    },
    {
      "labels": [],
      "source": null,
      "text": "        .long   0xfa9"
    },
    {
      "labels": [],
      "source": null,
      "text": "        .uleb128 0x1"
    },
    {
      "labels": [],
      "source": null,
      "text": "        .long   0xfae"
    },
    {
      "labels": [],
      "source": null,
      "text": "        .uleb128 0x1"
    },
    {
      "labels": [],
      "source": null,
      "text": "        .long   0x66d"
    },
    {
      "labels": [],
      "source": null,
      "text": "        .byte   0"
    },
    {
      "labels": [],
      "source": null,
      "text": "        .uleb128 0x1c"
    },
    {
      "labels": [
        {
          "name": ".LASF103",
          "range": {
            "endCol": 25,
            "startCol": 17
          }
        }
      ],
      "source": null,
      "text": "        .long   .LASF103"
    },
    {
      "labels": [],
      "source": null,
      "text": "        .byte   0x1"
    },
    {
      "labels": [],
      "source": null,
      "text": "        .byte   0x96"
    },
    {
      "labels": [],
      "source": null,
      "text": "        .byte   0x4"
    },
    {
      "labels": [],
      "source": null,
      "text": "        .long   0x7e4"
    },
    {
      "labels": [],
      "source": null,
      "text": "        .uleb128 0x9"
    },
    {
      "labels": [],
      "source": null,
      "text": "        .string \"_Fn\""
    },
    {
      "labels": [],
      "source": null,
      "text": "        .long   0x14db"
    },
    {
      "labels": [],
      "source": null,
      "text": "        .uleb128 0x1"
    },
    {
      "labels": [],
      "source": null,
      "text": "        .long   0xfa9"
    },
    {
      "labels": [],
      "source": null,
      "text": "        .uleb128 0x1"
    },
    {
      "labels": [],
      "source": null,
      "text": "        .long   0x14db"
    },
    {
      "labels": [],
      "source": null,
      "text": "        .uleb128 0x1"
    },
    {
      "labels": [],
      "source": null,
      "text": "        .long   0x874"
    },
    {
      "labels": [],
      "source": null,
      "text": "        .byte   0"
    },
    {
      "labels": [],
      "source": null,
      "text": "        .uleb128 0x3a"
    },
    {
      "labels": [
        {
          "name": ".LASF105",
          "range": {
            "endCol": 25,
            "startCol": 17
          }
        }
      ],
      "source": null,
      "text": "        .long   .LASF105"
    },
    {
      "labels": [],
      "source": null,
      "text": "        .byte   0xd3"
    },
    {
      "labels": [],
      "source": null,
      "text": "        .long   0x802"
    },
    {
      "labels": [],
      "source": null,
      "text": "        .uleb128 0x9"
    },
    {
      "labels": [],
      "source": null,
      "text": "        .string \"_Fn\""
    },
    {
      "labels": [],
      "source": null,
      "text": "        .long   0x14db"
    },
    {
      "labels": [],
      "source": null,
      "text": "        .uleb128 0x1"
    },
    {
      "labels": [],
      "source": null,
      "text": "        .long   0xfa9"
    },
    {
      "labels": [],
      "source": null,
      "text": "        .uleb128 0x1"
    },
    {
      "labels": [],
      "source": null,
      "text": "        .long   0x14db"
    },
    {
      "labels": [],
      "source": null,
      "text": "        .byte   0"
    },
    {
      "labels": [],
      "source": null,
      "text": "        .uleb128 0x1c"
    },
    {
      "labels": [
        {
          "name": ".LASF104",
          "range": {
            "endCol": 25,
            "startCol": 17
          }
        }
      ],
      "source": null,
      "text": "        .long   .LASF104"
    },
    {
      "labels": [],
      "source": null,
      "text": "        .byte   0x1"
    },
    {
      "labels": [],
      "source": null,
      "text": "        .byte   0x96"
    },
    {
      "labels": [],
      "source": null,
      "text": "        .byte   0x4"
    },
    {
      "labels": [],
      "source": null,
      "text": "        .long   0x827"
    },
    {
      "labels": [],
      "source": null,
      "text": "        .uleb128 0x9"
    },
    {
      "labels": [],
      "source": null,
      "text": "        .string \"_Fn\""
    },
    {
      "labels": [],
      "source": null,
      "text": "        .long   0x1939"
    },
    {
      "labels": [],
      "source": null,
      "text": "        .uleb128 0x1"
    },
    {
      "labels": [],
      "source": null,
      "text": "        .long   0xfa9"
    },
    {
      "labels": [],
      "source": null,
      "text": "        .uleb128 0x1"
    },
    {
      "labels": [],
      "source": null,
      "text": "        .long   0x1677"
    },
    {
      "labels": [],
      "source": null,
      "text": "        .uleb128 0x1"
    },
    {
      "labels": [],
      "source": null,
      "text": "        .long   0x874"
    },
    {
      "labels": [],
      "source": null,
      "text": "        .byte   0"
    },
    {
      "labels": [],
      "source": null,
      "text": "        .uleb128 0x3a"
    },
    {
      "labels": [
        {
          "name": ".LASF106",
          "range": {
            "endCol": 25,
            "startCol": 17
          }
        }
      ],
      "source": null,
      "text": "        .long   .LASF106"
    },
    {
      "labels": [],
      "source": null,
      "text": "        .byte   0xd3"
    },
    {
      "labels": [],
      "source": null,
      "text": "        .long   0x845"
    },
    {
      "labels": [],
      "source": null,
      "text": "        .uleb128 0x9"
    },
    {
      "labels": [],
      "source": null,
      "text": "        .string \"_Fn\""
    },
    {
      "labels": [],
      "source": null,
      "text": "        .long   0x1939"
    },
    {
      "labels": [],
      "source": null,
      "text": "        .uleb128 0x1"
    },
    {
      "labels": [],
      "source": null,
      "text": "        .long   0xfa9"
    },
    {
      "labels": [],
      "source": null,
      "text": "        .uleb128 0x1"
    },
    {
      "labels": [],
      "source": null,
      "text": "        .long   0x1677"
    },
    {
      "labels": [],
      "source": null,
      "text": "        .byte   0"
    },
    {
      "labels": [],
      "source": null,
      "text": "        .uleb128 0x2e"
    },
    {
      "labels": [
        {
          "name": ".LASF107",
          "range": {
            "endCol": 25,
            "startCol": 17
          }
        }
      ],
      "source": null,
      "text": "        .long   .LASF107"
    },
    {
      "labels": [],
      "source": null,
      "text": "        .byte   0xeb"
    },
    {
      "labels": [],
      "source": null,
      "text": "        .byte   0x4"
    },
    {
      "labels": [],
      "source": null,
      "text": "        .long   0xed2"
    },
    {
      "labels": [],
      "source": null,
      "text": "        .byte   0x1"
    },
    {
      "labels": [],
      "source": null,
      "text": "        .long   0x864"
    },
    {
      "labels": [],
      "source": null,
      "text": "        .uleb128 0x9"
    },
    {
      "labels": [],
      "source": null,
      "text": "        .string \"_Tp\""
    },
    {
      "labels": [],
      "source": null,
      "text": "        .long   0x1939"
    },
    {
      "labels": [],
      "source": null,
      "text": "        .uleb128 0x1"
    },
    {
      "labels": [],
      "source": null,
      "text": "        .long   0x14db"
    },
    {
      "labels": [],
      "source": null,
      "text": "        .byte   0"
    },
    {
      "labels": [],
      "source": null,
      "text": "        .uleb128 0x12"
    },
    {
      "labels": [
        {
          "name": ".LASF108",
          "range": {
            "endCol": 25,
            "startCol": 17
          }
        }
      ],
      "source": null,
      "text": "        .long   .LASF108"
    },
    {
      "labels": [],
      "source": null,
      "text": "        .long   0x1939"
    },
    {
      "labels": [],
      "source": null,
      "text": "        .byte   0"
    },
    {
      "labels": [],
      "source": null,
      "text": "        .byte   0"
    },
    {
      "labels": [],
      "source": null,
      "text": "        .uleb128 0x8"
    },
    {
      "labels": [],
      "source": null,
      "text": "        .long   0x698"
    },
    {
      "labels": [],
      "source": null,
      "text": "        .uleb128 0xe"
    },
    {
      "labels": [
        {
          "name": ".LASF109",
          "range": {
            "endCol": 25,
            "startCol": 17
          }
        }
      ],
      "source": null,
      "text": "        .long   .LASF109"
    },
    {
      "labels": [],
      "source": null,
      "text": "        .byte   0xc"
    },
    {
      "labels": [],
      "source": null,
      "text": "        .byte   0x52"
    },
    {
      "labels": [],
      "source": null,
      "text": "        .byte   0x9"
    },
    {
      "labels": [],
      "source": null,
      "text": "        .long   0x48e"
    },
    {
      "labels": [],
      "source": null,
      "text": "        .uleb128 0x3b"
    },
    {
      "labels": [
        {
          "name": ".LASF110",
          "range": {
            "endCol": 25,
            "startCol": 17
          }
        }
      ],
      "source": null,
      "text": "        .long   .LASF110"
    },
    {
      "labels": [],
      "source": null,
      "text": "        .byte   0xe"
    },
    {
      "labels": [],
      "source": null,
      "text": "        .byte   0x32"
    },
    {
      "labels": [],
      "source": null,
      "text": "        .byte   0xd"
    },
    {
      "labels": [],
      "source": null,
      "text": "        .uleb128 0x26"
    },
    {
      "labels": [
        {
          "name": ".LASF111",
          "range": {
            "endCol": 25,
            "startCol": 17
          }
        }
      ],
      "source": null,
      "text": "        .long   .LASF111"
    },
    {
      "labels": [],
      "source": null,
      "text": "        .byte   0x1"
    },
    {
      "labels": [],
      "source": null,
      "text": "        .value  0x2f9"
    },
    {
      "labels": [],
      "source": null,
      "text": "        .uleb128 0x2"
    },
    {
      "labels": [],
      "source": null,
      "text": "        .byte   0xf"
    },
    {
      "labels": [],
      "source": null,
      "text": "        .byte   0x7f"
    },
    {
      "labels": [],
      "source": null,
      "text": "        .byte   0xb"
    },
    {
      "labels": [],
      "source": null,
      "text": "        .long   0x1071"
    },
    {
      "labels": [],
      "source": null,
      "text": "        .uleb128 0x2"
    },
    {
      "labels": [],
      "source": null,
      "text": "        .byte   0xf"
    },
    {
      "labels": [],
      "source": null,
      "text": "        .byte   0x80"
    },
    {
      "labels": [],
      "source": null,
      "text": "        .byte   0xb"
    },
    {
      "labels": [],
      "source": null,
      "text": "        .long   0x10a5"
    },
    {
      "labels": [],
      "source": null,
      "text": "        .uleb128 0x2"
    },
    {
      "labels": [],
      "source": null,
      "text": "        .byte   0xf"
    },
    {
      "labels": [],
      "source": null,
      "text": "        .byte   0x86"
    },
    {
      "labels": [],
      "source": null,
      "text": "        .byte   0xb"
    },
    {
      "labels": [],
      "source": null,
      "text": "        .long   0x110b"
    },
    {
      "labels": [],
      "source": null,
      "text": "        .uleb128 0x2"
    },
    {
      "labels": [],
      "source": null,
      "text": "        .byte   0xf"
    },
    {
      "labels": [],
      "source": null,
      "text": "        .byte   0x89"
    },
    {
      "labels": [],
      "source": null,
      "text": "        .byte   0xb"
    },
    {
      "labels": [],
      "source": null,
      "text": "        .long   0x1122"
    },
    {
      "labels": [],
      "source": null,
      "text": "        .uleb128 0x2"
    },
    {
      "labels": [],
      "source": null,
      "text": "        .byte   0xf"
    },
    {
      "labels": [],
      "source": null,
      "text": "        .byte   0x8c"
    },
    {
      "labels": [],
      "source": null,
      "text": "        .byte   0xb"
    },
    {
      "labels": [],
      "source": null,
      "text": "        .long   0x113d"
    },
    {
      "labels": [],
      "source": null,
      "text": "        .uleb128 0x2"
    },
    {
      "labels": [],
      "source": null,
      "text": "        .byte   0xf"
    },
    {
      "labels": [],
      "source": null,
      "text": "        .byte   0x8d"
    },
    {
      "labels": [],
      "source": null,
      "text": "        .byte   0xb"
    },
    {
      "labels": [],
      "source": null,
      "text": "        .long   0x1153"
    },
    {
      "labels": [],
      "source": null,
      "text": "        .uleb128 0x2"
    },
    {
      "labels": [],
      "source": null,
      "text": "        .byte   0xf"
    },
    {
      "labels": [],
      "source": null,
      "text": "        .byte   0x8e"
    },
    {
      "labels": [],
      "source": null,
      "text": "        .byte   0xb"
    },
    {
      "labels": [],
      "source": null,
      "text": "        .long   0x116a"
    },
    {
      "labels": [],
      "source": null,
      "text": "        .uleb128 0x2"
    },
    {
      "labels": [],
      "source": null,
      "text": "        .byte   0xf"
    },
    {
      "labels": [],
      "source": null,
      "text": "        .byte   0x8f"
    },
    {
      "labels": [],
      "source": null,
      "text": "        .byte   0xb"
    },
    {
      "labels": [],
      "source": null,
      "text": "        .long   0x1181"
    },
    {
      "labels": [],
      "source": null,
      "text": "        .uleb128 0x2"
    },
    {
      "labels": [],
      "source": null,
      "text": "        .byte   0xf"
    },
    {
      "labels": [],
      "source": null,
      "text": "        .byte   0x91"
    },
    {
      "labels": [],
      "source": null,
      "text": "        .byte   0xb"
    },
    {
      "labels": [],
      "source": null,
      "text": "        .long   0x11ab"
    },
    {
      "labels": [],
      "source": null,
      "text": "        .uleb128 0x2"
    },
    {
      "labels": [],
      "source": null,
      "text": "        .byte   0xf"
    },
    {
      "labels": [],
      "source": null,
      "text": "        .byte   0x94"
    },
    {
      "labels": [],
      "source": null,
      "text": "        .byte   0xb"
    },
    {
      "labels": [],
      "source": null,
      "text": "        .long   0x11c7"
    },
    {
      "labels": [],
      "source": null,
      "text": "        .uleb128 0x2"
    },
    {
      "labels": [],
      "source": null,
      "text": "        .byte   0xf"
    },
    {
      "labels": [],
      "source": null,
      "text": "        .byte   0x96"
    },
    {
      "labels": [],
      "source": null,
      "text": "        .byte   0xb"
    },
    {
      "labels": [],
      "source": null,
      "text": "        .long   0x11de"
    },
    {
      "labels": [],
      "source": null,
      "text": "        .uleb128 0x2"
    },
    {
      "labels": [],
      "source": null,
      "text": "        .byte   0xf"
    },
    {
      "labels": [],
      "source": null,
      "text": "        .byte   0x99"
    },
    {
      "labels": [],
      "source": null,
      "text": "        .byte   0xb"
    },
    {
      "labels": [],
      "source": null,
      "text": "        .long   0x11fa"
    },
    {
      "labels": [],
      "source": null,
      "text": "        .uleb128 0x2"
    },
    {
      "labels": [],
      "source": null,
      "text": "        .byte   0xf"
    },
    {
      "labels": [],
      "source": null,
      "text": "        .byte   0x9a"
    },
    {
      "labels": [],
      "source": null,
      "text": "        .byte   0xb"
    },
    {
      "labels": [],
      "source": null,
      "text": "        .long   0x1216"
    },
    {
      "labels": [],
      "source": null,
      "text": "        .uleb128 0x2"
    },
    {
      "labels": [],
      "source": null,
      "text": "        .byte   0xf"
    },
    {
      "labels": [],
      "source": null,
      "text": "        .byte   0x9b"
    },
    {
      "labels": [],
      "source": null,
      "text": "        .byte   0xb"
    },
    {
      "labels": [],
      "source": null,
      "text": "        .long   0x1237"
    },
    {
      "labels": [],
      "source": null,
      "text": "        .uleb128 0x2"
    },
    {
      "labels": [],
      "source": null,
      "text": "        .byte   0xf"
    },
    {
      "labels": [],
      "source": null,
      "text": "        .byte   0x9d"
    },
    {
      "labels": [],
      "source": null,
      "text": "        .byte   0xb"
    },
    {
      "labels": [],
      "source": null,
      "text": "        .long   0x1258"
    },
    {
      "labels": [],
      "source": null,
      "text": "        .uleb128 0x2"
    },
    {
      "labels": [],
      "source": null,
      "text": "        .byte   0xf"
    },
    {
      "labels": [],
      "source": null,
      "text": "        .byte   0xa0"
    },
    {
      "labels": [],
      "source": null,
      "text": "        .byte   0xb"
    },
    {
      "labels": [],
      "source": null,
      "text": "        .long   0x1279"
    },
    {
      "labels": [],
      "source": null,
      "text": "        .uleb128 0x2"
    },
    {
      "labels": [],
      "source": null,
      "text": "        .byte   0xf"
    },
    {
      "labels": [],
      "source": null,
      "text": "        .byte   0xa3"
    },
    {
      "labels": [],
      "source": null,
      "text": "        .byte   0xb"
    },
    {
      "labels": [],
      "source": null,
      "text": "        .long   0x128c"
    },
    {
      "labels": [],
      "source": null,
      "text": "        .uleb128 0x2"
    },
    {
      "labels": [],
      "source": null,
      "text": "        .byte   0xf"
    },
    {
      "labels": [],
      "source": null,
      "text": "        .byte   0xa5"
    },
    {
      "labels": [],
      "source": null,
      "text": "        .byte   0xb"
    },
    {
      "labels": [],
      "source": null,
      "text": "        .long   0x1299"
    },
    {
      "labels": [],
      "source": null,
      "text": "        .uleb128 0x2"
    },
    {
      "labels": [],
      "source": null,
      "text": "        .byte   0xf"
    },
    {
      "labels": [],
      "source": null,
      "text": "        .byte   0xa6"
    },
    {
      "labels": [],
      "source": null,
      "text": "        .byte   0xb"
    },
    {
      "labels": [],
      "source": null,
      "text": "        .long   0x12ab"
    },
    {
      "labels": [],
      "source": null,
      "text": "        .uleb128 0x2"
    },
    {
      "labels": [],
      "source": null,
      "text": "        .byte   0xf"
    },
    {
      "labels": [],
      "source": null,
      "text": "        .byte   0xa7"
    },
    {
      "labels": [],
      "source": null,
      "text": "        .byte   0xb"
    },
    {
      "labels": [],
      "source": null,
      "text": "        .long   0x12cb"
    },
    {
      "labels": [],
      "source": null,
      "text": "        .uleb128 0x2"
    },
    {
      "labels": [],
      "source": null,
      "text": "        .byte   0xf"
    },
    {
      "labels": [],
      "source": null,
      "text": "        .byte   0xa8"
    },
    {
      "labels": [],
      "source": null,
      "text": "        .byte   0xb"
    },
    {
      "labels": [],
      "source": null,
      "text": "        .long   0x12eb"
    },
    {
      "labels": [],
      "source": null,
      "text": "        .uleb128 0x2"
    },
    {
      "labels": [],
      "source": null,
      "text": "        .byte   0xf"
    },
    {
      "labels": [],
      "source": null,
      "text": "        .byte   0xa9"
    },
    {
      "labels": [],
      "source": null,
      "text": "        .byte   0xb"
    },
    {
      "labels": [],
      "source": null,
      "text": "        .long   0x130b"
    },
    {
      "labels": [],
      "source": null,
      "text": "        .uleb128 0x2"
    },
    {
      "labels": [],
      "source": null,
      "text": "        .byte   0xf"
    },
    {
      "labels": [],
      "source": null,
      "text": "        .byte   0xab"
    },
    {
      "labels": [],
      "source": null,
      "text": "        .byte   0xb"
    },
    {
      "labels": [],
      "source": null,
      "text": "        .long   0x1322"
    },
    {
      "labels": [],
      "source": null,
      "text": "        .uleb128 0x2"
    },
    {
      "labels": [],
      "source": null,
      "text": "        .byte   0xf"
    },
    {
      "labels": [],
      "source": null,
      "text": "        .byte   0xac"
    },
    {
      "labels": [],
      "source": null,
      "text": "        .byte   0xb"
    },
    {
      "labels": [],
      "source": null,
      "text": "        .long   0x1343"
    },
    {
      "labels": [],
      "source": null,
      "text": "        .uleb128 0x2"
    },
    {
      "labels": [],
      "source": null,
      "text": "        .byte   0xf"
    },
    {
      "labels": [],
      "source": null,
      "text": "        .byte   0xf0"
    },
    {
      "labels": [],
      "source": null,
      "text": "        .byte   0x16"
    },
    {
      "labels": [],
      "source": null,
      "text": "        .long   0x10d9"
    },
    {
      "labels": [],
      "source": null,
      "text": "        .uleb128 0x2"
    },
    {
      "labels": [],
      "source": null,
      "text": "        .byte   0xf"
    },
    {
      "labels": [],
      "source": null,
      "text": "        .byte   0xf5"
    },
    {
      "labels": [],
      "source": null,
      "text": "        .byte   0x16"
    },
    {
      "labels": [],
      "source": null,
      "text": "        .long   0x100a"
    },
    {
      "labels": [],
      "source": null,
      "text": "        .uleb128 0x2"
    },
    {
      "labels": [],
      "source": null,
      "text": "        .byte   0xf"
    },
    {
      "labels": [],
      "source": null,
      "text": "        .byte   0xf6"
    },
    {
      "labels": [],
      "source": null,
      "text": "        .byte   0x16"
    },
    {
      "labels": [],
      "source": null,
      "text": "        .long   0x135f"
    },
    {
      "labels": [],
      "source": null,
      "text": "        .uleb128 0x2"
    },
    {
      "labels": [],
      "source": null,
      "text": "        .byte   0xf"
    },
    {
      "labels": [],
      "source": null,
      "text": "        .byte   0xf8"
    },
    {
      "labels": [],
      "source": null,
      "text": "        .byte   0x16"
    },
    {
      "labels": [],
      "source": null,
      "text": "        .long   0x137b"
    },
    {
      "labels": [],
      "source": null,
      "text": "        .uleb128 0x2"
    },
    {
      "labels": [],
      "source": null,
      "text": "        .byte   0xf"
    },
    {
      "labels": [],
      "source": null,
      "text": "        .byte   0xf9"
    },
    {
      "labels": [],
      "source": null,
      "text": "        .byte   0x16"
    },
    {
      "labels": [],
      "source": null,
      "text": "        .long   0x13d2"
    },
    {
      "labels": [],
      "source": null,
      "text": "        .uleb128 0x2"
    },
    {
      "labels": [],
      "source": null,
      "text": "        .byte   0xf"
    },
    {
      "labels": [],
      "source": null,
      "text": "        .byte   0xfa"
    },
    {
      "labels": [],
      "source": null,
      "text": "        .byte   0x16"
    },
    {
      "labels": [],
      "source": null,
      "text": "        .long   0x1392"
    },
    {
      "labels": [],
      "source": null,
      "text": "        .uleb128 0x2"
    },
    {
      "labels": [],
      "source": null,
      "text": "        .byte   0xf"
    },
    {
      "labels": [],
      "source": null,
      "text": "        .byte   0xfb"
    },
    {
      "labels": [],
      "source": null,
      "text": "        .byte   0x16"
    },
    {
      "labels": [],
      "source": null,
      "text": "        .long   0x13b2"
    },
    {
      "labels": [],
      "source": null,
      "text": "        .uleb128 0x2"
    },
    {
      "labels": [],
      "source": null,
      "text": "        .byte   0xf"
    },
    {
      "labels": [],
      "source": null,
      "text": "        .byte   0xfc"
    },
    {
      "labels": [],
      "source": null,
      "text": "        .byte   0x16"
    },
    {
      "labels": [],
      "source": null,
      "text": "        .long   0x13ed"
    },
    {
      "labels": [],
      "source": null,
      "text": "        .uleb128 0x26"
    },
    {
      "labels": [
        {
          "name": ".LASF112",
          "range": {
            "endCol": 25,
            "startCol": 17
          }
        }
      ],
      "source": null,
      "text": "        .long   .LASF112"
    },
    {
      "labels": [],
      "source": null,
      "text": "        .byte   0x10"
    },
    {
      "labels": [],
      "source": null,
      "text": "        .value  0x117"
    },
    {
      "labels": [],
      "source": null,
      "text": "        .uleb128 0x1b"
    },
    {
      "labels": [
        {
          "name": ".LASF113",
          "range": {
            "endCol": 25,
            "startCol": 17
          }
        }
      ],
      "source": null,
      "text": "        .long   .LASF113"
    },
    {
      "labels": [],
      "source": null,
      "text": "        .byte   0x1"
    },
    {
      "labels": [],
      "source": null,
      "text": "        .byte   0x11"
    },
    {
      "labels": [],
      "source": null,
      "text": "        .byte   0x35"
    },
    {
      "labels": [],
      "source": null,
      "text": "        .byte   0xc"
    },
    {
      "labels": [],
      "source": null,
      "text": "        .long   0x9b0"
    },
    {
      "labels": [],
      "source": null,
      "text": "        .uleb128 0x1d"
    },
    {
      "labels": [
        {
          "name": ".LASF141",
          "range": {
            "endCol": 25,
            "startCol": 17
          }
        }
      ],
      "source": null,
      "text": "        .long   .LASF141"
    },
    {
      "labels": [],
      "source": null,
      "text": "        .uleb128 0x1e"
    },
    {
      "labels": [
        {
          "name": ".LASF142",
          "range": {
            "endCol": 25,
            "startCol": 17
          }
        }
      ],
      "source": null,
      "text": "        .long   .LASF142"
    },
    {
      "labels": [],
      "source": null,
      "text": "        .byte   0"
    },
    {
      "labels": [],
      "source": null,
      "text": "        .uleb128 0x3c"
    },
    {
      "labels": [
        {
          "name": ".LASF114",
          "range": {
            "endCol": 25,
            "startCol": 17
          }
        }
      ],
      "source": null,
      "text": "        .long   .LASF114"
    },
    {
      "labels": [],
      "source": null,
      "text": "        .byte   0x20"
    },
    {
      "labels": [],
      "source": null,
      "text": "        .value  0x14e"
    },
    {
      "labels": [],
      "source": null,
      "text": "        .long   0xb87"
    },
    {
      "labels": [],
      "source": null,
      "text": "        .uleb128 0x3d"
    },
    {
      "labels": [],
      "source": null,
      "text": "        .long   0x998"
    },
    {
      "labels": [],
      "source": null,
      "text": "        .uleb128 0x56"
    },
    {
      "labels": [],
      "source": null,
      "text": "        .long   0x698"
    },
    {
      "labels": [],
      "source": null,
      "text": "        .byte   0"
    },
    {
      "labels": [],
      "source": null,
      "text": "        .uleb128 0x18"
    },
    {
      "labels": [
        {
          "name": ".LASF115",
          "range": {
            "endCol": 25,
            "startCol": 17
          }
        }
      ],
      "source": null,
      "text": "        .long   .LASF115"
    },
    {
      "labels": [],
      "source": null,
      "text": "        .value  0x170"
    },
    {
      "labels": [],
      "source": null,
      "text": "        .byte   0x7"
    },
    {
      "labels": [
        {
          "name": ".LASF116",
          "range": {
            "endCol": 25,
            "startCol": 17
          }
        }
      ],
      "source": null,
      "text": "        .long   .LASF116"
    },
    {
      "labels": [],
      "source": null,
      "text": "        .long   0x9db"
    },
    {
      "labels": [],
      "source": null,
      "text": "        .long   0x9e1"
    },
    {
      "labels": [],
      "source": null,
      "text": "        .uleb128 0x5"
    },
    {
      "labels": [],
      "source": null,
      "text": "        .long   0x1408"
    },
    {
      "labels": [],
      "source": null,
      "text": "        .byte   0"
    },
    {
      "labels": [],
      "source": null,
      "text": "        .uleb128 0x18"
    },
    {
      "labels": [
        {
          "name": ".LASF115",
          "range": {
            "endCol": 25,
            "startCol": 17
          }
        }
      ],
      "source": null,
      "text": "        .long   .LASF115"
    },
    {
      "labels": [],
      "source": null,
      "text": "        .value  0x177"
    },
    {
      "labels": [],
      "source": null,
      "text": "        .byte   0x7"
    },
    {
      "labels": [
        {
          "name": ".LASF117",
          "range": {
            "endCol": 25,
            "startCol": 17
          }
        }
      ],
      "source": null,
      "text": "        .long   .LASF117"
    },
    {
      "labels": [],
      "source": null,
      "text": "        .long   0x9f5"
    },
    {
      "labels": [],
      "source": null,
      "text": "        .long   0xa00"
    },
    {
      "labels": [],
      "source": null,
      "text": "        .uleb128 0x5"
    },
    {
      "labels": [],
      "source": null,
      "text": "        .long   0x1408"
    },
    {
      "labels": [],
      "source": null,
      "text": "        .uleb128 0x1"
    },
    {
      "labels": [],
      "source": null,
      "text": "        .long   0x534"
    },
    {
      "labels": [],
      "source": null,
      "text": "        .byte   0"
    },
    {
      "labels": [],
      "source": null,
      "text": "        .uleb128 0x18"
    },
    {
      "labels": [
        {
          "name": ".LASF115",
          "range": {
            "endCol": 25,
            "startCol": 17
          }
        }
      ],
      "source": null,
      "text": "        .long   .LASF115"
    },
    {
      "labels": [],
      "source": null,
      "text": "        .value  0x182"
    },
    {
      "labels": [],
      "source": null,
      "text": "        .byte   0x7"
    },
    {
      "labels": [
        {
          "name": ".LASF118",
          "range": {
            "endCol": 25,
            "startCol": 17
          }
        }
      ],
      "source": null,
      "text": "        .long   .LASF118"
    },
    {
      "labels": [],
      "source": null,
      "text": "        .long   0xa14"
    },
    {
      "labels": [],
      "source": null,
      "text": "        .long   0xa1f"
    },
    {
      "labels": [],
      "source": null,
      "text": "        .uleb128 0x5"
    },
    {
      "labels": [],
      "source": null,
      "text": "        .long   0x1408"
    },
    {
      "labels": [],
      "source": null,
      "text": "        .uleb128 0x1"
    },
    {
      "labels": [],
      "source": null,
      "text": "        .long   0x1412"
    },
    {
      "labels": [],
      "source": null,
      "text": "        .byte   0"
    },
    {
      "labels": [],
      "source": null,
      "text": "        .uleb128 0x18"
    },
    {
      "labels": [
        {
          "name": ".LASF115",
          "range": {
            "endCol": 25,
            "startCol": 17
          }
        }
      ],
      "source": null,
      "text": "        .long   .LASF115"
    },
    {
      "labels": [],
      "source": null,
      "text": "        .value  0x194"
    },
    {
      "labels": [],
      "source": null,
      "text": "        .byte   0x7"
    },
    {
      "labels": [
        {
          "name": ".LASF119",
          "range": {
            "endCol": 25,
            "startCol": 17
          }
        }
      ],
      "source": null,
      "text": "        .long   .LASF119"
    },
    {
      "labels": [],
      "source": null,
      "text": "        .long   0xa33"
    },
    {
      "labels": [],
      "source": null,
      "text": "        .long   0xa3e"
    },
    {
      "labels": [],
      "source": null,
      "text": "        .uleb128 0x5"
    },
    {
      "labels": [],
      "source": null,
      "text": "        .long   0x1408"
    },
    {
      "labels": [],
      "source": null,
      "text": "        .uleb128 0x1"
    },
    {
      "labels": [],
      "source": null,
      "text": "        .long   0x1417"
    },
    {
      "labels": [],
      "source": null,
      "text": "        .byte   0"
    },
    {
      "labels": [],
      "source": null,
      "text": "        .uleb128 0x28"
    },
    {
      "labels": [
        {
          "name": ".LASF120",
          "range": {
            "endCol": 25,
            "startCol": 17
          }
        }
      ],
      "source": null,
      "text": "        .long   .LASF120"
    },
    {
      "labels": [],
      "source": null,
      "text": "        .value  0x1d5"
    },
    {
      "labels": [
        {
          "name": ".LASF121",
          "range": {
            "endCol": 25,
            "startCol": 17
          }
        }
      ],
      "source": null,
      "text": "        .long   .LASF121"
    },
    {
      "labels": [],
      "source": null,
      "text": "        .long   0x141c"
    },
    {
      "labels": [],
      "source": null,
      "text": "        .long   0xa55"
    },
    {
      "labels": [],
      "source": null,
      "text": "        .long   0xa60"
    },
    {
      "labels": [],
      "source": null,
      "text": "        .uleb128 0x5"
    },
    {
      "labels": [],
      "source": null,
      "text": "        .long   0x1408"
    },
    {
      "labels": [],
      "source": null,
      "text": "        .uleb128 0x1"
    },
    {
      "labels": [],
      "source": null,
      "text": "        .long   0x1412"
    },
    {
      "labels": [],
      "source": null,
      "text": "        .byte   0"
    },
    {
      "labels": [],
      "source": null,
      "text": "        .uleb128 0x28"
    },
    {
      "labels": [
        {
          "name": ".LASF120",
          "range": {
            "endCol": 25,
            "startCol": 17
          }
        }
      ],
      "source": null,
      "text": "        .long   .LASF120"
    },
    {
      "labels": [],
      "source": null,
      "text": "        .value  0x1e7"
    },
    {
      "labels": [
        {
          "name": ".LASF122",
          "range": {
            "endCol": 25,
            "startCol": 17
          }
        }
      ],
      "source": null,
      "text": "        .long   .LASF122"
    },
    {
      "labels": [],
      "source": null,
      "text": "        .long   0x141c"
    },
    {
      "labels": [],
      "source": null,
      "text": "        .long   0xa77"
    },
    {
      "labels": [],
      "source": null,
      "text": "        .long   0xa82"
    },
    {
      "labels": [],
      "source": null,
      "text": "        .uleb128 0x5"
    },
    {
      "labels": [],
      "source": null,
      "text": "        .long   0x1408"
    },
    {
      "labels": [],
      "source": null,
      "text": "        .uleb128 0x1"
    },
    {
      "labels": [],
      "source": null,
      "text": "        .long   0x1417"
    },
    {
      "labels": [],
      "source": null,
      "text": "        .byte   0"
    },
    {
      "labels": [],
      "source": null,
      "text": "        .uleb128 0x28"
    },
    {
      "labels": [
        {
          "name": ".LASF120",
          "range": {
            "endCol": 25,
            "startCol": 17
          }
        }
      ],
      "source": null,
      "text": "        .long   .LASF120"
    },
    {
      "labels": [],
      "source": null,
      "text": "        .value  0x1f5"
    },
    {
      "labels": [
        {
          "name": ".LASF123",
          "range": {
            "endCol": 25,
            "startCol": 17
          }
        }
      ],
      "source": null,
      "text": "        .long   .LASF123"
    },
    {
      "labels": [],
      "source": null,
      "text": "        .long   0x141c"
    },
    {
      "labels": [],
      "source": null,
      "text": "        .long   0xa99"
    },
    {
      "labels": [],
      "source": null,
      "text": "        .long   0xaa4"
    },
    {
      "labels": [],
      "source": null,
      "text": "        .uleb128 0x5"
    },
    {
      "labels": [],
      "source": null,
      "text": "        .long   0x1408"
    },
    {
      "labels": [],
      "source": null,
      "text": "        .uleb128 0x1"
    },
    {
      "labels": [],
      "source": null,
      "text": "        .long   0x534"
    },
    {
      "labels": [],
      "source": null,
      "text": "        .byte   0"
    },
    {
      "labels": [],
      "source": null,
      "text": "        .uleb128 0x18"
    },
    {
      "labels": [
        {
          "name": ".LASF124",
          "range": {
            "endCol": 25,
            "startCol": 17
          }
        }
      ],
      "source": null,
      "text": "        .long   .LASF124"
    },
    {
      "labels": [],
      "source": null,
      "text": "        .value  0x22c"
    },
    {
      "labels": [],
      "source": null,
      "text": "        .byte   0xc"
    },
    {
      "labels": [
        {
          "name": ".LASF125",
          "range": {
            "endCol": 25,
            "startCol": 17
          }
        }
      ],
      "source": null,
      "text": "        .long   .LASF125"
    },
    {
      "labels": [],
      "source": null,
      "text": "        .long   0xab8"
    },
    {
      "labels": [],
      "source": null,
      "text": "        .long   0xac3"
    },
    {
      "labels": [],
      "source": null,
      "text": "        .uleb128 0x5"
    },
    {
      "labels": [],
      "source": null,
      "text": "        .long   0x1408"
    },
    {
      "labels": [],
      "source": null,
      "text": "        .uleb128 0x1"
    },
    {
      "labels": [],
      "source": null,
      "text": "        .long   0x141c"
    },
    {
      "labels": [],
      "source": null,
      "text": "        .byte   0"
    },
    {
      "labels": [],
      "source": null,
      "text": "        .uleb128 0x57"
    },
    {
      "labels": [
        {
          "name": ".LASF256",
          "range": {
            "endCol": 25,
            "startCol": 17
          }
        }
      ],
      "source": null,
      "text": "        .long   .LASF256"
    },
    {
      "labels": [],
      "source": null,
      "text": "        .byte   0x1"
    },
    {
      "labels": [],
      "source": null,
      "text": "        .value  0x23d"
    },
    {
      "labels": [],
      "source": null,
      "text": "        .byte   0x10"
    },
    {
      "labels": [
        {
          "name": ".LASF257",
          "range": {
            "endCol": 25,
            "startCol": 17
          }
        }
      ],
      "source": null,
      "text": "        .long   .LASF257"
    },
    {
      "labels": [],
      "source": null,
      "text": "        .long   0xed2"
    },
    {
      "labels": [],
      "source": null,
      "text": "        .byte   0x1"
    },
    {
      "labels": [],
      "source": null,
      "text": "        .long   0xadd"
    },
    {
      "labels": [],
      "source": null,
      "text": "        .long   0xae3"
    },
    {
      "labels": [],
      "source": null,
      "text": "        .uleb128 0x5"
    },
    {
      "labels": [],
      "source": null,
      "text": "        .long   0x1421"
    },
    {
      "labels": [],
      "source": null,
      "text": "        .byte   0"
    },
    {
      "labels": [],
      "source": null,
      "text": "        .uleb128 0x18"
    },
    {
      "labels": [
        {
          "name": ".LASF60",
          "range": {
            "endCol": 24,
            "startCol": 17
          }
        }
      ],
      "source": null,
      "text": "        .long   .LASF60"
    },
    {
      "labels": [],
      "source": null,
      "text": "        .value  0x24b"
    },
    {
      "labels": [],
      "source": null,
      "text": "        .byte   0x7"
    },
    {
      "labels": [
        {
          "name": ".LASF126",
          "range": {
            "endCol": 25,
            "startCol": 17
          }
        }
      ],
      "source": null,
      "text": "        .long   .LASF126"
    },
    {
      "labels": [],
      "source": null,
      "text": "        .long   0xaf7"
    },
    {
      "labels": [],
      "source": null,
      "text": "        .long   0xafd"
    },
    {
      "labels": [],
      "source": null,
      "text": "        .uleb128 0x5"
    },
    {
      "labels": [],
      "source": null,
      "text": "        .long   0x1421"
    },
    {
      "labels": [],
      "source": null,
      "text": "        .byte   0"
    },
    {
      "labels": [],
      "source": null,
      "text": "        .uleb128 0x28"
    },
    {
      "labels": [
        {
          "name": ".LASF127",
          "range": {
            "endCol": 25,
            "startCol": 17
          }
        }
      ],
      "source": null,
      "text": "        .long   .LASF127"
    },
    {
      "labels": [],
      "source": null,
      "text": "        .value  0x25e"
    },
    {
      "labels": [
        {
          "name": ".LASF128",
          "range": {
            "endCol": 25,
            "startCol": 17
          }
        }
      ],
      "source": null,
      "text": "        .long   .LASF128"
    },
    {
      "labels": [],
      "source": null,
      "text": "        .long   0x142b"
    },
    {
      "labels": [],
      "source": null,
      "text": "        .long   0xb14"
    },
    {
      "labels": [],
      "source": null,
      "text": "        .long   0xb1a"
    },
    {
      "labels": [],
      "source": null,
      "text": "        .uleb128 0x5"
    },
    {
      "labels": [],
      "source": null,
      "text": "        .long   0x1421"
    },
    {
      "labels": [],
      "source": null,
      "text": "        .byte   0"
    },
    {
      "labels": [],
      "source": null,
      "text": "        .uleb128 0x25"
    },
    {
      "labels": [
        {
          "name": ".LASF129",
          "range": {
            "endCol": 25,
            "startCol": 17
          }
        }
      ],
      "source": null,
      "text": "        .long   .LASF129"
    },
    {
      "labels": [],
      "source": null,
      "text": "        .byte   0x1"
    },
    {
      "labels": [],
      "source": null,
      "text": "        .value  0x29b"
    },
    {
      "labels": [],
      "source": null,
      "text": "        .byte   0xd"
    },
    {
      "labels": [],
      "source": null,
      "text": "        .long   0x1430"
    },
    {
      "labels": [],
      "source": null,
      "text": "        .uleb128 0x58"
    },
    {
      "labels": [
        {
          "name": ".LASF130",
          "range": {
            "endCol": 25,
            "startCol": 17
          }
        }
      ],
      "source": null,
      "text": "        .long   .LASF130"
    },
    {
      "labels": [],
      "source": null,
      "text": "        .byte   0x1"
    },
    {
      "labels": [],
      "source": null,
      "text": "        .value  0x29c"
    },
    {
      "labels": [],
      "source": null,
      "text": "        .byte   0x15"
    },
    {
      "labels": [],
      "source": null,
      "text": "        .long   0xb1a"
    },
    {
      "labels": [],
      "source": null,
      "text": "        .byte   0x18"
    },
    {
      "labels": [],
      "source": null,
      "text": "        .uleb128 0x59"
    },
    {
      "labels": [
        {
          "name": ".LASF131",
          "range": {
            "endCol": 25,
            "startCol": 17
          }
        }
      ],
      "source": null,
      "text": "        .long   .LASF131"
    },
    {
      "labels": [],
      "source": null,
      "text": "        .byte   0x1"
    },
    {
      "labels": [],
      "source": null,
      "text": "        .value  0x1b3"
    },
    {
      "labels": [],
      "source": null,
      "text": "        .byte   0x2"
    },
    {
      "labels": [],
      "source": null,
      "text": "        .byte   0x1"
    },
    {
      "labels": [],
      "source": null,
      "text": "        .long   0xb55"
    },
    {
      "labels": [],
      "source": null,
      "text": "        .long   0xb60"
    },
    {
      "labels": [],
      "source": null,
      "text": "        .uleb128 0x12"
    },
    {
      "labels": [
        {
          "name": ".LASF108",
          "range": {
            "endCol": 25,
            "startCol": 17
          }
        }
      ],
      "source": null,
      "text": "        .long   .LASF108"
    },
    {
      "labels": [],
      "source": null,
      "text": "        .long   0x1939"
    },
    {
      "labels": [],
      "source": null,
      "text": "        .uleb128 0x2f"
    },
    {
      "labels": [
        {
          "name": ".LASF132",
          "range": {
            "endCol": 25,
            "startCol": 17
          }
        }
      ],
      "source": null,
      "text": "        .long   .LASF132"
    },
    {
      "labels": [],
      "source": null,
      "text": "        .uleb128 0x5"
    },
    {
      "labels": [],
      "source": null,
      "text": "        .long   0x1408"
    },
    {
      "labels": [],
      "source": null,
      "text": "        .uleb128 0x1"
    },
    {
      "labels": [],
      "source": null,
      "text": "        .long   0x1677"
    },
    {
      "labels": [],
      "source": null,
      "text": "        .byte   0"
    },
    {
      "labels": [],
      "source": null,
      "text": "        .uleb128 0x5a"
    },
    {
      "labels": [
        {
          "name": ".LASF145",
          "range": {
            "endCol": 25,
            "startCol": 17
          }
        }
      ],
      "source": null,
      "text": "        .long   .LASF145"
    },
    {
      "labels": [
        {
          "name": ".LASF258",
          "range": {
            "endCol": 25,
            "startCol": 17
          }
        }
      ],
      "source": null,
      "text": "        .long   .LASF258"
    },
    {
      "labels": [],
      "source": null,
      "text": "        .byte   0x1"
    },
    {
      "labels": [],
      "source": null,
      "text": "        .long   0xb72"
    },
    {
      "labels": [],
      "source": null,
      "text": "        .long   0xb7d"
    },
    {
      "labels": [],
      "source": null,
      "text": "        .uleb128 0x5"
    },
    {
      "labels": [],
      "source": null,
      "text": "        .long   0x1408"
    },
    {
      "labels": [],
      "source": null,
      "text": "        .uleb128 0x5"
    },
    {
      "labels": [],
      "source": null,
      "text": "        .long   0x62"
    },
    {
      "labels": [],
      "source": null,
      "text": "        .byte   0"
    },
    {
      "labels": [],
      "source": null,
      "text": "        .uleb128 0x12"
    },
    {
      "labels": [
        {
          "name": ".LASF133",
          "range": {
            "endCol": 25,
            "startCol": 17
          }
        }
      ],
      "source": null,
      "text": "        .long   .LASF133"
    },
    {
      "labels": [],
      "source": null,
      "text": "        .long   0xf30"
    },
    {
      "labels": [],
      "source": null,
      "text": "        .byte   0"
    },
    {
      "labels": [],
      "source": null,
      "text": "        .uleb128 0x8"
    },
    {
      "labels": [],
      "source": null,
      "text": "        .long   0x9b0"
    },
    {
      "labels": [],
      "source": null,
      "text": "        .uleb128 0x37"
    },
    {
      "labels": [
        {
          "name": ".LASF135",
          "range": {
            "endCol": 25,
            "startCol": 17
          }
        }
      ],
      "source": null,
      "text": "        .long   .LASF135"
    },
    {
      "labels": [],
      "source": null,
      "text": "        .uleb128 0x8"
    },
    {
      "labels": [],
      "source": null,
      "text": "        .long   0xb8c"
    },
    {
      "labels": [],
      "source": null,
      "text": "        .uleb128 0x3c"
    },
    {
      "labels": [
        {
          "name": ".LASF136",
          "range": {
            "endCol": 25,
            "startCol": 17
          }
        }
      ],
      "source": null,
      "text": "        .long   .LASF136"
    },
    {
      "labels": [],
      "source": null,
      "text": "        .byte   0x1"
    },
    {
      "labels": [],
      "source": null,
      "text": "        .value  0x104"
    },
    {
      "labels": [],
      "source": null,
      "text": "        .long   0xbf0"
    },
    {
      "labels": [],
      "source": null,
      "text": "        .uleb128 0x3d"
    },
    {
      "labels": [],
      "source": null,
      "text": "        .long   0x743"
    },
    {
      "labels": [],
      "source": null,
      "text": "        .uleb128 0x5b"
    },
    {
      "labels": [
        {
          "name": ".LASF99",
          "range": {
            "endCol": 24,
            "startCol": 17
          }
        }
      ],
      "source": null,
      "text": "        .long   .LASF99"
    },
    {
      "labels": [],
      "source": null,
      "text": "        .byte   0x1"
    },
    {
      "labels": [],
      "source": null,
      "text": "        .value  0x10b"
    },
    {
      "labels": [],
      "source": null,
      "text": "        .byte   0x7"
    },
    {
      "labels": [],
      "source": null,
      "text": "        .long   0xed2"
    },
    {
      "labels": [],
      "source": null,
      "text": "        .byte   0x1"
    },
    {
      "labels": [],
      "source": null,
      "text": "        .long   0xbc9"
    },
    {
      "labels": [],
      "source": null,
      "text": "        .uleb128 0x1"
    },
    {
      "labels": [],
      "source": null,
      "text": "        .long   0xfa9"
    },
    {
      "labels": [],
      "source": null,
      "text": "        .uleb128 0x1"
    },
    {
      "labels": [],
      "source": null,
      "text": "        .long   0xfae"
    },
    {
      "labels": [],
      "source": null,
      "text": "        .uleb128 0x1"
    },
    {
      "labels": [],
      "source": null,
      "text": "        .long   0x66d"
    },
    {
      "labels": [],
      "source": null,
      "text": "        .byte   0"
    },
    {
      "labels": [],
      "source": null,
      "text": "        .uleb128 0x5c"
    },
    {
      "labels": [
        {
          "name": ".LASF137",
          "range": {
            "endCol": 25,
            "startCol": 17
          }
        }
      ],
      "source": null,
      "text": "        .long   .LASF137"
    },
    {
      "labels": [],
      "source": null,
      "text": "        .byte   0x1"
    },
    {
      "labels": [],
      "source": null,
      "text": "        .value  0x120"
    },
    {
      "labels": [],
      "source": null,
      "text": "        .byte   0x7"
    },
    {
      "labels": [],
      "source": null,
      "text": "        .byte   0x1"
    },
    {
      "labels": [],
      "source": null,
      "text": "        .long   0xbdd"
    },
    {
      "labels": [],
      "source": null,
      "text": "        .uleb128 0x1"
    },
    {
      "labels": [],
      "source": null,
      "text": "        .long   0xfae"
    },
    {
      "labels": [],
      "source": null,
      "text": "        .byte   0"
    },
    {
      "labels": [],
      "source": null,
      "text": "        .uleb128 0x12"
    },
    {
      "labels": [
        {
          "name": ".LASF133",
          "range": {
            "endCol": 25,
            "startCol": 17
          }
        }
      ],
      "source": null,
      "text": "        .long   .LASF133"
    },
    {
      "labels": [],
      "source": null,
      "text": "        .long   0xf30"
    },
    {
      "labels": [],
      "source": null,
      "text": "        .uleb128 0x12"
    },
    {
      "labels": [
        {
          "name": ".LASF108",
          "range": {
            "endCol": 25,
            "startCol": 17
          }
        }
      ],
      "source": null,
      "text": "        .long   .LASF108"
    },
    {
      "labels": [],
      "source": null,
      "text": "        .long   0x1939"
    },
    {
      "labels": [],
      "source": null,
      "text": "        .byte   0"
    },
    {
      "labels": [],
      "source": null,
      "text": "        .uleb128 0x3e"
    },
    {
      "labels": [
        {
          "name": ".LASF138",
          "range": {
            "endCol": 25,
            "startCol": 17
          }
        }
      ],
      "source": null,
      "text": "        .long   .LASF138"
    },
    {
      "labels": [],
      "source": null,
      "text": "        .value  0xcdb"
    },
    {
      "labels": [],
      "source": null,
      "text": "        .long   0xed9"
    },
    {
      "labels": [],
      "source": null,
      "text": "        .byte   0x1"
    },
    {
      "labels": [],
      "source": null,
      "text": "        .uleb128 0x3e"
    },
    {
      "labels": [
        {
          "name": ".LASF139",
          "range": {
            "endCol": 25,
            "startCol": 17
          }
        }
      ],
      "source": null,
      "text": "        .long   .LASF139"
    },
    {
      "labels": [],
      "source": null,
      "text": "        .value  0xcde"
    },
    {
      "labels": [],
      "source": null,
      "text": "        .long   0xed9"
    },
    {
      "labels": [],
      "source": null,
      "text": "        .byte   0"
    },
    {
      "labels": [],
      "source": null,
      "text": "        .uleb128 0x5d"
    },
    {
      "labels": [
        {
          "name": ".LASF259",
          "range": {
            "endCol": 25,
            "startCol": 17
          }
        }
      ],
      "source": null,
      "text": "        .long   .LASF259"
    },
    {
      "labels": [],
      "source": null,
      "text": "        .byte   0x18"
    },
    {
      "labels": [],
      "source": null,
      "text": "        .byte   0x71"
    },
    {
      "labels": [],
      "source": null,
      "text": "        .byte   0x3"
    },
    {
      "labels": [
        {
          "name": ".LASF260",
          "range": {
            "endCol": 25,
            "startCol": 17
          }
        }
      ],
      "source": null,
      "text": "        .long   .LASF260"
    },
    {
      "labels": [],
      "source": null,
      "text": "        .uleb128 0x1c"
    },
    {
      "labels": [
        {
          "name": ".LASF140",
          "range": {
            "endCol": 25,
            "startCol": 17
          }
        }
      ],
      "source": null,
      "text": "        .long   .LASF140"
    },
    {
      "labels": [],
      "source": null,
      "text": "        .byte   0x2"
    },
    {
      "labels": [],
      "source": null,
      "text": "        .byte   0x3c"
    },
    {
      "labels": [],
      "source": null,
      "text": "        .byte   0x5"
    },
    {
      "labels": [],
      "source": null,
      "text": "        .long   0xc3e"
    },
    {
      "labels": [],
      "source": null,
      "text": "        .uleb128 0x1d"
    },
    {
      "labels": [
        {
          "name": ".LASF141",
          "range": {
            "endCol": 25,
            "startCol": 17
          }
        }
      ],
      "source": null,
      "text": "        .long   .LASF141"
    },
    {
      "labels": [],
      "source": null,
      "text": "        .uleb128 0x9"
    },
    {
      "labels": [],
      "source": null,
      "text": "        .string \"_Fn\""
    },
    {
      "labels": [],
      "source": null,
      "text": "        .long   0x14ab"
    },
    {
      "labels": [],
      "source": null,
      "text": "        .uleb128 0x1e"
    },
    {
      "labels": [
        {
          "name": ".LASF143",
          "range": {
            "endCol": 25,
            "startCol": 17
          }
        }
      ],
      "source": null,
      "text": "        .long   .LASF143"
    },
    {
      "labels": [],
      "source": null,
      "text": "        .uleb128 0x1"
    },
    {
      "labels": [],
      "source": null,
      "text": "        .long   0x51a"
    },
    {
      "labels": [],
      "source": null,
      "text": "        .uleb128 0x1"
    },
    {
      "labels": [],
      "source": null,
      "text": "        .long   0x14ab"
    },
    {
      "labels": [],
      "source": null,
      "text": "        .byte   0"
    },
    {
      "labels": [],
      "source": null,
      "text": "        .uleb128 0x5e"
    },
    {
      "labels": [
        {
          "name": ".LASF237",
          "range": {
            "endCol": 25,
            "startCol": 17
          }
        }
      ],
      "source": null,
      "text": "        .long   .LASF237"
    },
    {
      "labels": [],
      "source": null,
      "text": "        .byte   0x2"
    },
    {
      "labels": [],
      "source": null,
      "text": "        .byte   0x68"
    },
    {
      "labels": [],
      "source": null,
      "text": "        .byte   0x5"
    },
    {
      "labels": [],
      "source": null,
      "text": "        .uleb128 0x1d"
    },
    {
      "labels": [
        {
          "name": ".LASF141",
          "range": {
            "endCol": 25,
            "startCol": 17
          }
        }
      ],
      "source": null,
      "text": "        .long   .LASF141"
    },
    {
      "labels": [],
      "source": null,
      "text": "        .uleb128 0x12"
    },
    {
      "labels": [
        {
          "name": ".LASF144",
          "range": {
            "endCol": 25,
            "startCol": 17
          }
        }
      ],
      "source": null,
      "text": "        .long   .LASF144"
    },
    {
      "labels": [],
      "source": null,
      "text": "        .long   0x14ab"
    },
    {
      "labels": [],
      "source": null,
      "text": "        .uleb128 0x1e"
    },
    {
      "labels": [
        {
          "name": ".LASF143",
          "range": {
            "endCol": 25,
            "startCol": 17
          }
        }
      ],
      "source": null,
      "text": "        .long   .LASF143"
    },
    {
      "labels": [],
      "source": null,
      "text": "        .uleb128 0x1"
    },
    {
      "labels": [],
      "source": null,
      "text": "        .long   0x14ab"
    },
    {
      "labels": [],
      "source": null,
      "text": "        .byte   0"
    },
    {
      "labels": [],
      "source": null,
      "text": "        .byte   0"
    },
    {
      "labels": [],
      "source": null,
      "text": "        .uleb128 0x19"
    },
    {
      "labels": [
        {
          "name": ".LASF160",
          "range": {
            "endCol": 25,
            "startCol": 17
          }
        }
      ],
      "source": null,
      "text": "        .long   .LASF160"
    },
    {
      "labels": [],
      "source": null,
      "text": "        .byte   0xa"
    },
    {
      "labels": [],
      "source": null,
      "text": "        .value  0x2f5"
    },
    {
      "labels": [],
      "source": null,
      "text": "        .long   0xc72"
    },
    {
      "labels": [],
      "source": null,
      "text": "        .uleb128 0x1"
    },
    {
      "labels": [],
      "source": null,
      "text": "        .long   0x331"
    },
    {
      "labels": [],
      "source": null,
      "text": "        .byte   0"
    },
    {
      "labels": [],
      "source": null,
      "text": "        .uleb128 0xd"
    },
    {
      "labels": [
        {
          "name": ".LASF146",
          "range": {
            "endCol": 25,
            "startCol": 17
          }
        }
      ],
      "source": null,
      "text": "        .long   .LASF146"
    },
    {
      "labels": [],
      "source": null,
      "text": "        .byte   0xa"
    },
    {
      "labels": [],
      "source": null,
      "text": "        .byte   0xd5"
    },
    {
      "labels": [],
      "source": null,
      "text": "        .byte   0xc"
    },
    {
      "labels": [],
      "source": null,
      "text": "        .long   0x62"
    },
    {
      "labels": [],
      "source": null,
      "text": "        .long   0xc88"
    },
    {
      "labels": [],
      "source": null,
      "text": "        .uleb128 0x1"
    },
    {
      "labels": [],
      "source": null,
      "text": "        .long   0x331"
    },
    {
      "labels": [],
      "source": null,
      "text": "        .byte   0"
    },
    {
      "labels": [],
      "source": null,
      "text": "        .uleb128 0x7"
    },
    {
      "labels": [
        {
          "name": ".LASF147",
          "range": {
            "endCol": 25,
            "startCol": 17
          }
        }
      ],
      "source": null,
      "text": "        .long   .LASF147"
    },
    {
      "labels": [],
      "source": null,
      "text": "        .byte   0xa"
    },
    {
      "labels": [],
      "source": null,
      "text": "        .value  0x2f7"
    },
    {
      "labels": [],
      "source": null,
      "text": "        .byte   0xc"
    },
    {
      "labels": [],
      "source": null,
      "text": "        .long   0x62"
    },
    {
      "labels": [],
      "source": null,
      "text": "        .long   0xc9f"
    },
    {
      "labels": [],
      "source": null,
      "text": "        .uleb128 0x1"
    },
    {
      "labels": [],
      "source": null,
      "text": "        .long   0x331"
    },
    {
      "labels": [],
      "source": null,
      "text": "        .byte   0"
    },
    {
      "labels": [],
      "source": null,
      "text": "        .uleb128 0x7"
    },
    {
      "labels": [
        {
          "name": ".LASF148",
          "range": {
            "endCol": 25,
            "startCol": 17
          }
        }
      ],
      "source": null,
      "text": "        .long   .LASF148"
    },
    {
      "labels": [],
      "source": null,
      "text": "        .byte   0xa"
    },
    {
      "labels": [],
      "source": null,
      "text": "        .value  0x2f9"
    },
    {
      "labels": [],
      "source": null,
      "text": "        .byte   0xc"
    },
    {
      "labels": [],
      "source": null,
      "text": "        .long   0x62"
    },
    {
      "labels": [],
      "source": null,
      "text": "        .long   0xcb6"
    },
    {
      "labels": [],
      "source": null,
      "text": "        .uleb128 0x1"
    },
    {
      "labels": [],
      "source": null,
      "text": "        .long   0x331"
    },
    {
      "labels": [],
      "source": null,
      "text": "        .byte   0"
    },
    {
      "labels": [],
      "source": null,
      "text": "        .uleb128 0xd"
    },
    {
      "labels": [
        {
          "name": ".LASF149",
          "range": {
            "endCol": 25,
            "startCol": 17
          }
        }
      ],
      "source": null,
      "text": "        .long   .LASF149"
    },
    {
      "labels": [],
      "source": null,
      "text": "        .byte   0xa"
    },
    {
      "labels": [],
      "source": null,
      "text": "        .byte   0xda"
    },
    {
      "labels": [],
      "source": null,
      "text": "        .byte   0xc"
    },
    {
      "labels": [],
      "source": null,
      "text": "        .long   0x62"
    },
    {
      "labels": [],
      "source": null,
      "text": "        .long   0xccc"
    },
    {
      "labels": [],
      "source": null,
      "text": "        .uleb128 0x1"
    },
    {
      "labels": [],
      "source": null,
      "text": "        .long   0x331"
    },
    {
      "labels": [],
      "source": null,
      "text": "        .byte   0"
    },
    {
      "labels": [],
      "source": null,
      "text": "        .uleb128 0x7"
    },
    {
      "labels": [
        {
          "name": ".LASF150",
          "range": {
            "endCol": 25,
            "startCol": 17
          }
        }
      ],
      "source": null,
      "text": "        .long   .LASF150"
    },
    {
      "labels": [],
      "source": null,
      "text": "        .byte   0xa"
    },
    {
      "labels": [],
      "source": null,
      "text": "        .value  0x1e5"
    },
    {
      "labels": [],
      "source": null,
      "text": "        .byte   0xc"
    },
    {
      "labels": [],
      "source": null,
      "text": "        .long   0x62"
    },
    {
      "labels": [],
      "source": null,
      "text": "        .long   0xce3"
    },
    {
      "labels": [],
      "source": null,
      "text": "        .uleb128 0x1"
    },
    {
      "labels": [],
      "source": null,
      "text": "        .long   0x331"
    },
    {
      "labels": [],
      "source": null,
      "text": "        .byte   0"
    },
    {
      "labels": [],
      "source": null,
      "text": "        .uleb128 0x7"
    },
    {
      "labels": [
        {
          "name": ".LASF151",
          "range": {
            "endCol": 25,
            "startCol": 17
          }
        }
      ],
      "source": null,
      "text": "        .long   .LASF151"
    },
    {
      "labels": [],
      "source": null,
      "text": "        .byte   0xa"
    },
    {
      "labels": [],
      "source": null,
      "text": "        .value  0x2db"
    },
    {
      "labels": [],
      "source": null,
      "text": "        .byte   0xc"
    },
    {
      "labels": [],
      "source": null,
      "text": "        .long   0x62"
    },
    {
      "labels": [],
      "source": null,
      "text": "        .long   0xcff"
    },
    {
      "labels": [],
      "source": null,
      "text": "        .uleb128 0x1"
    },
    {
      "labels": [],
      "source": null,
      "text": "        .long   0x331"
    },
    {
      "labels": [],
      "source": null,
      "text": "        .uleb128 0x1"
    },
    {
      "labels": [],
      "source": null,
      "text": "        .long   0xcff"
    },
    {
      "labels": [],
      "source": null,
      "text": "        .byte   0"
    },
    {
      "labels": [],
      "source": null,
      "text": "        .uleb128 0x6"
    },
    {
      "labels": [],
      "source": null,
      "text": "        .long   0x320"
    },
    {
      "labels": [],
      "source": null,
      "text": "        .uleb128 0x7"
    },
    {
      "labels": [
        {
          "name": ".LASF152",
          "range": {
            "endCol": 25,
            "startCol": 17
          }
        }
      ],
      "source": null,
      "text": "        .long   .LASF152"
    },
    {
      "labels": [],
      "source": null,
      "text": "        .byte   0xa"
    },
    {
      "labels": [],
      "source": null,
      "text": "        .value  0x234"
    },
    {
      "labels": [],
      "source": null,
      "text": "        .byte   0xe"
    },
    {
      "labels": [],
      "source": null,
      "text": "        .long   0x8d"
    },
    {
      "labels": [],
      "source": null,
      "text": "        .long   0xd25"
    },
    {
      "labels": [],
      "source": null,
      "text": "        .uleb128 0x1"
    },
    {
      "labels": [],
      "source": null,
      "text": "        .long   0x8d"
    },
    {
      "labels": [],
      "source": null,
      "text": "        .uleb128 0x1"
    },
    {
      "labels": [],
      "source": null,
      "text": "        .long   0x62"
    },
    {
      "labels": [],
      "source": null,
      "text": "        .uleb128 0x1"
    },
    {
      "labels": [],
      "source": null,
      "text": "        .long   0x331"
    },
    {
      "labels": [],
      "source": null,
      "text": "        .byte   0"
    },
    {
      "labels": [],
      "source": null,
      "text": "        .uleb128 0xd"
    },
    {
      "labels": [
        {
          "name": ".LASF153",
          "range": {
            "endCol": 25,
            "startCol": 17
          }
        }
      ],
      "source": null,
      "text": "        .long   .LASF153"
    },
    {
      "labels": [],
      "source": null,
      "text": "        .byte   0xa"
    },
    {
      "labels": [],
      "source": null,
      "text": "        .byte   0xf6"
    },
    {
      "labels": [],
      "source": null,
      "text": "        .byte   0xe"
    },
    {
      "labels": [],
      "source": null,
      "text": "        .long   0x331"
    },
    {
      "labels": [],
      "source": null,
      "text": "        .long   0xd40"
    },
    {
      "labels": [],
      "source": null,
      "text": "        .uleb128 0x1"
    },
    {
      "labels": [],
      "source": null,
      "text": "        .long   0x31b"
    },
    {
      "labels": [],
      "source": null,
      "text": "        .uleb128 0x1"
    },
    {
      "labels": [],
      "source": null,
      "text": "        .long   0x31b"
    },
    {
      "labels": [],
      "source": null,
      "text": "        .byte   0"
    },
    {
      "labels": [],
      "source": null,
      "text": "        .uleb128 0x7"
    },
    {
      "labels": [
        {
          "name": ".LASF154",
          "range": {
            "endCol": 25,
            "startCol": 17
          }
        }
      ],
      "source": null,
      "text": "        .long   .LASF154"
    },
    {
      "labels": [],
      "source": null,
      "text": "        .byte   0xa"
    },
    {
      "labels": [],
      "source": null,
      "text": "        .value  0x286"
    },
    {
      "labels": [],
      "source": null,
      "text": "        .byte   0xf"
    },
    {
      "labels": [],
      "source": null,
      "text": "        .long   0x2a"
    },
    {
      "labels": [],
      "source": null,
      "text": "        .long   0xd66"
    },
    {
      "labels": [],
      "source": null,
      "text": "        .uleb128 0x1"
    },
    {
      "labels": [],
      "source": null,
      "text": "        .long   0x44"
    },
    {
      "labels": [],
      "source": null,
      "text": "        .uleb128 0x1"
    },
    {
      "labels": [],
      "source": null,
      "text": "        .long   0x2a"
    },
    {
      "labels": [],
      "source": null,
      "text": "        .uleb128 0x1"
    },
    {
      "labels": [],
      "source": null,
      "text": "        .long   0x2a"
    },
    {
      "labels": [],
      "source": null,
      "text": "        .uleb128 0x1"
    },
    {
      "labels": [],
      "source": null,
      "text": "        .long   0x331"
    },
    {
      "labels": [],
      "source": null,
      "text": "        .byte   0"
    },
    {
      "labels": [],
      "source": null,
      "text": "        .uleb128 0xd"
    },
    {
      "labels": [
        {
          "name": ".LASF155",
          "range": {
            "endCol": 25,
            "startCol": 17
          }
        }
      ],
      "source": null,
      "text": "        .long   .LASF155"
    },
    {
      "labels": [],
      "source": null,
      "text": "        .byte   0xa"
    },
    {
      "labels": [],
      "source": null,
      "text": "        .byte   0xfc"
    },
    {
      "labels": [],
      "source": null,
      "text": "        .byte   0xe"
    },
    {
      "labels": [],
      "source": null,
      "text": "        .long   0x331"
    },
    {
      "labels": [],
      "source": null,
      "text": "        .long   0xd86"
    },
    {
      "labels": [],
      "source": null,
      "text": "        .uleb128 0x1"
    },
    {
      "labels": [],
      "source": null,
      "text": "        .long   0x31b"
    },
    {
      "labels": [],
      "source": null,
      "text": "        .uleb128 0x1"
    },
    {
      "labels": [],
      "source": null,
      "text": "        .long   0x31b"
    },
    {
      "labels": [],
      "source": null,
      "text": "        .uleb128 0x1"
    },
    {
      "labels": [],
      "source": null,
      "text": "        .long   0x331"
    },
    {
      "labels": [],
      "source": null,
      "text": "        .byte   0"
    },
    {
      "labels": [],
      "source": null,
      "text": "        .uleb128 0x7"
    },
    {
      "labels": [
        {
          "name": ".LASF156",
          "range": {
            "endCol": 25,
            "startCol": 17
          }
        }
      ],
      "source": null,
      "text": "        .long   .LASF156"
    },
    {
      "labels": [],
      "source": null,
      "text": "        .byte   0xa"
    },
    {
      "labels": [],
      "source": null,
      "text": "        .value  0x2ac"
    },
    {
      "labels": [],
      "source": null,
      "text": "        .byte   0xc"
    },
    {
      "labels": [],
      "source": null,
      "text": "        .long   0x62"
    },
    {
      "labels": [],
      "source": null,
      "text": "        .long   0xda7"
    },
    {
      "labels": [],
      "source": null,
      "text": "        .uleb128 0x1"
    },
    {
      "labels": [],
      "source": null,
      "text": "        .long   0x331"
    },
    {
      "labels": [],
      "source": null,
      "text": "        .uleb128 0x1"
    },
    {
      "labels": [],
      "source": null,
      "text": "        .long   0x6e"
    },
    {
      "labels": [],
      "source": null,
      "text": "        .uleb128 0x1"
    },
    {
      "labels": [],
      "source": null,
      "text": "        .long   0x62"
    },
    {
      "labels": [],
      "source": null,
      "text": "        .byte   0"
    },
    {
      "labels": [],
      "source": null,
      "text": "        .uleb128 0x7"
    },
    {
      "labels": [
        {
          "name": ".LASF157",
          "range": {
            "endCol": 25,
            "startCol": 17
          }
        }
      ],
      "source": null,
      "text": "        .long   .LASF157"
    },
    {
      "labels": [],
      "source": null,
      "text": "        .byte   0xa"
    },
    {
      "labels": [],
      "source": null,
      "text": "        .value  0x2e0"
    },
    {
      "labels": [],
      "source": null,
      "text": "        .byte   0xc"
    },
    {
      "labels": [],
      "source": null,
      "text": "        .long   0x62"
    },
    {
      "labels": [],
      "source": null,
      "text": "        .long   0xdc3"
    },
    {
      "labels": [],
      "source": null,
      "text": "        .uleb128 0x1"
    },
    {
      "labels": [],
      "source": null,
      "text": "        .long   0x331"
    },
    {
      "labels": [],
      "source": null,
      "text": "        .uleb128 0x1"
    },
    {
      "labels": [],
      "source": null,
      "text": "        .long   0xdc3"
    },
    {
      "labels": [],
      "source": null,
      "text": "        .byte   0"
    },
    {
      "labels": [],
      "source": null,
      "text": "        .uleb128 0x6"
    },
    {
      "labels": [],
      "source": null,
      "text": "        .long   0x32c"
    },
    {
      "labels": [],
      "source": null,
      "text": "        .uleb128 0x7"
    },
    {
      "labels": [
        {
          "name": ".LASF158",
          "range": {
            "endCol": 25,
            "startCol": 17
          }
        }
      ],
      "source": null,
      "text": "        .long   .LASF158"
    },
    {
      "labels": [],
      "source": null,
      "text": "        .byte   0xa"
    },
    {
      "labels": [],
      "source": null,
      "text": "        .value  0x2b1"
    },
    {
      "labels": [],
      "source": null,
      "text": "        .byte   0x11"
    },
    {
      "labels": [],
      "source": null,
      "text": "        .long   0x6e"
    },
    {
      "labels": [],
      "source": null,
      "text": "        .long   0xddf"
    },
    {
      "labels": [],
      "source": null,
      "text": "        .uleb128 0x1"
    },
    {
      "labels": [],
      "source": null,
      "text": "        .long   0x331"
    },
    {
      "labels": [],
      "source": null,
      "text": "        .byte   0"
    },
    {
      "labels": [],
      "source": null,
      "text": "        .uleb128 0x7"
    },
    {
      "labels": [
        {
          "name": ".LASF159",
          "range": {
            "endCol": 25,
            "startCol": 17
          }
        }
      ],
      "source": null,
      "text": "        .long   .LASF159"
    },
    {
      "labels": [],
      "source": null,
      "text": "        .byte   0xa"
    },
    {
      "labels": [],
      "source": null,
      "text": "        .value  0x1e6"
    },
    {
      "labels": [],
      "source": null,
      "text": "        .byte   0xc"
    },
    {
      "labels": [],
      "source": null,
      "text": "        .long   0x62"
    },
    {
      "labels": [],
      "source": null,
      "text": "        .long   0xdf6"
    },
    {
      "labels": [],
      "source": null,
      "text": "        .uleb128 0x1"
    },
    {
      "labels": [],
      "source": null,
      "text": "        .long   0x331"
    },
    {
      "labels": [],
      "source": null,
      "text": "        .byte   0"
    },
    {
      "labels": [],
      "source": null,
      "text": "        .uleb128 0x3f"
    },
    {
      "labels": [
        {
          "name": ".LASF167",
          "range": {
            "endCol": 25,
            "startCol": 17
          }
        }
      ],
      "source": null,
      "text": "        .long   .LASF167"
    },
    {
      "labels": [],
      "source": null,
      "text": "        .byte   0x12"
    },
    {
      "labels": [],
      "source": null,
      "text": "        .byte   0x2f"
    },
    {
      "labels": [],
      "source": null,
      "text": "        .byte   0x1"
    },
    {
      "labels": [],
      "source": null,
      "text": "        .long   0x62"
    },
    {
      "labels": [],
      "source": null,
      "text": "        .uleb128 0x19"
    },
    {
      "labels": [
        {
          "name": ".LASF161",
          "range": {
            "endCol": 25,
            "startCol": 17
          }
        }
      ],
      "source": null,
      "text": "        .long   .LASF161"
    },
    {
      "labels": [],
      "source": null,
      "text": "        .byte   0xa"
    },
    {
      "labels": [],
      "source": null,
      "text": "        .value  0x307"
    },
    {
      "labels": [],
      "source": null,
      "text": "        .long   0xe14"
    },
    {
      "labels": [],
      "source": null,
      "text": "        .uleb128 0x1"
    },
    {
      "labels": [],
      "source": null,
      "text": "        .long   0x31b"
    },
    {
      "labels": [],
      "source": null,
      "text": "        .byte   0"
    },
    {
      "labels": [],
      "source": null,
      "text": "        .uleb128 0xd"
    },
    {
      "labels": [
        {
          "name": ".LASF162",
          "range": {
            "endCol": 25,
            "startCol": 17
          }
        }
      ],
      "source": null,
      "text": "        .long   .LASF162"
    },
    {
      "labels": [],
      "source": null,
      "text": "        .byte   0xa"
    },
    {
      "labels": [],
      "source": null,
      "text": "        .byte   0x92"
    },
    {
      "labels": [],
      "source": null,
      "text": "        .byte   0xc"
    },
    {
      "labels": [],
      "source": null,
      "text": "        .long   0x62"
    },
    {
      "labels": [],
      "source": null,
      "text": "        .long   0xe2a"
    },
    {
      "labels": [],
      "source": null,
      "text": "        .uleb128 0x1"
    },
    {
      "labels": [],
      "source": null,
      "text": "        .long   0x31b"
    },
    {
      "labels": [],
      "source": null,
      "text": "        .byte   0"
    },
    {
      "labels": [],
      "source": null,
      "text": "        .uleb128 0xd"
    },
    {
      "labels": [
        {
          "name": ".LASF163",
