        .file   "example.cpp"
        .intel_syntax noprefix
        .text
.Ltext0:
        .file 0 "/app" "/app/example.cpp"
        .p2align 4
        .type   std::_Function_handler<void (), main::{lambda()#1}>::_M_invoke(std::_Any_data const&), @function
std::_Function_handler<void (), main::{lambda()#1}>::_M_invoke(std::_Any_data const&):
.LVL0:
.LFB2152:
        .file 1 "/opt/compiler-explorer/gcc-12.2.0/include/c++/12.2.0/bits/std_function.h"
        .loc 1 288 7 view -0
        .cfi_startproc
.LBB138:
.LBI138:
        .file 2 "/opt/compiler-explorer/gcc-12.2.0/include/c++/12.2.0/bits/invoke.h"
        .loc 2 104 5 view .LVU1
.LBB139:
.LBB140:
.LBI140:
        .loc 2 60 5 view .LVU2
.LBB141:
.LBI141:
        .file 3 "/app/example.cpp"
        .loc 3 23 12 view .LVU3
.LBB142:
        .loc 3 23 19 view .LVU4
        .loc 3 23 25 is_stmt 0 view .LVU5
        mov     rdi, QWORD PTR [rdi]
.LVL1:
        .loc 3 23 25 view .LVU6
        jmp     fclose
.LVL2:
.LBE142:
.LBE141:
.LBE140:
.LBE139:
.LBE138:
        .cfi_endproc
.LFE2152:
        .size   std::_Function_handler<void (), main::{lambda()#1}>::_M_invoke(std::_Any_data const&), .-std::_Function_handler<void (), main::{lambda()#1}>::_M_invoke(std::_Any_data const&)
        .p2align 4
        .type   std::_Function_handler<void (), main::{lambda()#1}>::_M_manager(std::_Any_data&, std::_Any_data const&, std::_Manager_operation), @function
std::_Function_handler<void (), main::{lambda()#1}>::_M_manager(std::_Any_data&, std::_Any_data const&, std::_Manager_operation):
.LVL3:
.LFB2156:
        .loc 1 267 7 is_stmt 1 view -0
        .cfi_startproc
        .loc 1 270 2 is_stmt 0 view .LVU8
        test    edx, edx
        je      .L4
        cmp     edx, 1
        je      .L5
.LVL4:
.LBB177:
.LBI177:
        .loc 1 180 2 is_stmt 1 view .LVU9
.LBB178:
        .loc 1 183 4 is_stmt 0 view .LVU10
        cmp     edx, 2
        je      .L9
.L7:
.LVL5:
        .loc 1 183 4 view .LVU11
.LBE178:
.LBE177:
        .loc 1 285 7 view .LVU12
        xor     eax, eax
        ret
        .p2align 4,,10
        .p2align 3
.L4:
        .loc 1 274 43 view .LVU13
        mov     QWORD PTR [rdi], OFFSET FLAT:typeinfo for main::{lambda()#1}
        .loc 1 285 7 view .LVU14
        xor     eax, eax
        ret
        .p2align 4,,10
        .p2align 3
.L5:
.LVL6:
.LBB184:
.LBI184:
        .loc 1 134 2 is_stmt 1 view .LVU15
.LBB185:
.LBB186:
.LBI186:
        .loc 1 95 7 view .LVU16
.LBB187:
.LBI187:
        .loc 1 86 17 view .LVU17
.LBB188:
        .loc 1 86 46 view .LVU18
        .loc 1 86 46 is_stmt 0 view .LVU19
.LBE188:
.LBE187:
.LBE186:
.LBE185:
.LBE184:
        .loc 1 278 36 view .LVU20
        mov     QWORD PTR [rdi], rsi
        .loc 1 285 7 view .LVU21
        xor     eax, eax
        ret
.LVL7:
        .p2align 4,,10
        .p2align 3
.L9:
.LBB189:
.LBB183:
.LBB179:
.LBI179:
        .loc 1 211 4 is_stmt 1 view .LVU22
.LBB180:
.LBB181:
.LBI181:
        .loc 1 150 4 view .LVU23
.LBB182:
        .loc 1 152 6 is_stmt 0 view .LVU24
        mov     rax, QWORD PTR [rsi]
        mov     QWORD PTR [rdi], rax
.LVL8:
        .loc 1 152 6 view .LVU25
.LBE182:
.LBE181:
        .loc 1 216 4 view .LVU26
        jmp     .L7
.LBE180:
.LBE179:
.LBE183:
.LBE189:
        .cfi_endproc
.LFE2156:
        .size   std::_Function_handler<void (), main::{lambda()#1}>::_M_manager(std::_Any_data&, std::_Any_data const&, std::_Manager_operation), .-std::_Function_handler<void (), main::{lambda()#1}>::_M_manager(std::_Any_data&, std::_Any_data const&, std::_Manager_operation)
        .section        .text.std::_Function_base::~_Function_base() [base object destructor],"axG",@progbits,_ZNSt14_Function_baseD5Ev,comdat
        .align 2
        .p2align 4
        .weak   std::_Function_base::~_Function_base() [base object destructor]
        .type   std::_Function_base::~_Function_base() [base object destructor], @function
std::_Function_base::~_Function_base() [base object destructor]:
.LVL9:
.LFB467:
        .loc 1 241 5 is_stmt 1 view -0
        .cfi_startproc
        .cfi_personality 0x3,__gxx_personality_v0
        .cfi_lsda 0x3,.LLSDA467
.LBB190:
        .loc 1 243 7 view .LVU28
        .loc 1 243 11 is_stmt 0 view .LVU29
        mov     rax, QWORD PTR [rdi+16]
        .loc 1 243 7 view .LVU30
        test    rax, rax
        je      .L16
        .loc 1 244 2 is_stmt 1 view .LVU31
.LBE190:
        .loc 1 241 5 is_stmt 0 view .LVU32
        sub     rsp, 8
        .cfi_def_cfa_offset 16
.LBB191:
        .loc 1 244 12 view .LVU33
        mov     edx, 3
        mov     rsi, rdi
        call    rax
.LVL10:
        .loc 1 244 12 view .LVU34
.LBE191:
        .loc 1 245 5 view .LVU35
        add     rsp, 8
        .cfi_def_cfa_offset 8
        ret
.LVL11:
        .p2align 4,,10
        .p2align 3
.L16:
        .loc 1 245 5 view .LVU36
        ret
        .cfi_endproc
.LFE467:
        .globl  __gxx_personality_v0
        .section        .gcc_except_table.std::_Function_base::~_Function_base() [base object destructor],"aG",@progbits,_ZNSt14_Function_baseD5Ev,comdat
.LLSDA467:
        .byte   0xff
        .byte   0xff
        .byte   0x1
        .uleb128 .LLSDACSE467-.LLSDACSB467
.LLSDACSB467:
.LLSDACSE467:
        .section        .text.std::_Function_base::~_Function_base() [base object destructor],"axG",@progbits,_ZNSt14_Function_baseD5Ev,comdat
        .size   std::_Function_base::~_Function_base() [base object destructor], .-std::_Function_base::~_Function_base() [base object destructor]
        .weak   _ZNSt14_Function_baseD1Ev
        .set    _ZNSt14_Function_baseD1Ev,std::_Function_base::~_Function_base() [base object destructor]
        .section        .rodata.str1.1,"aMS",@progbits,1
.LC0:
        .string "r"
.LC1:
        .string ""
        .section        .text.startup,"ax",@progbits
        .p2align 4
        .globl  main
        .type   main, @function
main:
.LFB2122:
        .loc 3 21 1 is_stmt 1 view -0
        .cfi_startproc
        .cfi_personality 0x3,__gxx_personality_v0
        .cfi_lsda 0x3,.LLSDA2122
        mov     eax, OFFSET FLAT:std::_Function_handler<void (), main::{lambda()#1}>::_M_manager(std::_Any_data&, std::_Any_data const&, std::_Manager_operation)
        sub     rsp, 88
        .cfi_def_cfa_offset 96
        .loc 3 22 20 is_stmt 0 view .LVU38
        mov     esi, OFFSET FLAT:.LC0
        mov     edi, OFFSET FLAT:.LC1
        movq    xmm0, rax
        movhps  xmm0, QWORD PTR .LC2[rip]
        movaps  XMMWORD PTR [rsp], xmm0
        .loc 3 22 5 is_stmt 1 view .LVU39
.LEHB0:
        .loc 3 22 20 is_stmt 0 view .LVU40
        call    fopen
.LVL12:
.LEHE0:
        .loc 3 23 5 is_stmt 1 view .LVU41
.LBB243:
.LBI243:
        .loc 1 435 2 view .LVU42
.LBB244:
.LBB245:
.LBB246:
        .loc 1 452 19 is_stmt 0 view .LVU43
        movdqa  xmm0, XMMWORD PTR [rsp]
.LBE246:
.LBE245:
.LBE244:
.LBE243:
.LBB258:
.LBB259:
        .loc 1 334 11 view .LVU44
        lea     rdi, [rsp+48]
.LVL13:
        .loc 1 334 11 view .LVU45
.LBE259:
.LBE258:
.LBB261:
.LBB256:
.LBB254:
        .loc 1 437 19 view .LVU46
        mov     QWORD PTR [rsp+56], 0
.LVL14:
.LBB251:
.LBI251:
        .loc 1 239 5 is_stmt 1 view .LVU47
        .loc 1 239 5 is_stmt 0 view .LVU48
.LBE251:
.LBB252:
.LBB247:
.LBI247:
        .loc 1 235 4 is_stmt 1 view .LVU49
        .loc 1 235 4 is_stmt 0 view .LVU50
.LBE247:
.LBB248:
.LBI248:
        .loc 1 211 4 is_stmt 1 view .LVU51
.LBB249:
.LBI249:
        .loc 1 150 4 view .LVU52
.LBB250:
        .loc 1 152 6 is_stmt 0 view .LVU53
        mov     QWORD PTR [rsp+48], rax
.LVL15:
        .loc 1 152 6 view .LVU54
.LBE250:
.LBE249:
.LBE248:
.LBE252:
.LBE254:
.LBE256:
.LBE261:
.LBB262:
.LBB263:
.LBB264:
.LBB265:
        .loc 1 387 24 view .LVU55
        mov     QWORD PTR [rsp+24], 0
.LBB266:
.LBB267:
.LBB268:
.LBB269:
.LBB270:
        .loc 1 152 6 view .LVU56
        mov     QWORD PTR [rsp+16], rax
.LBE270:
.LBE269:
.LBE268:
.LBE267:
.LBE266:
.LBE265:
.LBE264:
.LBE263:
.LBE262:
.LBB280:
.LBB257:
.LBB255:
.LBB253:
        .loc 1 452 19 view .LVU57
        movaps  XMMWORD PTR [rsp+64], xmm0
.LVL16:
        .loc 1 452 19 view .LVU58
.LBE253:
.LBE255:
.LBE257:
.LBE280:
.LBB281:
.LBI262:
        .loc 3 7 5 is_stmt 1 view .LVU59
.LBB279:
.LBI263:
        .loc 1 386 7 view .LVU60
.LBB278:
.LBB277:
.LBB274:
.LBI274:
        .loc 1 239 5 view .LVU61
        .loc 1 239 5 is_stmt 0 view .LVU62
.LBE274:
.LBB275:
.LBI275:
        .loc 1 573 16 is_stmt 1 view .LVU63
        .loc 1 573 16 is_stmt 0 view .LVU64
.LBE275:
.LBB276:
.LBI266:
        .loc 1 267 7 is_stmt 1 view .LVU65
.LBB273:
.LBI267:
        .loc 1 180 2 view .LVU66
.LBB272:
.LBI268:
        .loc 1 211 4 view .LVU67
.LBB271:
.LBI269:
        .loc 1 150 4 view .LVU68
        .loc 1 150 4 is_stmt 0 view .LVU69
.LBE271:
.LBE272:
.LBE273:
.LBE276:
        .loc 1 393 17 view .LVU70
        movaps  XMMWORD PTR [rsp+32], xmm0
.LVL17:
        .loc 1 393 17 view .LVU71
.LBE277:
.LBE278:
.LBE279:
.LBE281:
.LBB282:
.LBI258:
        .loc 1 334 11 is_stmt 1 view .LVU72
.LBB260:
        call    std::_Function_base::~_Function_base() [base object destructor]
.LVL18:
        .loc 1 334 11 is_stmt 0 view .LVU73
.LBE260:
.LBE282:
.LBB283:
.LBI283:
        .loc 3 12 5 is_stmt 1 view .LVU74
.LBB284:
        .loc 3 14 9 view .LVU75
.LBB285:
.LBI285:
        .loc 1 587 7 view .LVU76
.LBB286:
.LBB287:
.LBI287:
        .loc 1 247 10 view .LVU77
.LBB288:
        .loc 1 247 29 view .LVU78
        .loc 1 247 29 is_stmt 0 view .LVU79
.LBE288:
.LBE287:
        .loc 1 589 2 view .LVU80
        cmp     QWORD PTR [rsp+32], 0
        je      .L22
        .loc 1 591 9 view .LVU81
        lea     rdi, [rsp+16]
.LVL19:
        .loc 1 591 9 view .LVU82
        call    [QWORD PTR [rsp+40]]
.LVL20:
        .loc 1 591 9 view .LVU83
.LBE286:
.LBE285:
.LBB290:
.LBI290:
        .loc 1 334 11 is_stmt 1 view .LVU84
.LBB291:
        lea     rdi, [rsp+16]
.LVL21:
        .loc 1 334 11 is_stmt 0 view .LVU85
        call    std::_Function_base::~_Function_base() [base object destructor]
.LVL22:
        .loc 1 334 11 view .LVU86
.LBE291:
.LBE290:
.LBE284:
.LBE283:
        .loc 3 24 1 view .LVU87
        xor     eax, eax
        add     rsp, 88
        .cfi_remember_state
        .cfi_def_cfa_offset 8
        ret
.LVL23:
.L22:
        .cfi_restore_state
.LBB294:
.LBB293:
.LBB292:
.LBB289:
        .loc 1 590 29 view .LVU88
        call    std::__throw_bad_function_call()
.LVL24:
.LBE289:
.LBE292:
.LBE293:
.LBE294:
        .cfi_endproc
.LFE2122:
        .section        .gcc_except_table,"a",@progbits
.LLSDA2122:
        .byte   0xff
        .byte   0xff
        .byte   0x1
        .uleb128 .LLSDACSE2122-.LLSDACSB2122
.LLSDACSB2122:
        .uleb128 .LEHB0-.LFB2122
        .uleb128 .LEHE0-.LEHB0
        .uleb128 0
        .uleb128 0
.LLSDACSE2122:
        .section        .text.startup
        .size   main, .-main
        .section        .rodata
        .align 8
        .type   typeinfo for main::{lambda()#1}, @object
        .size   typeinfo for main::{lambda()#1}, 16
typeinfo for main::{lambda()#1}:
        .quad   vtable for __cxxabiv1::__class_type_info+16
        .quad   typeinfo name for main::{lambda()#1}
        .align 8
        .type   typeinfo name for main::{lambda()#1}, @object
        .size   typeinfo name for main::{lambda()#1}, 14
typeinfo name for main::{lambda()#1}:
        .string "*Z4mainEUlvE_"
        .section        .rodata.cst8,"aM",@progbits,8
        .align 8
.LC2:
        .quad   std::_Function_handler<void (), main::{lambda()#1}>::_M_invoke(std::_Any_data const&)
        .text
.Letext0:
        .file 4 "/opt/compiler-explorer/gcc-12.2.0/lib/gcc/x86_64-linux-gnu/12.2.0/include/stddef.h"
        .file 5 "/usr/include/x86_64-linux-gnu/bits/types.h"
        .file 6 "/usr/include/x86_64-linux-gnu/bits/types/__mbstate_t.h"
        .file 7 "/usr/include/x86_64-linux-gnu/bits/types/__fpos_t.h"
        .file 8 "/usr/include/x86_64-linux-gnu/bits/types/struct_FILE.h"
        .file 9 "/usr/include/x86_64-linux-gnu/bits/types/FILE.h"
        .file 10 "/usr/include/stdio.h"
        .file 11 "/opt/compiler-explorer/gcc-12.2.0/include/c++/12.2.0/cstdio"
        .file 12 "/opt/compiler-explorer/gcc-12.2.0/include/c++/12.2.0/type_traits"
        .file 13 "/opt/compiler-explorer/gcc-12.2.0/include/c++/12.2.0/x86_64-linux-gnu/bits/c++config.h"
        .file 14 "/opt/compiler-explorer/gcc-12.2.0/include/c++/12.2.0/debug/debug.h"
        .file 15 "/opt/compiler-explorer/gcc-12.2.0/include/c++/12.2.0/cstdlib"
        .file 16 "/opt/compiler-explorer/gcc-12.2.0/include/c++/12.2.0/functional"
        .file 17 "/opt/compiler-explorer/gcc-12.2.0/include/c++/12.2.0/bits/refwrap.h"
        .file 18 "/usr/include/x86_64-linux-gnu/bits/stdio.h"
        .file 19 "/opt/compiler-explorer/gcc-12.2.0/include/c++/12.2.0/bits/predefined_ops.h"
        .file 20 "/usr/include/stdlib.h"
        .file 21 "/usr/include/x86_64-linux-gnu/bits/stdlib-float.h"
        .file 22 "/usr/include/x86_64-linux-gnu/bits/stdlib-bsearch.h"
        .file 23 "/opt/compiler-explorer/gcc-12.2.0/include/c++/12.2.0/new"
        .file 24 "/opt/compiler-explorer/gcc-12.2.0/include/c++/12.2.0/bits/functexcept.h"
        .section        .note.GNU-stack,"",@progbits