	.text
	.intel_syntax noprefix
	.file	"example.cpp"
	.file	1 "/tmp/compiler-explorer-compiler1181120-2080-yfo6a1.y1o4e" "/opt/compiler-explorer/libs/ctre/master/include/ctll/fixed_string.hpp"
	.file	2 "/tmp/compiler-explorer-compiler1181120-2080-yfo6a1.y1o4e" "/opt/compiler-explorer/clang-trunk-20181013/lib/clang/8.0.0/include/stddef.h"
	.file	3 "/tmp/compiler-explorer-compiler1181120-2080-yfo6a1.y1o4e" "/tmp/compiler-explorer-compiler1181120-2080-yfo6a1.y1o4e/example.cpp"
	.file	4 "/tmp/compiler-explorer-compiler1181120-2080-yfo6a1.y1o4e" "/opt/compiler-explorer/libs/ctre/master/include/ctre/return_type.hpp"
	.file	5 "/tmp/compiler-explorer-compiler1181120-2080-yfo6a1.y1o4e" "/opt/compiler-explorer/libs/ctre/master/include/ctre/wrapper.hpp"
	.file	6 "/tmp/compiler-explorer-compiler1181120-2080-yfo6a1.y1o4e" "/opt/compiler-explorer/libs/ctre/master/include/ctre/atoms_characters.hpp"
	.file	7 "/tmp/compiler-explorer-compiler1181120-2080-yfo6a1.y1o4e" "/opt/compiler-explorer/libs/ctre/master/include/ctre/atoms.hpp"
	.file	8 "/tmp/compiler-explorer-compiler1181120-2080-yfo6a1.y1o4e" "/opt/compiler-explorer/clang-trunk-20181013/lib/clang/8.0.0/include/__stddef_max_align_t.h"
	.file	9 "/tmp/compiler-explorer-compiler1181120-2080-yfo6a1.y1o4e" "/opt/compiler-explorer/gcc-8.2.0/lib/gcc/x86_64-linux-gnu/8.2.0/../../../../include/c++/8.2.0/cstddef"
	.file	10 "/tmp/compiler-explorer-compiler1181120-2080-yfo6a1.y1o4e" "/usr/include/x86_64-linux-gnu/bits/types.h"
	.file	11 "/tmp/compiler-explorer-compiler1181120-2080-yfo6a1.y1o4e" "/usr/include/x86_64-linux-gnu/bits/stdint-intn.h"
	.file	12 "/tmp/compiler-explorer-compiler1181120-2080-yfo6a1.y1o4e" "/opt/compiler-explorer/gcc-8.2.0/lib/gcc/x86_64-linux-gnu/8.2.0/../../../../include/c++/8.2.0/cstdint"
	.file	13 "/tmp/compiler-explorer-compiler1181120-2080-yfo6a1.y1o4e" "/usr/include/stdint.h"
	.file	14 "/tmp/compiler-explorer-compiler1181120-2080-yfo6a1.y1o4e" "/usr/include/x86_64-linux-gnu/bits/stdint-uintn.h"
	.file	15 "/tmp/compiler-explorer-compiler1181120-2080-yfo6a1.y1o4e" "/opt/compiler-explorer/gcc-8.2.0/lib/gcc/x86_64-linux-gnu/8.2.0/../../../../include/c++/8.2.0/bits/exception_ptr.h"
	.file	16 "/tmp/compiler-explorer-compiler1181120-2080-yfo6a1.y1o4e" "/opt/compiler-explorer/gcc-8.2.0/lib/gcc/x86_64-linux-gnu/8.2.0/../../../../include/c++/8.2.0/x86_64-linux-gnu/bits/c++config.h"
	.file	17 "/tmp/compiler-explorer-compiler1181120-2080-yfo6a1.y1o4e" "/opt/compiler-explorer/gcc-8.2.0/lib/gcc/x86_64-linux-gnu/8.2.0/../../../../include/c++/8.2.0/debug/debug.h"
	.file	18 "/tmp/compiler-explorer-compiler1181120-2080-yfo6a1.y1o4e" "/usr/include/x86_64-linux-gnu/bits/types/__mbstate_t.h"
	.file	19 "/tmp/compiler-explorer-compiler1181120-2080-yfo6a1.y1o4e" "/usr/include/x86_64-linux-gnu/bits/types/mbstate_t.h"
	.file	20 "/tmp/compiler-explorer-compiler1181120-2080-yfo6a1.y1o4e" "/opt/compiler-explorer/gcc-8.2.0/lib/gcc/x86_64-linux-gnu/8.2.0/../../../../include/c++/8.2.0/cwchar"
	.file	21 "/tmp/compiler-explorer-compiler1181120-2080-yfo6a1.y1o4e" "/usr/include/x86_64-linux-gnu/bits/types/wint_t.h"
	.file	22 "/tmp/compiler-explorer-compiler1181120-2080-yfo6a1.y1o4e" "/usr/include/wchar.h"
	.file	23 "/tmp/compiler-explorer-compiler1181120-2080-yfo6a1.y1o4e" "/usr/include/x86_64-linux-gnu/bits/libio.h"
	.file	24 "/tmp/compiler-explorer-compiler1181120-2080-yfo6a1.y1o4e" "/usr/include/x86_64-linux-gnu/bits/types/__FILE.h"
	.file	25 "/tmp/compiler-explorer-compiler1181120-2080-yfo6a1.y1o4e" "/opt/compiler-explorer/gcc-8.2.0/lib/gcc/x86_64-linux-gnu/8.2.0/../../../../include/c++/8.2.0/ext/new_allocator.h"
	.file	26 "/tmp/compiler-explorer-compiler1181120-2080-yfo6a1.y1o4e" "/opt/compiler-explorer/gcc-8.2.0/lib/gcc/x86_64-linux-gnu/8.2.0/../../../../include/c++/8.2.0/clocale"
	.file	27 "/tmp/compiler-explorer-compiler1181120-2080-yfo6a1.y1o4e" "/usr/include/locale.h"
	.file	28 "/tmp/compiler-explorer-compiler1181120-2080-yfo6a1.y1o4e" "/usr/include/ctype.h"
	.file	29 "/tmp/compiler-explorer-compiler1181120-2080-yfo6a1.y1o4e" "/opt/compiler-explorer/gcc-8.2.0/lib/gcc/x86_64-linux-gnu/8.2.0/../../../../include/c++/8.2.0/cctype"
	.file	30 "/tmp/compiler-explorer-compiler1181120-2080-yfo6a1.y1o4e" "/usr/include/stdlib.h"
	.file	31 "/tmp/compiler-explorer-compiler1181120-2080-yfo6a1.y1o4e" "/opt/compiler-explorer/gcc-8.2.0/lib/gcc/x86_64-linux-gnu/8.2.0/../../../../include/c++/8.2.0/bits/std_abs.h"
	.file	32 "/tmp/compiler-explorer-compiler1181120-2080-yfo6a1.y1o4e" "/opt/compiler-explorer/gcc-8.2.0/lib/gcc/x86_64-linux-gnu/8.2.0/../../../../include/c++/8.2.0/cstdlib"
	.file	33 "/tmp/compiler-explorer-compiler1181120-2080-yfo6a1.y1o4e" "/usr/include/x86_64-linux-gnu/bits/stdlib-float.h"
	.file	34 "/tmp/compiler-explorer-compiler1181120-2080-yfo6a1.y1o4e" "/usr/include/x86_64-linux-gnu/bits/stdlib-bsearch.h"
	.file	35 "/tmp/compiler-explorer-compiler1181120-2080-yfo6a1.y1o4e" "/usr/include/x86_64-linux-gnu/bits/types/FILE.h"
	.file	36 "/tmp/compiler-explorer-compiler1181120-2080-yfo6a1.y1o4e" "/opt/compiler-explorer/gcc-8.2.0/lib/gcc/x86_64-linux-gnu/8.2.0/../../../../include/c++/8.2.0/cstdio"
	.file	37 "/tmp/compiler-explorer-compiler1181120-2080-yfo6a1.y1o4e" "/usr/include/x86_64-linux-gnu/bits/_G_config.h"
	.file	38 "/tmp/compiler-explorer-compiler1181120-2080-yfo6a1.y1o4e" "/usr/include/stdio.h"
	.file	39 "/tmp/compiler-explorer-compiler1181120-2080-yfo6a1.y1o4e" "/usr/include/x86_64-linux-gnu/bits/stdio.h"
	.globl	_Z6myfuncv              # -- Begin function _Z6myfuncv
	.p2align	4, 0x90
	.type	_Z6myfuncv,@function
_Z6myfuncv:                             # @_Z6myfuncv
.Lfunc_begin0:
	.loc	3 9 0                   # /tmp/compiler-explorer-compiler1181120-2080-yfo6a1.y1o4e/example.cpp:9:0
	.cfi_startproc
	.cfi_personality 3, __gxx_personality_v0
	.cfi_lsda 3, .Lexception0
# %bb.0:
	sub	rsp, 88
	.cfi_def_cfa_offset 96
.Ltmp3:
	#DEBUG_VALUE: match:sv <- [DW_OP_LLVM_fragment 0 64] 5
	#DEBUG_VALUE: match:sv <- [DW_OP_deref] undef
	#DEBUG_VALUE: regex_results:this <- undef
	#DEBUG_VALUE: captures:this <- undef
	#DEBUG_VALUE: storage:this <- undef
	.loc	4 18 12 prologue_end    # /opt/compiler-explorer/libs/ctre/master/include/ctre/return_type.hpp:18:12
	mov	byte ptr [rsp + 32], 0
	mov	qword ptr [rsp + 24], 0
.Ltmp4:
	.file	40 "/tmp/compiler-explorer-compiler1181120-2080-yfo6a1.y1o4e" "/opt/compiler-explorer/libs/ctre/master/include/ctre/evaluation.hpp"
	.loc	40 64 55                # /opt/compiler-explorer/libs/ctre/master/include/ctre/evaluation.hpp:64:55
	mov	qword ptr [rsp + 40], offset .L.str
.Ltmp5:
	#DEBUG_VALUE: evaluate<ctre::regex_results<const char *>, const char *, const char *, 0, 0, ctre::any, ctre::assert_end, ctre::end_mark, ctre::accept>:begin <- undef
	#DEBUG_VALUE: evaluate<ctre::regex_results<const char *>, const char *, const char *, ctre::any, ctre::assert_end, ctre::end_mark, ctre::accept>:begin <- undef
	#DEBUG_VALUE: evaluate<ctre::regex_results<const char *>, const char *, const char *, ctre::star<ctre::any>, ctre::assert_end, ctre::end_mark, ctre::accept>:begin <- undef
	#DEBUG_VALUE: evaluate<ctre::regex_results<const char *>, const char *, const char *, ctre::character<'h'>, ctre::sequence<ctre::star<ctre::any> >, ctre::assert_end, ctre::end_mark, ctre::accept, void>:current <- undef
	#DEBUG_VALUE: evaluate<ctre::regex_results<const char *>, const char *, const char *, ctre::character<'h'>, ctre::sequence<ctre::star<ctre::any> >, ctre::assert_end, ctre::end_mark, ctre::accept, void>:begin <- undef
	#DEBUG_VALUE: evaluate<ctre::regex_results<const char *>, const char *, const char *, ctre::character<'h'>, ctre::star<ctre::any> , ctre::assert_end, ctre::end_mark, ctre::accept>:current <- undef
	#DEBUG_VALUE: evaluate<ctre::regex_results<const char *>, const char *, const char *, ctre::character<'h'>, ctre::star<ctre::any> , ctre::assert_end, ctre::end_mark, ctre::accept>:begin <- undef
	#DEBUG_VALUE: evaluate<ctre::regex_results<const char *>, const char *, const char *, ctre::sequence<ctre::character<'h'>, ctre::star<ctre::any> >, ctre::assert_end, ctre::end_mark, ctre::accept>:captures <- [DW_OP_LLVM_fragment 0 64] undef
	#DEBUG_VALUE: evaluate<ctre::regex_results<const char *>, const char *, const char *, ctre::sequence<ctre::character<'h'>, ctre::star<ctre::any> >, ctre::assert_end, ctre::end_mark, ctre::accept>:current <- undef
	#DEBUG_VALUE: evaluate<ctre::regex_results<const char *>, const char *, const char *, ctre::sequence<ctre::character<'h'>, ctre::star<ctre::any> >, ctre::assert_end, ctre::end_mark, ctre::accept>:begin <- undef
	#DEBUG_VALUE: match_re<const char *, const char *, ctre::sequence<ctre::character<'h'>, ctre::star<ctre::any> > >:begin <- undef
	#DEBUG_VALUE: match<const char *>:begin <- undef
	mov	rax, qword ptr [rsp + 24]
	mov	qword ptr [rsp + 48], rax
	mov	al, byte ptr [rsp + 32]
	mov	byte ptr [rsp + 56], al
	mov	eax, dword ptr [rsp + 33]
	mov	dword ptr [rsp + 57], eax
	movzx	eax, word ptr [rsp + 37]
	mov	word ptr [rsp + 61], ax
	mov	al, byte ptr [rsp + 39]
	mov	byte ptr [rsp + 63], al
.Ltmp0:
.Ltmp6:
	#DEBUG_VALUE: evaluate<ctre::regex_results<const char *>, const char *, const char *, 0, 0, ctre::any, ctre::assert_end, ctre::end_mark, ctre::accept>:i <- 0
	.loc	40 267 9                # /opt/compiler-explorer/libs/ctre/master/include/ctre/evaluation.hpp:267:9
	mov	rax, qword ptr [rsp + 56]
	mov	qword ptr [rsp + 16], rax
	movups	xmm0, xmmword ptr [rsp + 40]
	movups	xmmword ptr [rsp], xmm0
	lea	rdi, [rsp + 64]
.Ltmp7:
	#DEBUG_VALUE: evaluate<ctre::regex_results<const char *>, const char *, const char *, 0, 0, ctre::any, ctre::assert_end, ctre::end_mark, ctre::accept>:end <- undef
	#DEBUG_VALUE: evaluate<ctre::regex_results<const char *>, const char *, const char *, ctre::any, ctre::assert_end, ctre::end_mark, ctre::accept>:end <- undef
	#DEBUG_VALUE: evaluate<ctre::regex_results<const char *>, const char *, const char *, ctre::star<ctre::any>, ctre::assert_end, ctre::end_mark, ctre::accept>:end <- undef
	#DEBUG_VALUE: evaluate<ctre::regex_results<const char *>, const char *, const char *, ctre::character<'h'>, ctre::sequence<ctre::star<ctre::any> >, ctre::assert_end, ctre::end_mark, ctre::accept, void>:end <- undef
	#DEBUG_VALUE: evaluate<ctre::regex_results<const char *>, const char *, const char *, ctre::character<'h'>, ctre::star<ctre::any> , ctre::assert_end, ctre::end_mark, ctre::accept>:end <- undef
	#DEBUG_VALUE: evaluate<ctre::regex_results<const char *>, const char *, const char *, ctre::sequence<ctre::character<'h'>, ctre::star<ctre::any> >, ctre::assert_end, ctre::end_mark, ctre::accept>:end <- undef
	#DEBUG_VALUE: match_re<const char *, const char *, ctre::sequence<ctre::character<'h'>, ctre::star<ctre::any> > >:end <- undef
	#DEBUG_VALUE: evaluate<ctre::regex_results<const char *>, const char *, const char *, 0, 0, ctre::any, ctre::assert_end, ctre::end_mark, ctre::accept>:current <- undef
	#DEBUG_VALUE: evaluate<ctre::regex_results<const char *>, const char *, const char *, ctre::any, ctre::assert_end, ctre::end_mark, ctre::accept>:current <- undef
	xor	esi, esi
	mov	edx, offset .L.str
.Ltmp8:
	#DEBUG_VALUE: match:sv <- [DW_OP_LLVM_fragment 64 64] $rdx
	mov	ecx, offset .L.str+1
.Ltmp9:
	#DEBUG_VALUE: evaluate<ctre::regex_results<const char *>, const char *, const char *, ctre::star<ctre::any>, ctre::assert_end, ctre::end_mark, ctre::accept>:current <- $rcx
	mov	r8d, offset .L.str+5
.Ltmp10:
	#DEBUG_VALUE: match<const char *>:end <- $r8
	call	_ZN4ctre18evaluate_recursiveINS_13regex_resultsIPKcJEEES3_S3_Lm0ELm0EJNS_3anyEEJNS_10assert_endENS_8end_markENS_6acceptEEEET_mT0_SA_T1_S9_N4ctll4listIJNS_6repeatIXT2_EXT3_EJDpT4_EEEDpT5_EEE
.Ltmp11:
.Ltmp1:
# %bb.1:
	.loc	3 11 1                  # /tmp/compiler-explorer-compiler1181120-2080-yfo6a1.y1o4e/example.cpp:11:1
	add	rsp, 88
	.cfi_def_cfa_offset 8
	ret
.LBB0_2:
	.cfi_def_cfa_offset 96
.Ltmp2:
.Ltmp12:
	.loc	40 298 9                # /opt/compiler-explorer/libs/ctre/master/include/ctre/evaluation.hpp:298:9
	mov	rdi, rax
	call	__clang_call_terminate
.Ltmp13:
.Lfunc_end0:
	.size	_Z6myfuncv, .Lfunc_end0-_Z6myfuncv
	.cfi_endproc
	.file	41 "/tmp/compiler-explorer-compiler1181120-2080-yfo6a1.y1o4e" "/opt/compiler-explorer/gcc-8.2.0/lib/gcc/x86_64-linux-gnu/8.2.0/../../../../include/c++/8.2.0/string_view"
	.file	42 "/tmp/compiler-explorer-compiler1181120-2080-yfo6a1.y1o4e" "/opt/compiler-explorer/gcc-8.2.0/lib/gcc/x86_64-linux-gnu/8.2.0/../../../../include/c++/8.2.0/bits/char_traits.h"
	.file	43 "/tmp/compiler-explorer-compiler1181120-2080-yfo6a1.y1o4e" "/opt/compiler-explorer/libs/ctre/master/include/ctll/list.hpp"
	.section	.gcc_except_table,"a",@progbits
	.p2align	2
GCC_except_table0:
.Lexception0:
	.byte	255                     # @LPStart Encoding = omit
	.byte	3                       # @TType Encoding = udata4
	.uleb128 .Lttbase0-.Lttbaseref0
.Lttbaseref0:
	.byte	1                       # Call site Encoding = uleb128
	.uleb128 .Lcst_end0-.Lcst_begin0
.Lcst_begin0:
	.uleb128 .Ltmp0-.Lfunc_begin0   # >> Call Site 1 <<
	.uleb128 .Ltmp1-.Ltmp0          #   Call between .Ltmp0 and .Ltmp1
	.uleb128 .Ltmp2-.Lfunc_begin0   #     jumps to .Ltmp2
	.byte	1                       #   On action: 1
.Lcst_end0:
	.byte	1                       # >> Action Record 1 <<
                                        #   Catch TypeInfo 1
	.byte	0                       #   No further actions
	.p2align	2
                                        # >> Catch TypeInfos <<
	.long	0                       # TypeInfo 1
.Lttbase0:
	.p2align	2
                                        # -- End function
	.section	.text.__clang_call_terminate,"axG",@progbits,__clang_call_terminate,comdat
	.hidden	__clang_call_terminate  # -- Begin function __clang_call_terminate
	.weak	__clang_call_terminate
	.p2align	4, 0x90
	.type	__clang_call_terminate,@function
__clang_call_terminate:                 # @__clang_call_terminate
.Lfunc_begin1:
	.cfi_startproc
# %bb.0:
	push	rax
	.cfi_def_cfa_offset 16
	call	__cxa_begin_catch
	call	_ZSt9terminatev
.Lfunc_end1:
	.size	__clang_call_terminate, .Lfunc_end1-__clang_call_terminate
	.cfi_endproc
                                        # -- End function
	.section	.text._ZN4ctre18evaluate_recursiveINS_13regex_resultsIPKcJEEES3_S3_Lm0ELm0EJNS_3anyEEJNS_10assert_endENS_8end_markENS_6acceptEEEET_mT0_SA_T1_S9_N4ctll4listIJNS_6repeatIXT2_EXT3_EJDpT4_EEEDpT5_EEE,"axG",@progbits,_ZN4ctre18evaluate_recursiveINS_13regex_resultsIPKcJEEES3_S3_Lm0ELm0EJNS_3anyEEJNS_10assert_endENS_8end_markENS_6acceptEEEET_mT0_SA_T1_S9_N4ctll4listIJNS_6repeatIXT2_EXT3_EJDpT4_EEEDpT5_EEE,comdat
	.weak	_ZN4ctre18evaluate_recursiveINS_13regex_resultsIPKcJEEES3_S3_Lm0ELm0EJNS_3anyEEJNS_10assert_endENS_8end_markENS_6acceptEEEET_mT0_SA_T1_S9_N4ctll4listIJNS_6repeatIXT2_EXT3_EJDpT4_EEEDpT5_EEE # -- Begin function _ZN4ctre18evaluate_recursiveINS_13regex_resultsIPKcJEEES3_S3_Lm0ELm0EJNS_3anyEEJNS_10assert_endENS_8end_markENS_6acceptEEEET_mT0_SA_T1_S9_N4ctll4listIJNS_6repeatIXT2_EXT3_EJDpT4_EEEDpT5_EEE
	.p2align	4, 0x90
	.type	_ZN4ctre18evaluate_recursiveINS_13regex_resultsIPKcJEEES3_S3_Lm0ELm0EJNS_3anyEEJNS_10assert_endENS_8end_markENS_6acceptEEEET_mT0_SA_T1_S9_N4ctll4listIJNS_6repeatIXT2_EXT3_EJDpT4_EEEDpT5_EEE,@function
_ZN4ctre18evaluate_recursiveINS_13regex_resultsIPKcJEEES3_S3_Lm0ELm0EJNS_3anyEEJNS_10assert_endENS_8end_markENS_6acceptEEEET_mT0_SA_T1_S9_N4ctll4listIJNS_6repeatIXT2_EXT3_EJDpT4_EEEDpT5_EEE: # @_ZN4ctre18evaluate_recursiveINS_13regex_resultsIPKcJEEES3_S3_Lm0ELm0EJNS_3anyEEJNS_10assert_endENS_8end_markENS_6acceptEEEET_mT0_SA_T1_S9_N4ctll4listIJNS_6repeatIXT2_EXT3_EJDpT4_EEEDpT5_EEE
.Lfunc_begin2:
	.loc	40 235 0                # /opt/compiler-explorer/libs/ctre/master/include/ctre/evaluation.hpp:235:0
	.cfi_startproc
# %bb.0:
	push	rbx
	.cfi_def_cfa_offset 16
	sub	rsp, 80
	.cfi_def_cfa_offset 96
	.cfi_offset rbx, -16
	#DEBUG_VALUE: evaluate_recursive<ctre::regex_results<const char *>, const char *, const char *, 0, 0, ctre::any, ctre::assert_end, ctre::end_mark, ctre::accept>:i <- $rsi
	#DEBUG_VALUE: evaluate_recursive<ctre::regex_results<const char *>, const char *, const char *, 0, 0, ctre::any, ctre::assert_end, ctre::end_mark, ctre::accept>:begin <- $rdx
	#DEBUG_VALUE: evaluate_recursive<ctre::regex_results<const char *>, const char *, const char *, 0, 0, ctre::any, ctre::assert_end, ctre::end_mark, ctre::accept>:current <- $rcx
	#DEBUG_VALUE: evaluate_recursive<ctre::regex_results<const char *>, const char *, const char *, 0, 0, ctre::any, ctre::assert_end, ctre::end_mark, ctre::accept>:end <- $r8
.Ltmp14:
	#DEBUG_VALUE: evaluate<ctre::regex_results<const char *>, const char *, const char *, ctre::any, ctre::end_cycle_mark>:begin <- $rdx
	#DEBUG_VALUE: evaluate<ctre::regex_results<const char *>, const char *, const char *, ctre::any, ctre::end_cycle_mark>:current <- $rcx
	#DEBUG_VALUE: evaluate<ctre::regex_results<const char *>, const char *, const char *, ctre::any, ctre::end_cycle_mark>:end <- $r8
	#DEBUG_VALUE: evaluate<ctre::regex_results<const char *>, const char *, const char *, ctre::any, ctre::end_cycle_mark, void>:begin <- $rdx
	#DEBUG_VALUE: evaluate<ctre::regex_results<const char *>, const char *, const char *, ctre::any, ctre::end_cycle_mark, void>:current <- $rcx
	#DEBUG_VALUE: evaluate<ctre::regex_results<const char *>, const char *, const char *, ctre::any, ctre::end_cycle_mark, void>:end <- $r8
	#DEBUG_VALUE: evaluate<ctre::regex_results<const char *>, const char *, const char *>: <- $rdx
	#DEBUG_VALUE: evaluate<ctre::regex_results<const char *>, const char *, const char *>: <- $rdx
	#DEBUG_VALUE: evaluate<ctre::regex_results<const char *>, const char *, const char *>: <- $r8
	#DEBUG_VALUE: evaluate<ctre::regex_results<const char *>, const char *, const char *>: <- $r8
	#DEBUG_VALUE: operator bool:this <- $rdi
	#DEBUG_VALUE: operator bool:this <- $rdi
	#DEBUG_VALUE: regex_results:this <- $rdi
	#DEBUG_VALUE: captures:this <- $rdi
	#DEBUG_VALUE: storage:this <- $rdi
	#DEBUG_VALUE: evaluate<ctre::regex_results<const char *>, const char *, const char *, ctre::end_mark, ctre::accept>:captures <- [DW_OP_plus_uconst 96, DW_OP_plus_uconst 16, DW_OP_deref, DW_OP_stack_value, DW_OP_LLVM_fragment 128 64] [$rsp+0]
	#DEBUG_VALUE: evaluate<ctre::regex_results<const char *>, const char *, const char *, ctre::end_mark, ctre::accept>:end <- $r8
	#DEBUG_VALUE: evaluate<ctre::regex_results<const char *>, const char *, const char *, ctre::end_mark, ctre::accept>:end <- $r8
	#DEBUG_VALUE: evaluate<ctre::regex_results<const char *>, const char *, const char *, ctre::accept>:end <- $r8
	#DEBUG_VALUE: evaluate<ctre::regex_results<const char *>, const char *, const char *, ctre::accept>:end <- $r8
	mov	rbx, rdi
.Ltmp15:
	#DEBUG_VALUE: rec_result <- [$rbx+0]
	#DEBUG_VALUE: storage:this <- $rbx
	#DEBUG_VALUE: captures:this <- $rbx
	#DEBUG_VALUE: regex_results:this <- $rbx
	#DEBUG_VALUE: operator bool:this <- $rbx
	#DEBUG_VALUE: operator bool:this <- $rbx
	#DEBUG_VALUE: evaluate_recursive<ctre::regex_results<const char *>, const char *, const char *, 0, 0, ctre::any, ctre::assert_end, ctre::end_mark, ctre::accept>:end <- $r8
	#DEBUG_VALUE: evaluate_recursive<ctre::regex_results<const char *>, const char *, const char *, 0, 0, ctre::any, ctre::assert_end, ctre::end_mark, ctre::accept>:current <- $rcx
	#DEBUG_VALUE: evaluate_recursive<ctre::regex_results<const char *>, const char *, const char *, 0, 0, ctre::any, ctre::assert_end, ctre::end_mark, ctre::accept>:begin <- $rdx
	#DEBUG_VALUE: evaluate_recursive<ctre::regex_results<const char *>, const char *, const char *, 0, 0, ctre::any, ctre::assert_end, ctre::end_mark, ctre::accept>:i <- $rsi
	.loc	40 241 57 prologue_end  # /opt/compiler-explorer/libs/ctre/master/include/ctre/evaluation.hpp:241:57
	mov	rdi, qword ptr [rsp + 96]
.Ltmp16:
	#DEBUG_VALUE: inner_result <- [DW_OP_deref] undef
	#DEBUG_VALUE: evaluate<ctre::regex_results<const char *>, const char *, const char *, ctre::any, ctre::end_cycle_mark>:captures <- [DW_OP_LLVM_fragment 0 64] $rdi
	#DEBUG_VALUE: evaluate<ctre::regex_results<const char *>, const char *, const char *, ctre::any, ctre::end_cycle_mark, void>:captures <- [DW_OP_LLVM_fragment 0 64] $rdi
	#DEBUG_VALUE: evaluate<ctre::regex_results<const char *>, const char *, const char *, ctre::end_mark, ctre::accept>:captures <- [DW_OP_LLVM_fragment 0 64] $rdi
	#DEBUG_VALUE: evaluate<ctre::regex_results<const char *>, const char *, const char *, ctre::any, ctre::end_cycle_mark, void>:end <- $r8
	#DEBUG_VALUE: evaluate<ctre::regex_results<const char *>, const char *, const char *, ctre::any, ctre::end_cycle_mark, void>:current <- $rcx
	#DEBUG_VALUE: evaluate<ctre::regex_results<const char *>, const char *, const char *, ctre::any, ctre::end_cycle_mark, void>:begin <- $rdx
	#DEBUG_VALUE: evaluate<ctre::regex_results<const char *>, const char *, const char *, ctre::any, ctre::end_cycle_mark>:end <- $r8
	#DEBUG_VALUE: evaluate<ctre::regex_results<const char *>, const char *, const char *, ctre::any, ctre::end_cycle_mark>:current <- $rcx
	#DEBUG_VALUE: evaluate<ctre::regex_results<const char *>, const char *, const char *, ctre::any, ctre::end_cycle_mark>:begin <- $rdx
	.loc	40 64 55                # /opt/compiler-explorer/libs/ctre/master/include/ctre/evaluation.hpp:64:55
	movups	xmm0, xmmword ptr [rsp + 104]
	movaps	xmmword ptr [rsp + 64], xmm0
.Ltmp17:
	.loc	40 65 10                # /opt/compiler-explorer/libs/ctre/master/include/ctre/evaluation.hpp:65:10
	cmp	r8, rcx
.Ltmp18:
	.loc	40 65 6 is_stmt 0       # /opt/compiler-explorer/libs/ctre/master/include/ctre/evaluation.hpp:65:6
	je	.LBB2_3
.Ltmp19:
# %bb.1:
	#DEBUG_VALUE: evaluate<ctre::regex_results<const char *>, const char *, const char *, ctre::any, ctre::end_cycle_mark, void>:captures <- [DW_OP_LLVM_fragment 0 64] $rdi
	#DEBUG_VALUE: evaluate<ctre::regex_results<const char *>, const char *, const char *, ctre::any, ctre::end_cycle_mark>:captures <- [DW_OP_LLVM_fragment 0 64] $rdi
	#DEBUG_VALUE: operator bool:this <- $rbx
	#DEBUG_VALUE: operator bool:this <- $rbx
	#DEBUG_VALUE: rec_result <- [$rbx+0]
	#DEBUG_VALUE: evaluate<ctre::regex_results<const char *>, const char *, const char *>: <- $r8
	#DEBUG_VALUE: evaluate<ctre::regex_results<const char *>, const char *, const char *>: <- $rdx
	#DEBUG_VALUE: evaluate<ctre::regex_results<const char *>, const char *, const char *, ctre::any, ctre::end_cycle_mark, void>:end <- $r8
	#DEBUG_VALUE: evaluate<ctre::regex_results<const char *>, const char *, const char *, ctre::any, ctre::end_cycle_mark, void>:current <- $rcx
	#DEBUG_VALUE: evaluate<ctre::regex_results<const char *>, const char *, const char *, ctre::any, ctre::end_cycle_mark, void>:begin <- $rdx
	#DEBUG_VALUE: evaluate<ctre::regex_results<const char *>, const char *, const char *, ctre::any, ctre::end_cycle_mark>:end <- $r8
	#DEBUG_VALUE: evaluate<ctre::regex_results<const char *>, const char *, const char *, ctre::any, ctre::end_cycle_mark>:current <- $rcx
	#DEBUG_VALUE: evaluate<ctre::regex_results<const char *>, const char *, const char *, ctre::any, ctre::end_cycle_mark>:begin <- $rdx
	#DEBUG_VALUE: evaluate_recursive<ctre::regex_results<const char *>, const char *, const char *, 0, 0, ctre::any, ctre::assert_end, ctre::end_mark, ctre::accept>:end <- $r8
	#DEBUG_VALUE: evaluate_recursive<ctre::regex_results<const char *>, const char *, const char *, 0, 0, ctre::any, ctre::assert_end, ctre::end_mark, ctre::accept>:current <- $rcx
	#DEBUG_VALUE: evaluate_recursive<ctre::regex_results<const char *>, const char *, const char *, 0, 0, ctre::any, ctre::assert_end, ctre::end_mark, ctre::accept>:begin <- $rdx
	#DEBUG_VALUE: evaluate_recursive<ctre::regex_results<const char *>, const char *, const char *, 0, 0, ctre::any, ctre::assert_end, ctre::end_mark, ctre::accept>:i <- $rsi
	.loc	40 67 32 is_stmt 1      # /opt/compiler-explorer/libs/ctre/master/include/ctre/evaluation.hpp:67:32
	add	rcx, 1
.Ltmp20:
	#DEBUG_VALUE: evaluate<ctre::regex_results<const char *>, const char *, const char *>:captures <- [DW_OP_LLVM_fragment 128 8] 1
	#DEBUG_VALUE: evaluate<ctre::regex_results<const char *>, const char *, const char *>:captures <- [DW_OP_plus_uconst 16, DW_OP_deref, DW_OP_stack_value, DW_OP_LLVM_fragment 128 8] undef
	#DEBUG_VALUE: evaluate<ctre::regex_results<const char *>, const char *, const char *>:captures <- [DW_OP_plus_uconst 8, DW_OP_deref, DW_OP_stack_value, DW_OP_LLVM_fragment 64 64] undef
	#DEBUG_VALUE: evaluate<ctre::regex_results<const char *>, const char *, const char *>:captures <- [DW_OP_deref, DW_OP_LLVM_fragment 0 64] undef
	#DEBUG_VALUE: evaluate<ctre::regex_results<const char *>, const char *, const char *>:captures <- [DW_OP_LLVM_fragment 64 64] $rcx
	#DEBUG_VALUE: evaluate<ctre::regex_results<const char *>, const char *, const char *>:current <- $rcx
	.loc	40 57 9                 # /opt/compiler-explorer/libs/ctre/master/include/ctre/evaluation.hpp:57:9
	mov	al, byte ptr [rsp + 79]
	mov	byte ptr [rsp + 38], al
	movzx	eax, word ptr [rsp + 77]
	mov	word ptr [rsp + 36], ax
	mov	eax, dword ptr [rsp + 73]
	mov	dword ptr [rsp + 32], eax
.Ltmp21:
	#DEBUG_VALUE: operator bool:this <- undef
	#DEBUG_VALUE: operator bool:this <- undef
	#DEBUG_VALUE: inner_result <- [DW_OP_deref] undef
	.loc	40 246 46               # /opt/compiler-explorer/libs/ctre/master/include/ctre/evaluation.hpp:246:46
	add	rsi, 1
.Ltmp22:
	.loc	40 246 95 is_stmt 0     # /opt/compiler-explorer/libs/ctre/master/include/ctre/evaluation.hpp:246:95
	mov	qword ptr [rsp + 40], rdi
	mov	qword ptr [rsp + 48], rcx
	mov	byte ptr [rsp + 56], 0
	mov	eax, dword ptr [rsp + 32]
	mov	dword ptr [rsp + 57], eax
	movzx	eax, word ptr [rsp + 36]
	mov	word ptr [rsp + 61], ax
	mov	al, byte ptr [rsp + 38]
	mov	byte ptr [rsp + 63], al
	.loc	40 246 26               # /opt/compiler-explorer/libs/ctre/master/include/ctre/evaluation.hpp:246:26
	mov	rax, qword ptr [rsp + 56]
	mov	qword ptr [rsp + 16], rax
	movups	xmm0, xmmword ptr [rsp + 40]
	movups	xmmword ptr [rsp], xmm0
	mov	rdi, rbx
.Ltmp23:
	call	_ZN4ctre18evaluate_recursiveINS_13regex_resultsIPKcJEEES3_S3_Lm0ELm0EJNS_3anyEEJNS_10assert_endENS_8end_markENS_6acceptEEEET_mT0_SA_T1_S9_N4ctll4listIJNS_6repeatIXT2_EXT3_EJDpT4_EEEDpT5_EEE
.Ltmp24:
	.loc	4 54 11 is_stmt 1       # /opt/compiler-explorer/libs/ctre/master/include/ctre/return_type.hpp:54:11
	cmp	byte ptr [rbx + 16], 0
.Ltmp25:
	.loc	40 246 13               # /opt/compiler-explorer/libs/ctre/master/include/ctre/evaluation.hpp:246:13
	je	.LBB2_2
.Ltmp26:
# %bb.4:
	.loc	40 252 1                # /opt/compiler-explorer/libs/ctre/master/include/ctre/evaluation.hpp:252:1
	mov	rax, rbx
	add	rsp, 80
	.cfi_def_cfa_offset 16
	pop	rbx
	.cfi_def_cfa_offset 8
	ret
.LBB2_3:
	.cfi_def_cfa_offset 96
.Ltmp27:
	#DEBUG_VALUE: evaluate<ctre::regex_results<const char *>, const char *, const char *, ctre::end_mark, ctre::accept>:captures <- [DW_OP_LLVM_fragment 0 64] $rdi
	#DEBUG_VALUE: evaluate<ctre::regex_results<const char *>, const char *, const char *, ctre::accept>:end <- $r8
	#DEBUG_VALUE: evaluate<ctre::regex_results<const char *>, const char *, const char *, ctre::end_mark, ctre::accept>:end <- $r8
	#DEBUG_VALUE: evaluate_recursive<ctre::regex_results<const char *>, const char *, const char *, 0, 0, ctre::any, ctre::assert_end, ctre::end_mark, ctre::accept>:end <- $r8
	#DEBUG_VALUE: evaluate_recursive<ctre::regex_results<const char *>, const char *, const char *, 0, 0, ctre::any, ctre::assert_end, ctre::end_mark, ctre::accept>:current <- $rcx
	#DEBUG_VALUE: evaluate_recursive<ctre::regex_results<const char *>, const char *, const char *, 0, 0, ctre::any, ctre::assert_end, ctre::end_mark, ctre::accept>:begin <- $rdx
	#DEBUG_VALUE: evaluate_recursive<ctre::regex_results<const char *>, const char *, const char *, 0, 0, ctre::any, ctre::assert_end, ctre::end_mark, ctre::accept>:i <- $rsi
	.loc	40 0 1 is_stmt 0        # /opt/compiler-explorer/libs/ctre/master/include/ctre/evaluation.hpp:0:1
	lea	rax, [rsp + 96]
.Ltmp28:
	#DEBUG_VALUE: evaluate<ctre::regex_results<const char *>, const char *, const char *, ctre::accept>:captures <- [DW_OP_plus_uconst 8, DW_OP_deref, DW_OP_stack_value, DW_OP_LLVM_fragment 64 64] undef
	#DEBUG_VALUE: evaluate<ctre::regex_results<const char *>, const char *, const char *, ctre::accept>:captures <- [DW_OP_deref, DW_OP_LLVM_fragment 0 64] undef
	#DEBUG_VALUE: operator bool:this <- undef
	#DEBUG_VALUE: operator bool:this <- undef
	#DEBUG_VALUE: inner_result <- [DW_OP_deref] undef
	.loc	40 251 39 is_stmt 1     # /opt/compiler-explorer/libs/ctre/master/include/ctre/evaluation.hpp:251:39
	mov	rax, qword ptr [rax + 16]
.Ltmp29:
	.loc	40 38 54                # /opt/compiler-explorer/libs/ctre/master/include/ctre/evaluation.hpp:38:54
	mov	qword ptr [rbx], rdi
	mov	qword ptr [rbx + 8], r8
.Ltmp30:
	#DEBUG_VALUE: evaluate<ctre::regex_results<const char *>, const char *, const char *>:captures <- [DW_OP_LLVM_fragment 128 8] 1
	#DEBUG_VALUE: evaluate<ctre::regex_results<const char *>, const char *, const char *>:captures <- [DW_OP_plus_uconst 16, DW_OP_deref, DW_OP_stack_value, DW_OP_LLVM_fragment 128 8] undef
	.loc	40 39 9                 # /opt/compiler-explorer/libs/ctre/master/include/ctre/evaluation.hpp:39:9
	mov	byte ptr [rbx + 16], 1
	mov	rcx, rax
.Ltmp31:
	shr	rcx, 8
	mov	rdx, rax
.Ltmp32:
	shr	rdx, 56
	mov	byte ptr [rbx + 23], dl
	shr	rax, 40
	mov	word ptr [rbx + 21], ax
	mov	dword ptr [rbx + 17], ecx
.Ltmp33:
	.loc	40 252 1                # /opt/compiler-explorer/libs/ctre/master/include/ctre/evaluation.hpp:252:1
	mov	rax, rbx
	add	rsp, 80
	.cfi_def_cfa_offset 16
	pop	rbx
	.cfi_def_cfa_offset 8
	ret
.Ltmp34:
.LBB2_2:
	.cfi_def_cfa_offset 96
	.loc	4 18 12                 # /opt/compiler-explorer/libs/ctre/master/include/ctre/return_type.hpp:18:12
	xorps	xmm0, xmm0
	movups	xmmword ptr [rbx], xmm0
	mov	byte ptr [rbx + 16], 0
.Ltmp35:
	.loc	40 252 1                # /opt/compiler-explorer/libs/ctre/master/include/ctre/evaluation.hpp:252:1
	mov	rax, rbx
	add	rsp, 80
	.cfi_def_cfa_offset 16
	pop	rbx
	.cfi_def_cfa_offset 8
	ret
.Ltmp36:
.Lfunc_end2:
	.size	_ZN4ctre18evaluate_recursiveINS_13regex_resultsIPKcJEEES3_S3_Lm0ELm0EJNS_3anyEEJNS_10assert_endENS_8end_markENS_6acceptEEEET_mT0_SA_T1_S9_N4ctll4listIJNS_6repeatIXT2_EXT3_EJDpT4_EEEDpT5_EEE, .Lfunc_end2-_ZN4ctre18evaluate_recursiveINS_13regex_resultsIPKcJEEES3_S3_Lm0ELm0EJNS_3anyEEJNS_10assert_endENS_8end_markENS_6acceptEEEET_mT0_SA_T1_S9_N4ctll4listIJNS_6repeatIXT2_EXT3_EJDpT4_EEEDpT5_EEE
	.cfi_endproc
                                        # -- End function
	.type	.L.str,@object          # @.str
	.section	.rodata.str1.1,"aMS",@progbits,1
.L.str:
	.asciz	"hello"
	.size	.L.str, 6

	.section	".note.GNU-stack","",@progbits
	.addrsig
	.addrsig_sym __gxx_personality_v0